

Microchip Technology PIC18 LITE Macro Assembler V1.45 build -152302408 
                                                                                               Sun Mar 10 10:37:13 2019

Microchip Technology Omniscient Code Generator v1.45 (Free mode) build 201711160504
     1  0000                     
     2                           ; Version 1.45
     3                           ; Generated 16/11/2017 GMT
     4                           
     5                           ; 
     6                           ; Copyright © 2017, Microchip Technology Inc. and its subsidiaries ("Microchip")
     7                           ; All rights reserved.
     8                           ; 
     9                           ; This software is developed by Microchip Technology Inc. and its subsidiaries ("Microch
                                 ip").
    10                           ; 
    11                           ; Redistribution and use in source and binary forms, with or without modification, are
    12                           ; permitted provided that the following conditions are met:
    13                           ; 
    14                           ;     1. Redistributions of source code must retain the above copyright notice, this lis
                                 t of
    15                           ;        conditions and the following disclaimer.
    16                           ; 
    17                           ;     2. Redistributions in binary form must reproduce the above copyright notice, this 
                                 list
    18                           ;        of conditions and the following disclaimer in the documentation and/or other
    19                           ;        materials provided with the distribution.
    20                           ; 
    21                           ;     3. Microchip's name may not be used to endorse or promote products derived from th
                                 is
    22                           ;        software without specific prior written permission.
    23                           ; 
    24                           ; THIS SOFTWARE IS PROVIDED BY MICROCHIP "AS IS" AND ANY EXPRESS OR IMPLIED WARRANTIES,

    25                           ; INCLUDING, BUT NOT LIMITED TO, THE IMPLIED WARRANTIES OF MERCHANTABILITY AND FITNESS F
                                 OR
    26                           ; PURPOSE ARE DISCLAIMED.  IN NO EVENT SHALL MICROCHIP BE LIABLE FOR ANY DIRECT, INDIREC
                                 T,
    27                           ; INCIDENTAL, SPECIAL, EXEMPLARY, OR CONSEQUENTIAL DAMAGES (INCLUDING BUT NOT LIMITED TO
                                 
    28                           ; PROCUREMENT OF SUBSTITUTE GOODS OR SERVICES; LOSS OF USE, DATA OR PROFITS; OR BUSINESS
                                 
    29                           ; INTERRUPTION) HOWSOEVER CAUSED AND ON ANY THEORY OF LIABILITY, WHETHER IN CONTRACT, ST
                                 RICT
    30                           ; LIABILITY, OR TORT (INCLUDING NEGLIGENCE OR OTHERWISE) ARISING IN ANY WAY OUT OF THE U
                                 SE OF
    31                           ; THIS SOFTWARE, EVEN IF ADVISED OF THE POSSIBILITY OF SUCH DAMAGE.
    32                           ; 
    33                           
    34                           
    35                           ; 
    36                           ; Code-generator required, PIC18F2550 Definitions
    37                           ; 
    38  0000                     fsr0 equ 0FE9h
    39  0000                     fsr0h equ 0FEAh
    40  0000                     fsr0l equ 0FE9h
    41  0000                     fsr1 equ 0FE1h
    42  0000                     fsr1h equ 0FE2h
    43  0000                     fsr1l equ 0FE1h
    44  0000                     fsr2 equ 0FD9h
    45  0000                     fsr2h equ 0FDAh
    46  0000                     fsr2l equ 0FD9h
    47  0000                     indf0 equ 0FEFh
    48  0000                     indf1 equ 0FE7h
    49  0000                     indf2 equ 0FDFh
    50  0000                     intcon equ 0FF2h
    51  0000                     nvmcon equ 00h
    52  0000                     pcl equ 0FF9h
    53  0000                     pclath equ 0FFAh
    54  0000                     pclatu equ 0FFBh
    55  0000                     plusw0 equ 0FEBh
    56  0000                     plusw1 equ 0FE3h
    57  0000                     plusw2 equ 0FDBh
    58  0000                     postdec0 equ 0FEDh
    59  0000                     postdec1 equ 0FE5h
    60  0000                     postdec2 equ 0FDDh
    61  0000                     postinc0 equ 0FEEh
    62  0000                     postinc1 equ 0FE6h
    63  0000                     postinc2 equ 0FDEh
    64  0000                     preinc0 equ 0FECh
    65  0000                     preinc1 equ 0FE4h
    66  0000                     preinc2 equ 0FDCh
    67  0000                     prod equ 0FF3h
    68  0000                     prodh equ 0FF4h
    69  0000                     prodl equ 0FF3h
    70  0000                     status equ 0FD8h
    71  0000                     tablat equ 0FF5h
    72  0000                     tblptr equ 0FF6h
    73  0000                     tblptrh equ 0FF7h
    74  0000                     tblptrl equ 0FF6h
    75  0000                     tblptru equ 0FF8h
    76  0000                     tosl equ 0FFDh
    77  0000                     wreg equ 0FE8h
    78  0000                     
     2                           opt pagewidth 120
     3  0000                     setc   macro
     4                           	bsf	status,0
     5                           endm
     6  0000                     clrz   macro
     7                           	bcf	status,2
     8                           endm
     9  0000                     setz   macro
    10                           	bsf	status,2
    11                           endm
    12  0000                     skipnz macro
    13                           	btfsc	status,2
    14                           endm
    15  0000                     skipz  macro
    16                           	btfss	status,2
    17                           endm
    18  0000                     skipnc macro
    19                           	btfsc	status,0
    20                           endm
    21  0000                     skipc  macro
    22                           	btfss	status,0
    23                           endm
    24  0000                     pushw macro
    25                           	movwf postinc1
    26                           endm
    27  0000                     pushf macro arg1
    28                           	movff arg1, postinc1
    29                           endm
    30  0000                     popw macro
    31                           	movf postdec1,f
    32                           	movf indf1,w
    33                           endm
    34  0000                     popf macro arg1
    35                           	movf postdec1,f
    36                           	movff indf1,arg1
    37                           endm
    38  0000                     popfc macro arg1
    39                           	movff plusw1,arg1
    40                           	decfsz fsr1,f
    41                           endm
    42  0000                     	global	__ramtop
    43                           	global	__accesstop
    44                           # 52 "/Applications/microchip/xc8/v1.45/include/pic18f2550.h"
    45                           UFRM equ 0F66h ;# 
    46  0000                     # 59 "/Applications/microchip/xc8/v1.45/include/pic18f2550.h"
    47                           UFRML equ 0F66h ;# 
    48  0000                     # 137 "/Applications/microchip/xc8/v1.45/include/pic18f2550.h"
    49                           UFRMH equ 0F67h ;# 
    50  0000                     # 177 "/Applications/microchip/xc8/v1.45/include/pic18f2550.h"
    51                           UIR equ 0F68h ;# 
    52  0000                     # 233 "/Applications/microchip/xc8/v1.45/include/pic18f2550.h"
    53                           UIE equ 0F69h ;# 
    54  0000                     # 289 "/Applications/microchip/xc8/v1.45/include/pic18f2550.h"
    55                           UEIR equ 0F6Ah ;# 
    56  0000                     # 340 "/Applications/microchip/xc8/v1.45/include/pic18f2550.h"
    57                           UEIE equ 0F6Bh ;# 
    58  0000                     # 391 "/Applications/microchip/xc8/v1.45/include/pic18f2550.h"
    59                           USTAT equ 0F6Ch ;# 
    60  0000                     # 451 "/Applications/microchip/xc8/v1.45/include/pic18f2550.h"
    61                           UCON equ 0F6Dh ;# 
    62  0000                     # 502 "/Applications/microchip/xc8/v1.45/include/pic18f2550.h"
    63                           UADDR equ 0F6Eh ;# 
    64  0000                     # 566 "/Applications/microchip/xc8/v1.45/include/pic18f2550.h"
    65                           UCFG equ 0F6Fh ;# 
    66  0000                     # 645 "/Applications/microchip/xc8/v1.45/include/pic18f2550.h"
    67                           UEP0 equ 0F70h ;# 
    68  0000                     # 753 "/Applications/microchip/xc8/v1.45/include/pic18f2550.h"
    69                           UEP1 equ 0F71h ;# 
    70  0000                     # 861 "/Applications/microchip/xc8/v1.45/include/pic18f2550.h"
    71                           UEP2 equ 0F72h ;# 
    72  0000                     # 969 "/Applications/microchip/xc8/v1.45/include/pic18f2550.h"
    73                           UEP3 equ 0F73h ;# 
    74  0000                     # 1077 "/Applications/microchip/xc8/v1.45/include/pic18f2550.h"
    75                           UEP4 equ 0F74h ;# 
    76  0000                     # 1185 "/Applications/microchip/xc8/v1.45/include/pic18f2550.h"
    77                           UEP5 equ 0F75h ;# 
    78  0000                     # 1293 "/Applications/microchip/xc8/v1.45/include/pic18f2550.h"
    79                           UEP6 equ 0F76h ;# 
    80  0000                     # 1401 "/Applications/microchip/xc8/v1.45/include/pic18f2550.h"
    81                           UEP7 equ 0F77h ;# 
    82  0000                     # 1509 "/Applications/microchip/xc8/v1.45/include/pic18f2550.h"
    83                           UEP8 equ 0F78h ;# 
    84  0000                     # 1585 "/Applications/microchip/xc8/v1.45/include/pic18f2550.h"
    85                           UEP9 equ 0F79h ;# 
    86  0000                     # 1661 "/Applications/microchip/xc8/v1.45/include/pic18f2550.h"
    87                           UEP10 equ 0F7Ah ;# 
    88  0000                     # 1737 "/Applications/microchip/xc8/v1.45/include/pic18f2550.h"
    89                           UEP11 equ 0F7Bh ;# 
    90  0000                     # 1813 "/Applications/microchip/xc8/v1.45/include/pic18f2550.h"
    91                           UEP12 equ 0F7Ch ;# 
    92  0000                     # 1889 "/Applications/microchip/xc8/v1.45/include/pic18f2550.h"
    93                           UEP13 equ 0F7Dh ;# 
    94  0000                     # 1965 "/Applications/microchip/xc8/v1.45/include/pic18f2550.h"
    95                           UEP14 equ 0F7Eh ;# 
    96  0000                     # 2041 "/Applications/microchip/xc8/v1.45/include/pic18f2550.h"
    97                           UEP15 equ 0F7Fh ;# 
    98  0000                     # 2117 "/Applications/microchip/xc8/v1.45/include/pic18f2550.h"
    99                           PORTA equ 0F80h ;# 
   100  0000                     # 2256 "/Applications/microchip/xc8/v1.45/include/pic18f2550.h"
   101                           PORTB equ 0F81h ;# 
   102  0000                     # 2366 "/Applications/microchip/xc8/v1.45/include/pic18f2550.h"
   103                           PORTC equ 0F82h ;# 
   104  0000                     # 2508 "/Applications/microchip/xc8/v1.45/include/pic18f2550.h"
   105                           PORTE equ 0F84h ;# 
   106  0000                     # 2547 "/Applications/microchip/xc8/v1.45/include/pic18f2550.h"
   107                           LATA equ 0F89h ;# 
   108  0000                     # 2647 "/Applications/microchip/xc8/v1.45/include/pic18f2550.h"
   109                           LATB equ 0F8Ah ;# 
   110  0000                     # 2759 "/Applications/microchip/xc8/v1.45/include/pic18f2550.h"
   111                           LATC equ 0F8Bh ;# 
   112  0000                     # 2837 "/Applications/microchip/xc8/v1.45/include/pic18f2550.h"
   113                           TRISA equ 0F92h ;# 
   114  0000                     # 2842 "/Applications/microchip/xc8/v1.45/include/pic18f2550.h"
   115                           DDRA equ 0F92h ;# 
   116  0000                     # 3035 "/Applications/microchip/xc8/v1.45/include/pic18f2550.h"
   117                           TRISB equ 0F93h ;# 
   118  0000                     # 3040 "/Applications/microchip/xc8/v1.45/include/pic18f2550.h"
   119                           DDRB equ 0F93h ;# 
   120  0000                     # 3257 "/Applications/microchip/xc8/v1.45/include/pic18f2550.h"
   121                           TRISC equ 0F94h ;# 
   122  0000                     # 3262 "/Applications/microchip/xc8/v1.45/include/pic18f2550.h"
   123                           DDRC equ 0F94h ;# 
   124  0000                     # 3411 "/Applications/microchip/xc8/v1.45/include/pic18f2550.h"
   125                           OSCTUNE equ 0F9Bh ;# 
   126  0000                     # 3470 "/Applications/microchip/xc8/v1.45/include/pic18f2550.h"
   127                           PIE1 equ 0F9Dh ;# 
   128  0000                     # 3541 "/Applications/microchip/xc8/v1.45/include/pic18f2550.h"
   129                           PIR1 equ 0F9Eh ;# 
   130  0000                     # 3612 "/Applications/microchip/xc8/v1.45/include/pic18f2550.h"
   131                           IPR1 equ 0F9Fh ;# 
   132  0000                     # 3683 "/Applications/microchip/xc8/v1.45/include/pic18f2550.h"
   133                           PIE2 equ 0FA0h ;# 
   134  0000                     # 3754 "/Applications/microchip/xc8/v1.45/include/pic18f2550.h"
   135                           PIR2 equ 0FA1h ;# 
   136  0000                     # 3825 "/Applications/microchip/xc8/v1.45/include/pic18f2550.h"
   137                           IPR2 equ 0FA2h ;# 
   138  0000                     # 3896 "/Applications/microchip/xc8/v1.45/include/pic18f2550.h"
   139                           EECON1 equ 0FA6h ;# 
   140  0000                     # 3962 "/Applications/microchip/xc8/v1.45/include/pic18f2550.h"
   141                           EECON2 equ 0FA7h ;# 
   142  0000                     # 3969 "/Applications/microchip/xc8/v1.45/include/pic18f2550.h"
   143                           EEDATA equ 0FA8h ;# 
   144  0000                     # 3976 "/Applications/microchip/xc8/v1.45/include/pic18f2550.h"
   145                           EEADR equ 0FA9h ;# 
   146  0000                     # 3983 "/Applications/microchip/xc8/v1.45/include/pic18f2550.h"
   147                           RCSTA equ 0FABh ;# 
   148  0000                     # 3988 "/Applications/microchip/xc8/v1.45/include/pic18f2550.h"
   149                           RCSTA1 equ 0FABh ;# 
   150  0000                     # 4193 "/Applications/microchip/xc8/v1.45/include/pic18f2550.h"
   151                           TXSTA equ 0FACh ;# 
   152  0000                     # 4198 "/Applications/microchip/xc8/v1.45/include/pic18f2550.h"
   153                           TXSTA1 equ 0FACh ;# 
   154  0000                     # 4449 "/Applications/microchip/xc8/v1.45/include/pic18f2550.h"
   155                           TXREG equ 0FADh ;# 
   156  0000                     # 4454 "/Applications/microchip/xc8/v1.45/include/pic18f2550.h"
   157                           TXREG1 equ 0FADh ;# 
   158  0000                     # 4461 "/Applications/microchip/xc8/v1.45/include/pic18f2550.h"
   159                           RCREG equ 0FAEh ;# 
   160  0000                     # 4466 "/Applications/microchip/xc8/v1.45/include/pic18f2550.h"
   161                           RCREG1 equ 0FAEh ;# 
   162  0000                     # 4473 "/Applications/microchip/xc8/v1.45/include/pic18f2550.h"
   163                           SPBRG equ 0FAFh ;# 
   164  0000                     # 4478 "/Applications/microchip/xc8/v1.45/include/pic18f2550.h"
   165                           SPBRG1 equ 0FAFh ;# 
   166  0000                     # 4485 "/Applications/microchip/xc8/v1.45/include/pic18f2550.h"
   167                           SPBRGH equ 0FB0h ;# 
   168  0000                     # 4492 "/Applications/microchip/xc8/v1.45/include/pic18f2550.h"
   169                           T3CON equ 0FB1h ;# 
   170  0000                     # 4613 "/Applications/microchip/xc8/v1.45/include/pic18f2550.h"
   171                           TMR3 equ 0FB2h ;# 
   172  0000                     # 4620 "/Applications/microchip/xc8/v1.45/include/pic18f2550.h"
   173                           TMR3L equ 0FB2h ;# 
   174  0000                     # 4627 "/Applications/microchip/xc8/v1.45/include/pic18f2550.h"
   175                           TMR3H equ 0FB3h ;# 
   176  0000                     # 4634 "/Applications/microchip/xc8/v1.45/include/pic18f2550.h"
   177                           CMCON equ 0FB4h ;# 
   178  0000                     # 4724 "/Applications/microchip/xc8/v1.45/include/pic18f2550.h"
   179                           CVRCON equ 0FB5h ;# 
   180  0000                     # 4809 "/Applications/microchip/xc8/v1.45/include/pic18f2550.h"
   181                           ECCP1AS equ 0FB6h ;# 
   182  0000                     # 4814 "/Applications/microchip/xc8/v1.45/include/pic18f2550.h"
   183                           CCP1AS equ 0FB6h ;# 
   184  0000                     # 4939 "/Applications/microchip/xc8/v1.45/include/pic18f2550.h"
   185                           ECCP1DEL equ 0FB7h ;# 
   186  0000                     # 4944 "/Applications/microchip/xc8/v1.45/include/pic18f2550.h"
   187                           CCP1DEL equ 0FB7h ;# 
   188  0000                     # 4979 "/Applications/microchip/xc8/v1.45/include/pic18f2550.h"
   189                           BAUDCON equ 0FB8h ;# 
   190  0000                     # 4984 "/Applications/microchip/xc8/v1.45/include/pic18f2550.h"
   191                           BAUDCTL equ 0FB8h ;# 
   192  0000                     # 5159 "/Applications/microchip/xc8/v1.45/include/pic18f2550.h"
   193                           CCP2CON equ 0FBAh ;# 
   194  0000                     # 5223 "/Applications/microchip/xc8/v1.45/include/pic18f2550.h"
   195                           CCPR2 equ 0FBBh ;# 
   196  0000                     # 5230 "/Applications/microchip/xc8/v1.45/include/pic18f2550.h"
   197                           CCPR2L equ 0FBBh ;# 
   198  0000                     # 5237 "/Applications/microchip/xc8/v1.45/include/pic18f2550.h"
   199                           CCPR2H equ 0FBCh ;# 
   200  0000                     # 5244 "/Applications/microchip/xc8/v1.45/include/pic18f2550.h"
   201                           CCP1CON equ 0FBDh ;# 
   202  0000                     # 5308 "/Applications/microchip/xc8/v1.45/include/pic18f2550.h"
   203                           CCPR1 equ 0FBEh ;# 
   204  0000                     # 5315 "/Applications/microchip/xc8/v1.45/include/pic18f2550.h"
   205                           CCPR1L equ 0FBEh ;# 
   206  0000                     # 5322 "/Applications/microchip/xc8/v1.45/include/pic18f2550.h"
   207                           CCPR1H equ 0FBFh ;# 
   208  0000                     # 5329 "/Applications/microchip/xc8/v1.45/include/pic18f2550.h"
   209                           ADCON2 equ 0FC0h ;# 
   210  0000                     # 5400 "/Applications/microchip/xc8/v1.45/include/pic18f2550.h"
   211                           ADCON1 equ 0FC1h ;# 
   212  0000                     # 5485 "/Applications/microchip/xc8/v1.45/include/pic18f2550.h"
   213                           ADCON0 equ 0FC2h ;# 
   214  0000                     # 5604 "/Applications/microchip/xc8/v1.45/include/pic18f2550.h"
   215                           ADRES equ 0FC3h ;# 
   216  0000                     # 5611 "/Applications/microchip/xc8/v1.45/include/pic18f2550.h"
   217                           ADRESL equ 0FC3h ;# 
   218  0000                     # 5618 "/Applications/microchip/xc8/v1.45/include/pic18f2550.h"
   219                           ADRESH equ 0FC4h ;# 
   220  0000                     # 5625 "/Applications/microchip/xc8/v1.45/include/pic18f2550.h"
   221                           SSPCON2 equ 0FC5h ;# 
   222  0000                     # 5687 "/Applications/microchip/xc8/v1.45/include/pic18f2550.h"
   223                           SSPCON1 equ 0FC6h ;# 
   224  0000                     # 5757 "/Applications/microchip/xc8/v1.45/include/pic18f2550.h"
   225                           SSPSTAT equ 0FC7h ;# 
   226  0000                     # 6005 "/Applications/microchip/xc8/v1.45/include/pic18f2550.h"
   227                           SSPADD equ 0FC8h ;# 
   228  0000                     # 6012 "/Applications/microchip/xc8/v1.45/include/pic18f2550.h"
   229                           SSPBUF equ 0FC9h ;# 
   230  0000                     # 6019 "/Applications/microchip/xc8/v1.45/include/pic18f2550.h"
   231                           T2CON equ 0FCAh ;# 
   232  0000                     # 6117 "/Applications/microchip/xc8/v1.45/include/pic18f2550.h"
   233                           PR2 equ 0FCBh ;# 
   234  0000                     # 6122 "/Applications/microchip/xc8/v1.45/include/pic18f2550.h"
   235                           MEMCON equ 0FCBh ;# 
   236  0000                     # 6227 "/Applications/microchip/xc8/v1.45/include/pic18f2550.h"
   237                           TMR2 equ 0FCCh ;# 
   238  0000                     # 6234 "/Applications/microchip/xc8/v1.45/include/pic18f2550.h"
   239                           T1CON equ 0FCDh ;# 
   240  0000                     # 6337 "/Applications/microchip/xc8/v1.45/include/pic18f2550.h"
   241                           TMR1 equ 0FCEh ;# 
   242  0000                     # 6344 "/Applications/microchip/xc8/v1.45/include/pic18f2550.h"
   243                           TMR1L equ 0FCEh ;# 
   244  0000                     # 6351 "/Applications/microchip/xc8/v1.45/include/pic18f2550.h"
   245                           TMR1H equ 0FCFh ;# 
   246  0000                     # 6358 "/Applications/microchip/xc8/v1.45/include/pic18f2550.h"
   247                           RCON equ 0FD0h ;# 
   248  0000                     # 6507 "/Applications/microchip/xc8/v1.45/include/pic18f2550.h"
   249                           WDTCON equ 0FD1h ;# 
   250  0000                     # 6535 "/Applications/microchip/xc8/v1.45/include/pic18f2550.h"
   251                           HLVDCON equ 0FD2h ;# 
   252  0000                     # 6540 "/Applications/microchip/xc8/v1.45/include/pic18f2550.h"
   253                           LVDCON equ 0FD2h ;# 
   254  0000                     # 6805 "/Applications/microchip/xc8/v1.45/include/pic18f2550.h"
   255                           OSCCON equ 0FD3h ;# 
   256  0000                     # 6888 "/Applications/microchip/xc8/v1.45/include/pic18f2550.h"
   257                           T0CON equ 0FD5h ;# 
   258  0000                     # 6958 "/Applications/microchip/xc8/v1.45/include/pic18f2550.h"
   259                           TMR0 equ 0FD6h ;# 
   260  0000                     # 6965 "/Applications/microchip/xc8/v1.45/include/pic18f2550.h"
   261                           TMR0L equ 0FD6h ;# 
   262  0000                     # 6972 "/Applications/microchip/xc8/v1.45/include/pic18f2550.h"
   263                           TMR0H equ 0FD7h ;# 
   264  0000                     # 6979 "/Applications/microchip/xc8/v1.45/include/pic18f2550.h"
   265                           STATUS equ 0FD8h ;# 
   266  0000                     # 7050 "/Applications/microchip/xc8/v1.45/include/pic18f2550.h"
   267                           FSR2 equ 0FD9h ;# 
   268  0000                     # 7057 "/Applications/microchip/xc8/v1.45/include/pic18f2550.h"
   269                           FSR2L equ 0FD9h ;# 
   270  0000                     # 7064 "/Applications/microchip/xc8/v1.45/include/pic18f2550.h"
   271                           FSR2H equ 0FDAh ;# 
   272  0000                     # 7071 "/Applications/microchip/xc8/v1.45/include/pic18f2550.h"
   273                           PLUSW2 equ 0FDBh ;# 
   274  0000                     # 7078 "/Applications/microchip/xc8/v1.45/include/pic18f2550.h"
   275                           PREINC2 equ 0FDCh ;# 
   276  0000                     # 7085 "/Applications/microchip/xc8/v1.45/include/pic18f2550.h"
   277                           POSTDEC2 equ 0FDDh ;# 
   278  0000                     # 7092 "/Applications/microchip/xc8/v1.45/include/pic18f2550.h"
   279                           POSTINC2 equ 0FDEh ;# 
   280  0000                     # 7099 "/Applications/microchip/xc8/v1.45/include/pic18f2550.h"
   281                           INDF2 equ 0FDFh ;# 
   282  0000                     # 7106 "/Applications/microchip/xc8/v1.45/include/pic18f2550.h"
   283                           BSR equ 0FE0h ;# 
   284  0000                     # 7113 "/Applications/microchip/xc8/v1.45/include/pic18f2550.h"
   285                           FSR1 equ 0FE1h ;# 
   286  0000                     # 7120 "/Applications/microchip/xc8/v1.45/include/pic18f2550.h"
   287                           FSR1L equ 0FE1h ;# 
   288  0000                     # 7127 "/Applications/microchip/xc8/v1.45/include/pic18f2550.h"
   289                           FSR1H equ 0FE2h ;# 
   290  0000                     # 7134 "/Applications/microchip/xc8/v1.45/include/pic18f2550.h"
   291                           PLUSW1 equ 0FE3h ;# 
   292  0000                     # 7141 "/Applications/microchip/xc8/v1.45/include/pic18f2550.h"
   293                           PREINC1 equ 0FE4h ;# 
   294  0000                     # 7148 "/Applications/microchip/xc8/v1.45/include/pic18f2550.h"
   295                           POSTDEC1 equ 0FE5h ;# 
   296  0000                     # 7155 "/Applications/microchip/xc8/v1.45/include/pic18f2550.h"
   297                           POSTINC1 equ 0FE6h ;# 
   298  0000                     # 7162 "/Applications/microchip/xc8/v1.45/include/pic18f2550.h"
   299                           INDF1 equ 0FE7h ;# 
   300  0000                     # 7169 "/Applications/microchip/xc8/v1.45/include/pic18f2550.h"
   301                           WREG equ 0FE8h ;# 
   302  0000                     # 7176 "/Applications/microchip/xc8/v1.45/include/pic18f2550.h"
   303                           FSR0 equ 0FE9h ;# 
   304  0000                     # 7183 "/Applications/microchip/xc8/v1.45/include/pic18f2550.h"
   305                           FSR0L equ 0FE9h ;# 
   306  0000                     # 7190 "/Applications/microchip/xc8/v1.45/include/pic18f2550.h"
   307                           FSR0H equ 0FEAh ;# 
   308  0000                     # 7197 "/Applications/microchip/xc8/v1.45/include/pic18f2550.h"
   309                           PLUSW0 equ 0FEBh ;# 
   310  0000                     # 7204 "/Applications/microchip/xc8/v1.45/include/pic18f2550.h"
   311                           PREINC0 equ 0FECh ;# 
   312  0000                     # 7211 "/Applications/microchip/xc8/v1.45/include/pic18f2550.h"
   313                           POSTDEC0 equ 0FEDh ;# 
   314  0000                     # 7218 "/Applications/microchip/xc8/v1.45/include/pic18f2550.h"
   315                           POSTINC0 equ 0FEEh ;# 
   316  0000                     # 7225 "/Applications/microchip/xc8/v1.45/include/pic18f2550.h"
   317                           INDF0 equ 0FEFh ;# 
   318  0000                     # 7232 "/Applications/microchip/xc8/v1.45/include/pic18f2550.h"
   319                           INTCON3 equ 0FF0h ;# 
   320  0000                     # 7324 "/Applications/microchip/xc8/v1.45/include/pic18f2550.h"
   321                           INTCON2 equ 0FF1h ;# 
   322  0000                     # 7401 "/Applications/microchip/xc8/v1.45/include/pic18f2550.h"
   323                           INTCON equ 0FF2h ;# 
   324  0000                     # 7518 "/Applications/microchip/xc8/v1.45/include/pic18f2550.h"
   325                           PROD equ 0FF3h ;# 
   326  0000                     # 7525 "/Applications/microchip/xc8/v1.45/include/pic18f2550.h"
   327                           PRODL equ 0FF3h ;# 
   328  0000                     # 7532 "/Applications/microchip/xc8/v1.45/include/pic18f2550.h"
   329                           PRODH equ 0FF4h ;# 
   330  0000                     # 7539 "/Applications/microchip/xc8/v1.45/include/pic18f2550.h"
   331                           TABLAT equ 0FF5h ;# 
   332  0000                     # 7548 "/Applications/microchip/xc8/v1.45/include/pic18f2550.h"
   333                           TBLPTR equ 0FF6h ;# 
   334  0000                     # 7555 "/Applications/microchip/xc8/v1.45/include/pic18f2550.h"
   335                           TBLPTRL equ 0FF6h ;# 
   336  0000                     # 7562 "/Applications/microchip/xc8/v1.45/include/pic18f2550.h"
   337                           TBLPTRH equ 0FF7h ;# 
   338  0000                     # 7569 "/Applications/microchip/xc8/v1.45/include/pic18f2550.h"
   339                           TBLPTRU equ 0FF8h ;# 
   340  0000                     # 7578 "/Applications/microchip/xc8/v1.45/include/pic18f2550.h"
   341                           PCLAT equ 0FF9h ;# 
   342  0000                     # 7585 "/Applications/microchip/xc8/v1.45/include/pic18f2550.h"
   343                           PC equ 0FF9h ;# 
   344  0000                     # 7592 "/Applications/microchip/xc8/v1.45/include/pic18f2550.h"
   345                           PCL equ 0FF9h ;# 
   346  0000                     # 7599 "/Applications/microchip/xc8/v1.45/include/pic18f2550.h"
   347                           PCLATH equ 0FFAh ;# 
   348  0000                     # 7606 "/Applications/microchip/xc8/v1.45/include/pic18f2550.h"
   349                           PCLATU equ 0FFBh ;# 
   350  0000                     # 7613 "/Applications/microchip/xc8/v1.45/include/pic18f2550.h"
   351                           STKPTR equ 0FFCh ;# 
   352  0000                     # 7689 "/Applications/microchip/xc8/v1.45/include/pic18f2550.h"
   353                           TOS equ 0FFDh ;# 
   354  0000                     # 7696 "/Applications/microchip/xc8/v1.45/include/pic18f2550.h"
   355                           TOSL equ 0FFDh ;# 
   356  0000                     # 7703 "/Applications/microchip/xc8/v1.45/include/pic18f2550.h"
   357                           TOSH equ 0FFEh ;# 
   358  0000                     # 7710 "/Applications/microchip/xc8/v1.45/include/pic18f2550.h"
   359                           TOSU equ 0FFFh ;# 
   360  0000                     # 52 "/Applications/microchip/xc8/v1.45/include/pic18f2550.h"
   361                           UFRM equ 0F66h ;# 
   362  0000                     # 59 "/Applications/microchip/xc8/v1.45/include/pic18f2550.h"
   363                           UFRML equ 0F66h ;# 
   364  0000                     # 137 "/Applications/microchip/xc8/v1.45/include/pic18f2550.h"
   365                           UFRMH equ 0F67h ;# 
   366  0000                     # 177 "/Applications/microchip/xc8/v1.45/include/pic18f2550.h"
   367                           UIR equ 0F68h ;# 
   368  0000                     # 233 "/Applications/microchip/xc8/v1.45/include/pic18f2550.h"
   369                           UIE equ 0F69h ;# 
   370  0000                     # 289 "/Applications/microchip/xc8/v1.45/include/pic18f2550.h"
   371                           UEIR equ 0F6Ah ;# 
   372  0000                     # 340 "/Applications/microchip/xc8/v1.45/include/pic18f2550.h"
   373                           UEIE equ 0F6Bh ;# 
   374  0000                     # 391 "/Applications/microchip/xc8/v1.45/include/pic18f2550.h"
   375                           USTAT equ 0F6Ch ;# 
   376  0000                     # 451 "/Applications/microchip/xc8/v1.45/include/pic18f2550.h"
   377                           UCON equ 0F6Dh ;# 
   378  0000                     # 502 "/Applications/microchip/xc8/v1.45/include/pic18f2550.h"
   379                           UADDR equ 0F6Eh ;# 
   380  0000                     # 566 "/Applications/microchip/xc8/v1.45/include/pic18f2550.h"
   381                           UCFG equ 0F6Fh ;# 
   382  0000                     # 645 "/Applications/microchip/xc8/v1.45/include/pic18f2550.h"
   383                           UEP0 equ 0F70h ;# 
   384  0000                     # 753 "/Applications/microchip/xc8/v1.45/include/pic18f2550.h"
   385                           UEP1 equ 0F71h ;# 
   386  0000                     # 861 "/Applications/microchip/xc8/v1.45/include/pic18f2550.h"
   387                           UEP2 equ 0F72h ;# 
   388  0000                     # 969 "/Applications/microchip/xc8/v1.45/include/pic18f2550.h"
   389                           UEP3 equ 0F73h ;# 
   390  0000                     # 1077 "/Applications/microchip/xc8/v1.45/include/pic18f2550.h"
   391                           UEP4 equ 0F74h ;# 
   392  0000                     # 1185 "/Applications/microchip/xc8/v1.45/include/pic18f2550.h"
   393                           UEP5 equ 0F75h ;# 
   394  0000                     # 1293 "/Applications/microchip/xc8/v1.45/include/pic18f2550.h"
   395                           UEP6 equ 0F76h ;# 
   396  0000                     # 1401 "/Applications/microchip/xc8/v1.45/include/pic18f2550.h"
   397                           UEP7 equ 0F77h ;# 
   398  0000                     # 1509 "/Applications/microchip/xc8/v1.45/include/pic18f2550.h"
   399                           UEP8 equ 0F78h ;# 
   400  0000                     # 1585 "/Applications/microchip/xc8/v1.45/include/pic18f2550.h"
   401                           UEP9 equ 0F79h ;# 
   402  0000                     # 1661 "/Applications/microchip/xc8/v1.45/include/pic18f2550.h"
   403                           UEP10 equ 0F7Ah ;# 
   404  0000                     # 1737 "/Applications/microchip/xc8/v1.45/include/pic18f2550.h"
   405                           UEP11 equ 0F7Bh ;# 
   406  0000                     # 1813 "/Applications/microchip/xc8/v1.45/include/pic18f2550.h"
   407                           UEP12 equ 0F7Ch ;# 
   408  0000                     # 1889 "/Applications/microchip/xc8/v1.45/include/pic18f2550.h"
   409                           UEP13 equ 0F7Dh ;# 
   410  0000                     # 1965 "/Applications/microchip/xc8/v1.45/include/pic18f2550.h"
   411                           UEP14 equ 0F7Eh ;# 
   412  0000                     # 2041 "/Applications/microchip/xc8/v1.45/include/pic18f2550.h"
   413                           UEP15 equ 0F7Fh ;# 
   414  0000                     # 2117 "/Applications/microchip/xc8/v1.45/include/pic18f2550.h"
   415                           PORTA equ 0F80h ;# 
   416  0000                     # 2256 "/Applications/microchip/xc8/v1.45/include/pic18f2550.h"
   417                           PORTB equ 0F81h ;# 
   418  0000                     # 2366 "/Applications/microchip/xc8/v1.45/include/pic18f2550.h"
   419                           PORTC equ 0F82h ;# 
   420  0000                     # 2508 "/Applications/microchip/xc8/v1.45/include/pic18f2550.h"
   421                           PORTE equ 0F84h ;# 
   422  0000                     # 2547 "/Applications/microchip/xc8/v1.45/include/pic18f2550.h"
   423                           LATA equ 0F89h ;# 
   424  0000                     # 2647 "/Applications/microchip/xc8/v1.45/include/pic18f2550.h"
   425                           LATB equ 0F8Ah ;# 
   426  0000                     # 2759 "/Applications/microchip/xc8/v1.45/include/pic18f2550.h"
   427                           LATC equ 0F8Bh ;# 
   428  0000                     # 2837 "/Applications/microchip/xc8/v1.45/include/pic18f2550.h"
   429                           TRISA equ 0F92h ;# 
   430  0000                     # 2842 "/Applications/microchip/xc8/v1.45/include/pic18f2550.h"
   431                           DDRA equ 0F92h ;# 
   432  0000                     # 3035 "/Applications/microchip/xc8/v1.45/include/pic18f2550.h"
   433                           TRISB equ 0F93h ;# 
   434  0000                     # 3040 "/Applications/microchip/xc8/v1.45/include/pic18f2550.h"
   435                           DDRB equ 0F93h ;# 
   436  0000                     # 3257 "/Applications/microchip/xc8/v1.45/include/pic18f2550.h"
   437                           TRISC equ 0F94h ;# 
   438  0000                     # 3262 "/Applications/microchip/xc8/v1.45/include/pic18f2550.h"
   439                           DDRC equ 0F94h ;# 
   440  0000                     # 3411 "/Applications/microchip/xc8/v1.45/include/pic18f2550.h"
   441                           OSCTUNE equ 0F9Bh ;# 
   442  0000                     # 3470 "/Applications/microchip/xc8/v1.45/include/pic18f2550.h"
   443                           PIE1 equ 0F9Dh ;# 
   444  0000                     # 3541 "/Applications/microchip/xc8/v1.45/include/pic18f2550.h"
   445                           PIR1 equ 0F9Eh ;# 
   446  0000                     # 3612 "/Applications/microchip/xc8/v1.45/include/pic18f2550.h"
   447                           IPR1 equ 0F9Fh ;# 
   448  0000                     # 3683 "/Applications/microchip/xc8/v1.45/include/pic18f2550.h"
   449                           PIE2 equ 0FA0h ;# 
   450  0000                     # 3754 "/Applications/microchip/xc8/v1.45/include/pic18f2550.h"
   451                           PIR2 equ 0FA1h ;# 
   452  0000                     # 3825 "/Applications/microchip/xc8/v1.45/include/pic18f2550.h"
   453                           IPR2 equ 0FA2h ;# 
   454  0000                     # 3896 "/Applications/microchip/xc8/v1.45/include/pic18f2550.h"
   455                           EECON1 equ 0FA6h ;# 
   456  0000                     # 3962 "/Applications/microchip/xc8/v1.45/include/pic18f2550.h"
   457                           EECON2 equ 0FA7h ;# 
   458  0000                     # 3969 "/Applications/microchip/xc8/v1.45/include/pic18f2550.h"
   459                           EEDATA equ 0FA8h ;# 
   460  0000                     # 3976 "/Applications/microchip/xc8/v1.45/include/pic18f2550.h"
   461                           EEADR equ 0FA9h ;# 
   462  0000                     # 3983 "/Applications/microchip/xc8/v1.45/include/pic18f2550.h"
   463                           RCSTA equ 0FABh ;# 
   464  0000                     # 3988 "/Applications/microchip/xc8/v1.45/include/pic18f2550.h"
   465                           RCSTA1 equ 0FABh ;# 
   466  0000                     # 4193 "/Applications/microchip/xc8/v1.45/include/pic18f2550.h"
   467                           TXSTA equ 0FACh ;# 
   468  0000                     # 4198 "/Applications/microchip/xc8/v1.45/include/pic18f2550.h"
   469                           TXSTA1 equ 0FACh ;# 
   470  0000                     # 4449 "/Applications/microchip/xc8/v1.45/include/pic18f2550.h"
   471                           TXREG equ 0FADh ;# 
   472  0000                     # 4454 "/Applications/microchip/xc8/v1.45/include/pic18f2550.h"
   473                           TXREG1 equ 0FADh ;# 
   474  0000                     # 4461 "/Applications/microchip/xc8/v1.45/include/pic18f2550.h"
   475                           RCREG equ 0FAEh ;# 
   476  0000                     # 4466 "/Applications/microchip/xc8/v1.45/include/pic18f2550.h"
   477                           RCREG1 equ 0FAEh ;# 
   478  0000                     # 4473 "/Applications/microchip/xc8/v1.45/include/pic18f2550.h"
   479                           SPBRG equ 0FAFh ;# 
   480  0000                     # 4478 "/Applications/microchip/xc8/v1.45/include/pic18f2550.h"
   481                           SPBRG1 equ 0FAFh ;# 
   482  0000                     # 4485 "/Applications/microchip/xc8/v1.45/include/pic18f2550.h"
   483                           SPBRGH equ 0FB0h ;# 
   484  0000                     # 4492 "/Applications/microchip/xc8/v1.45/include/pic18f2550.h"
   485                           T3CON equ 0FB1h ;# 
   486  0000                     # 4613 "/Applications/microchip/xc8/v1.45/include/pic18f2550.h"
   487                           TMR3 equ 0FB2h ;# 
   488  0000                     # 4620 "/Applications/microchip/xc8/v1.45/include/pic18f2550.h"
   489                           TMR3L equ 0FB2h ;# 
   490  0000                     # 4627 "/Applications/microchip/xc8/v1.45/include/pic18f2550.h"
   491                           TMR3H equ 0FB3h ;# 
   492  0000                     # 4634 "/Applications/microchip/xc8/v1.45/include/pic18f2550.h"
   493                           CMCON equ 0FB4h ;# 
   494  0000                     # 4724 "/Applications/microchip/xc8/v1.45/include/pic18f2550.h"
   495                           CVRCON equ 0FB5h ;# 
   496  0000                     # 4809 "/Applications/microchip/xc8/v1.45/include/pic18f2550.h"
   497                           ECCP1AS equ 0FB6h ;# 
   498  0000                     # 4814 "/Applications/microchip/xc8/v1.45/include/pic18f2550.h"
   499                           CCP1AS equ 0FB6h ;# 
   500  0000                     # 4939 "/Applications/microchip/xc8/v1.45/include/pic18f2550.h"
   501                           ECCP1DEL equ 0FB7h ;# 
   502  0000                     # 4944 "/Applications/microchip/xc8/v1.45/include/pic18f2550.h"
   503                           CCP1DEL equ 0FB7h ;# 
   504  0000                     # 4979 "/Applications/microchip/xc8/v1.45/include/pic18f2550.h"
   505                           BAUDCON equ 0FB8h ;# 
   506  0000                     # 4984 "/Applications/microchip/xc8/v1.45/include/pic18f2550.h"
   507                           BAUDCTL equ 0FB8h ;# 
   508  0000                     # 5159 "/Applications/microchip/xc8/v1.45/include/pic18f2550.h"
   509                           CCP2CON equ 0FBAh ;# 
   510  0000                     # 5223 "/Applications/microchip/xc8/v1.45/include/pic18f2550.h"
   511                           CCPR2 equ 0FBBh ;# 
   512  0000                     # 5230 "/Applications/microchip/xc8/v1.45/include/pic18f2550.h"
   513                           CCPR2L equ 0FBBh ;# 
   514  0000                     # 5237 "/Applications/microchip/xc8/v1.45/include/pic18f2550.h"
   515                           CCPR2H equ 0FBCh ;# 
   516  0000                     # 5244 "/Applications/microchip/xc8/v1.45/include/pic18f2550.h"
   517                           CCP1CON equ 0FBDh ;# 
   518  0000                     # 5308 "/Applications/microchip/xc8/v1.45/include/pic18f2550.h"
   519                           CCPR1 equ 0FBEh ;# 
   520  0000                     # 5315 "/Applications/microchip/xc8/v1.45/include/pic18f2550.h"
   521                           CCPR1L equ 0FBEh ;# 
   522  0000                     # 5322 "/Applications/microchip/xc8/v1.45/include/pic18f2550.h"
   523                           CCPR1H equ 0FBFh ;# 
   524  0000                     # 5329 "/Applications/microchip/xc8/v1.45/include/pic18f2550.h"
   525                           ADCON2 equ 0FC0h ;# 
   526  0000                     # 5400 "/Applications/microchip/xc8/v1.45/include/pic18f2550.h"
   527                           ADCON1 equ 0FC1h ;# 
   528  0000                     # 5485 "/Applications/microchip/xc8/v1.45/include/pic18f2550.h"
   529                           ADCON0 equ 0FC2h ;# 
   530  0000                     # 5604 "/Applications/microchip/xc8/v1.45/include/pic18f2550.h"
   531                           ADRES equ 0FC3h ;# 
   532  0000                     # 5611 "/Applications/microchip/xc8/v1.45/include/pic18f2550.h"
   533                           ADRESL equ 0FC3h ;# 
   534  0000                     # 5618 "/Applications/microchip/xc8/v1.45/include/pic18f2550.h"
   535                           ADRESH equ 0FC4h ;# 
   536  0000                     # 5625 "/Applications/microchip/xc8/v1.45/include/pic18f2550.h"
   537                           SSPCON2 equ 0FC5h ;# 
   538  0000                     # 5687 "/Applications/microchip/xc8/v1.45/include/pic18f2550.h"
   539                           SSPCON1 equ 0FC6h ;# 
   540  0000                     # 5757 "/Applications/microchip/xc8/v1.45/include/pic18f2550.h"
   541                           SSPSTAT equ 0FC7h ;# 
   542  0000                     # 6005 "/Applications/microchip/xc8/v1.45/include/pic18f2550.h"
   543                           SSPADD equ 0FC8h ;# 
   544  0000                     # 6012 "/Applications/microchip/xc8/v1.45/include/pic18f2550.h"
   545                           SSPBUF equ 0FC9h ;# 
   546  0000                     # 6019 "/Applications/microchip/xc8/v1.45/include/pic18f2550.h"
   547                           T2CON equ 0FCAh ;# 
   548  0000                     # 6117 "/Applications/microchip/xc8/v1.45/include/pic18f2550.h"
   549                           PR2 equ 0FCBh ;# 
   550  0000                     # 6122 "/Applications/microchip/xc8/v1.45/include/pic18f2550.h"
   551                           MEMCON equ 0FCBh ;# 
   552  0000                     # 6227 "/Applications/microchip/xc8/v1.45/include/pic18f2550.h"
   553                           TMR2 equ 0FCCh ;# 
   554  0000                     # 6234 "/Applications/microchip/xc8/v1.45/include/pic18f2550.h"
   555                           T1CON equ 0FCDh ;# 
   556  0000                     # 6337 "/Applications/microchip/xc8/v1.45/include/pic18f2550.h"
   557                           TMR1 equ 0FCEh ;# 
   558  0000                     # 6344 "/Applications/microchip/xc8/v1.45/include/pic18f2550.h"
   559                           TMR1L equ 0FCEh ;# 
   560  0000                     # 6351 "/Applications/microchip/xc8/v1.45/include/pic18f2550.h"
   561                           TMR1H equ 0FCFh ;# 
   562  0000                     # 6358 "/Applications/microchip/xc8/v1.45/include/pic18f2550.h"
   563                           RCON equ 0FD0h ;# 
   564  0000                     # 6507 "/Applications/microchip/xc8/v1.45/include/pic18f2550.h"
   565                           WDTCON equ 0FD1h ;# 
   566  0000                     # 6535 "/Applications/microchip/xc8/v1.45/include/pic18f2550.h"
   567                           HLVDCON equ 0FD2h ;# 
   568  0000                     # 6540 "/Applications/microchip/xc8/v1.45/include/pic18f2550.h"
   569                           LVDCON equ 0FD2h ;# 
   570  0000                     # 6805 "/Applications/microchip/xc8/v1.45/include/pic18f2550.h"
   571                           OSCCON equ 0FD3h ;# 
   572  0000                     # 6888 "/Applications/microchip/xc8/v1.45/include/pic18f2550.h"
   573                           T0CON equ 0FD5h ;# 
   574  0000                     # 6958 "/Applications/microchip/xc8/v1.45/include/pic18f2550.h"
   575                           TMR0 equ 0FD6h ;# 
   576  0000                     # 6965 "/Applications/microchip/xc8/v1.45/include/pic18f2550.h"
   577                           TMR0L equ 0FD6h ;# 
   578  0000                     # 6972 "/Applications/microchip/xc8/v1.45/include/pic18f2550.h"
   579                           TMR0H equ 0FD7h ;# 
   580  0000                     # 6979 "/Applications/microchip/xc8/v1.45/include/pic18f2550.h"
   581                           STATUS equ 0FD8h ;# 
   582  0000                     # 7050 "/Applications/microchip/xc8/v1.45/include/pic18f2550.h"
   583                           FSR2 equ 0FD9h ;# 
   584  0000                     # 7057 "/Applications/microchip/xc8/v1.45/include/pic18f2550.h"
   585                           FSR2L equ 0FD9h ;# 
   586  0000                     # 7064 "/Applications/microchip/xc8/v1.45/include/pic18f2550.h"
   587                           FSR2H equ 0FDAh ;# 
   588  0000                     # 7071 "/Applications/microchip/xc8/v1.45/include/pic18f2550.h"
   589                           PLUSW2 equ 0FDBh ;# 
   590  0000                     # 7078 "/Applications/microchip/xc8/v1.45/include/pic18f2550.h"
   591                           PREINC2 equ 0FDCh ;# 
   592  0000                     # 7085 "/Applications/microchip/xc8/v1.45/include/pic18f2550.h"
   593                           POSTDEC2 equ 0FDDh ;# 
   594  0000                     # 7092 "/Applications/microchip/xc8/v1.45/include/pic18f2550.h"
   595                           POSTINC2 equ 0FDEh ;# 
   596  0000                     # 7099 "/Applications/microchip/xc8/v1.45/include/pic18f2550.h"
   597                           INDF2 equ 0FDFh ;# 
   598  0000                     # 7106 "/Applications/microchip/xc8/v1.45/include/pic18f2550.h"
   599                           BSR equ 0FE0h ;# 
   600  0000                     # 7113 "/Applications/microchip/xc8/v1.45/include/pic18f2550.h"
   601                           FSR1 equ 0FE1h ;# 
   602  0000                     # 7120 "/Applications/microchip/xc8/v1.45/include/pic18f2550.h"
   603                           FSR1L equ 0FE1h ;# 
   604  0000                     # 7127 "/Applications/microchip/xc8/v1.45/include/pic18f2550.h"
   605                           FSR1H equ 0FE2h ;# 
   606  0000                     # 7134 "/Applications/microchip/xc8/v1.45/include/pic18f2550.h"
   607                           PLUSW1 equ 0FE3h ;# 
   608  0000                     # 7141 "/Applications/microchip/xc8/v1.45/include/pic18f2550.h"
   609                           PREINC1 equ 0FE4h ;# 
   610  0000                     # 7148 "/Applications/microchip/xc8/v1.45/include/pic18f2550.h"
   611                           POSTDEC1 equ 0FE5h ;# 
   612  0000                     # 7155 "/Applications/microchip/xc8/v1.45/include/pic18f2550.h"
   613                           POSTINC1 equ 0FE6h ;# 
   614  0000                     # 7162 "/Applications/microchip/xc8/v1.45/include/pic18f2550.h"
   615                           INDF1 equ 0FE7h ;# 
   616  0000                     # 7169 "/Applications/microchip/xc8/v1.45/include/pic18f2550.h"
   617                           WREG equ 0FE8h ;# 
   618  0000                     # 7176 "/Applications/microchip/xc8/v1.45/include/pic18f2550.h"
   619                           FSR0 equ 0FE9h ;# 
   620  0000                     # 7183 "/Applications/microchip/xc8/v1.45/include/pic18f2550.h"
   621                           FSR0L equ 0FE9h ;# 
   622  0000                     # 7190 "/Applications/microchip/xc8/v1.45/include/pic18f2550.h"
   623                           FSR0H equ 0FEAh ;# 
   624  0000                     # 7197 "/Applications/microchip/xc8/v1.45/include/pic18f2550.h"
   625                           PLUSW0 equ 0FEBh ;# 
   626  0000                     # 7204 "/Applications/microchip/xc8/v1.45/include/pic18f2550.h"
   627                           PREINC0 equ 0FECh ;# 
   628  0000                     # 7211 "/Applications/microchip/xc8/v1.45/include/pic18f2550.h"
   629                           POSTDEC0 equ 0FEDh ;# 
   630  0000                     # 7218 "/Applications/microchip/xc8/v1.45/include/pic18f2550.h"
   631                           POSTINC0 equ 0FEEh ;# 
   632  0000                     # 7225 "/Applications/microchip/xc8/v1.45/include/pic18f2550.h"
   633                           INDF0 equ 0FEFh ;# 
   634  0000                     # 7232 "/Applications/microchip/xc8/v1.45/include/pic18f2550.h"
   635                           INTCON3 equ 0FF0h ;# 
   636  0000                     # 7324 "/Applications/microchip/xc8/v1.45/include/pic18f2550.h"
   637                           INTCON2 equ 0FF1h ;# 
   638  0000                     # 7401 "/Applications/microchip/xc8/v1.45/include/pic18f2550.h"
   639                           INTCON equ 0FF2h ;# 
   640  0000                     # 7518 "/Applications/microchip/xc8/v1.45/include/pic18f2550.h"
   641                           PROD equ 0FF3h ;# 
   642  0000                     # 7525 "/Applications/microchip/xc8/v1.45/include/pic18f2550.h"
   643                           PRODL equ 0FF3h ;# 
   644  0000                     # 7532 "/Applications/microchip/xc8/v1.45/include/pic18f2550.h"
   645                           PRODH equ 0FF4h ;# 
   646  0000                     # 7539 "/Applications/microchip/xc8/v1.45/include/pic18f2550.h"
   647                           TABLAT equ 0FF5h ;# 
   648  0000                     # 7548 "/Applications/microchip/xc8/v1.45/include/pic18f2550.h"
   649                           TBLPTR equ 0FF6h ;# 
   650  0000                     # 7555 "/Applications/microchip/xc8/v1.45/include/pic18f2550.h"
   651                           TBLPTRL equ 0FF6h ;# 
   652  0000                     # 7562 "/Applications/microchip/xc8/v1.45/include/pic18f2550.h"
   653                           TBLPTRH equ 0FF7h ;# 
   654  0000                     # 7569 "/Applications/microchip/xc8/v1.45/include/pic18f2550.h"
   655                           TBLPTRU equ 0FF8h ;# 
   656  0000                     # 7578 "/Applications/microchip/xc8/v1.45/include/pic18f2550.h"
   657                           PCLAT equ 0FF9h ;# 
   658  0000                     # 7585 "/Applications/microchip/xc8/v1.45/include/pic18f2550.h"
   659                           PC equ 0FF9h ;# 
   660  0000                     # 7592 "/Applications/microchip/xc8/v1.45/include/pic18f2550.h"
   661                           PCL equ 0FF9h ;# 
   662  0000                     # 7599 "/Applications/microchip/xc8/v1.45/include/pic18f2550.h"
   663                           PCLATH equ 0FFAh ;# 
   664  0000                     # 7606 "/Applications/microchip/xc8/v1.45/include/pic18f2550.h"
   665                           PCLATU equ 0FFBh ;# 
   666  0000                     # 7613 "/Applications/microchip/xc8/v1.45/include/pic18f2550.h"
   667                           STKPTR equ 0FFCh ;# 
   668  0000                     # 7689 "/Applications/microchip/xc8/v1.45/include/pic18f2550.h"
   669                           TOS equ 0FFDh ;# 
   670  0000                     # 7696 "/Applications/microchip/xc8/v1.45/include/pic18f2550.h"
   671                           TOSL equ 0FFDh ;# 
   672  0000                     # 7703 "/Applications/microchip/xc8/v1.45/include/pic18f2550.h"
   673                           TOSH equ 0FFEh ;# 
   674  0000                     # 7710 "/Applications/microchip/xc8/v1.45/include/pic18f2550.h"
   675                           TOSU equ 0FFFh ;# 
   676  0000                     # 52 "/Applications/microchip/xc8/v1.45/include/pic18f2550.h"
   677                           UFRM equ 0F66h ;# 
   678  0000                     # 59 "/Applications/microchip/xc8/v1.45/include/pic18f2550.h"
   679                           UFRML equ 0F66h ;# 
   680  0000                     # 137 "/Applications/microchip/xc8/v1.45/include/pic18f2550.h"
   681                           UFRMH equ 0F67h ;# 
   682  0000                     # 177 "/Applications/microchip/xc8/v1.45/include/pic18f2550.h"
   683                           UIR equ 0F68h ;# 
   684  0000                     # 233 "/Applications/microchip/xc8/v1.45/include/pic18f2550.h"
   685                           UIE equ 0F69h ;# 
   686  0000                     # 289 "/Applications/microchip/xc8/v1.45/include/pic18f2550.h"
   687                           UEIR equ 0F6Ah ;# 
   688  0000                     # 340 "/Applications/microchip/xc8/v1.45/include/pic18f2550.h"
   689                           UEIE equ 0F6Bh ;# 
   690  0000                     # 391 "/Applications/microchip/xc8/v1.45/include/pic18f2550.h"
   691                           USTAT equ 0F6Ch ;# 
   692  0000                     # 451 "/Applications/microchip/xc8/v1.45/include/pic18f2550.h"
   693                           UCON equ 0F6Dh ;# 
   694  0000                     # 502 "/Applications/microchip/xc8/v1.45/include/pic18f2550.h"
   695                           UADDR equ 0F6Eh ;# 
   696  0000                     # 566 "/Applications/microchip/xc8/v1.45/include/pic18f2550.h"
   697                           UCFG equ 0F6Fh ;# 
   698  0000                     # 645 "/Applications/microchip/xc8/v1.45/include/pic18f2550.h"
   699                           UEP0 equ 0F70h ;# 
   700  0000                     # 753 "/Applications/microchip/xc8/v1.45/include/pic18f2550.h"
   701                           UEP1 equ 0F71h ;# 
   702  0000                     # 861 "/Applications/microchip/xc8/v1.45/include/pic18f2550.h"
   703                           UEP2 equ 0F72h ;# 
   704  0000                     # 969 "/Applications/microchip/xc8/v1.45/include/pic18f2550.h"
   705                           UEP3 equ 0F73h ;# 
   706  0000                     # 1077 "/Applications/microchip/xc8/v1.45/include/pic18f2550.h"
   707                           UEP4 equ 0F74h ;# 
   708  0000                     # 1185 "/Applications/microchip/xc8/v1.45/include/pic18f2550.h"
   709                           UEP5 equ 0F75h ;# 
   710  0000                     # 1293 "/Applications/microchip/xc8/v1.45/include/pic18f2550.h"
   711                           UEP6 equ 0F76h ;# 
   712  0000                     # 1401 "/Applications/microchip/xc8/v1.45/include/pic18f2550.h"
   713                           UEP7 equ 0F77h ;# 
   714  0000                     # 1509 "/Applications/microchip/xc8/v1.45/include/pic18f2550.h"
   715                           UEP8 equ 0F78h ;# 
   716  0000                     # 1585 "/Applications/microchip/xc8/v1.45/include/pic18f2550.h"
   717                           UEP9 equ 0F79h ;# 
   718  0000                     # 1661 "/Applications/microchip/xc8/v1.45/include/pic18f2550.h"
   719                           UEP10 equ 0F7Ah ;# 
   720  0000                     # 1737 "/Applications/microchip/xc8/v1.45/include/pic18f2550.h"
   721                           UEP11 equ 0F7Bh ;# 
   722  0000                     # 1813 "/Applications/microchip/xc8/v1.45/include/pic18f2550.h"
   723                           UEP12 equ 0F7Ch ;# 
   724  0000                     # 1889 "/Applications/microchip/xc8/v1.45/include/pic18f2550.h"
   725                           UEP13 equ 0F7Dh ;# 
   726  0000                     # 1965 "/Applications/microchip/xc8/v1.45/include/pic18f2550.h"
   727                           UEP14 equ 0F7Eh ;# 
   728  0000                     # 2041 "/Applications/microchip/xc8/v1.45/include/pic18f2550.h"
   729                           UEP15 equ 0F7Fh ;# 
   730  0000                     # 2117 "/Applications/microchip/xc8/v1.45/include/pic18f2550.h"
   731                           PORTA equ 0F80h ;# 
   732  0000                     # 2256 "/Applications/microchip/xc8/v1.45/include/pic18f2550.h"
   733                           PORTB equ 0F81h ;# 
   734  0000                     # 2366 "/Applications/microchip/xc8/v1.45/include/pic18f2550.h"
   735                           PORTC equ 0F82h ;# 
   736  0000                     # 2508 "/Applications/microchip/xc8/v1.45/include/pic18f2550.h"
   737                           PORTE equ 0F84h ;# 
   738  0000                     # 2547 "/Applications/microchip/xc8/v1.45/include/pic18f2550.h"
   739                           LATA equ 0F89h ;# 
   740  0000                     # 2647 "/Applications/microchip/xc8/v1.45/include/pic18f2550.h"
   741                           LATB equ 0F8Ah ;# 
   742  0000                     # 2759 "/Applications/microchip/xc8/v1.45/include/pic18f2550.h"
   743                           LATC equ 0F8Bh ;# 
   744  0000                     # 2837 "/Applications/microchip/xc8/v1.45/include/pic18f2550.h"
   745                           TRISA equ 0F92h ;# 
   746  0000                     # 2842 "/Applications/microchip/xc8/v1.45/include/pic18f2550.h"
   747                           DDRA equ 0F92h ;# 
   748  0000                     # 3035 "/Applications/microchip/xc8/v1.45/include/pic18f2550.h"
   749                           TRISB equ 0F93h ;# 
   750  0000                     # 3040 "/Applications/microchip/xc8/v1.45/include/pic18f2550.h"
   751                           DDRB equ 0F93h ;# 
   752  0000                     # 3257 "/Applications/microchip/xc8/v1.45/include/pic18f2550.h"
   753                           TRISC equ 0F94h ;# 
   754  0000                     # 3262 "/Applications/microchip/xc8/v1.45/include/pic18f2550.h"
   755                           DDRC equ 0F94h ;# 
   756  0000                     # 3411 "/Applications/microchip/xc8/v1.45/include/pic18f2550.h"
   757                           OSCTUNE equ 0F9Bh ;# 
   758  0000                     # 3470 "/Applications/microchip/xc8/v1.45/include/pic18f2550.h"
   759                           PIE1 equ 0F9Dh ;# 
   760  0000                     # 3541 "/Applications/microchip/xc8/v1.45/include/pic18f2550.h"
   761                           PIR1 equ 0F9Eh ;# 
   762  0000                     # 3612 "/Applications/microchip/xc8/v1.45/include/pic18f2550.h"
   763                           IPR1 equ 0F9Fh ;# 
   764  0000                     # 3683 "/Applications/microchip/xc8/v1.45/include/pic18f2550.h"
   765                           PIE2 equ 0FA0h ;# 
   766  0000                     # 3754 "/Applications/microchip/xc8/v1.45/include/pic18f2550.h"
   767                           PIR2 equ 0FA1h ;# 
   768  0000                     # 3825 "/Applications/microchip/xc8/v1.45/include/pic18f2550.h"
   769                           IPR2 equ 0FA2h ;# 
   770  0000                     # 3896 "/Applications/microchip/xc8/v1.45/include/pic18f2550.h"
   771                           EECON1 equ 0FA6h ;# 
   772  0000                     # 3962 "/Applications/microchip/xc8/v1.45/include/pic18f2550.h"
   773                           EECON2 equ 0FA7h ;# 
   774  0000                     # 3969 "/Applications/microchip/xc8/v1.45/include/pic18f2550.h"
   775                           EEDATA equ 0FA8h ;# 
   776  0000                     # 3976 "/Applications/microchip/xc8/v1.45/include/pic18f2550.h"
   777                           EEADR equ 0FA9h ;# 
   778  0000                     # 3983 "/Applications/microchip/xc8/v1.45/include/pic18f2550.h"
   779                           RCSTA equ 0FABh ;# 
   780  0000                     # 3988 "/Applications/microchip/xc8/v1.45/include/pic18f2550.h"
   781                           RCSTA1 equ 0FABh ;# 
   782  0000                     # 4193 "/Applications/microchip/xc8/v1.45/include/pic18f2550.h"
   783                           TXSTA equ 0FACh ;# 
   784  0000                     # 4198 "/Applications/microchip/xc8/v1.45/include/pic18f2550.h"
   785                           TXSTA1 equ 0FACh ;# 
   786  0000                     # 4449 "/Applications/microchip/xc8/v1.45/include/pic18f2550.h"
   787                           TXREG equ 0FADh ;# 
   788  0000                     # 4454 "/Applications/microchip/xc8/v1.45/include/pic18f2550.h"
   789                           TXREG1 equ 0FADh ;# 
   790  0000                     # 4461 "/Applications/microchip/xc8/v1.45/include/pic18f2550.h"
   791                           RCREG equ 0FAEh ;# 
   792  0000                     # 4466 "/Applications/microchip/xc8/v1.45/include/pic18f2550.h"
   793                           RCREG1 equ 0FAEh ;# 
   794  0000                     # 4473 "/Applications/microchip/xc8/v1.45/include/pic18f2550.h"
   795                           SPBRG equ 0FAFh ;# 
   796  0000                     # 4478 "/Applications/microchip/xc8/v1.45/include/pic18f2550.h"
   797                           SPBRG1 equ 0FAFh ;# 
   798  0000                     # 4485 "/Applications/microchip/xc8/v1.45/include/pic18f2550.h"
   799                           SPBRGH equ 0FB0h ;# 
   800  0000                     # 4492 "/Applications/microchip/xc8/v1.45/include/pic18f2550.h"
   801                           T3CON equ 0FB1h ;# 
   802  0000                     # 4613 "/Applications/microchip/xc8/v1.45/include/pic18f2550.h"
   803                           TMR3 equ 0FB2h ;# 
   804  0000                     # 4620 "/Applications/microchip/xc8/v1.45/include/pic18f2550.h"
   805                           TMR3L equ 0FB2h ;# 
   806  0000                     # 4627 "/Applications/microchip/xc8/v1.45/include/pic18f2550.h"
   807                           TMR3H equ 0FB3h ;# 
   808  0000                     # 4634 "/Applications/microchip/xc8/v1.45/include/pic18f2550.h"
   809                           CMCON equ 0FB4h ;# 
   810  0000                     # 4724 "/Applications/microchip/xc8/v1.45/include/pic18f2550.h"
   811                           CVRCON equ 0FB5h ;# 
   812  0000                     # 4809 "/Applications/microchip/xc8/v1.45/include/pic18f2550.h"
   813                           ECCP1AS equ 0FB6h ;# 
   814  0000                     # 4814 "/Applications/microchip/xc8/v1.45/include/pic18f2550.h"
   815                           CCP1AS equ 0FB6h ;# 
   816  0000                     # 4939 "/Applications/microchip/xc8/v1.45/include/pic18f2550.h"
   817                           ECCP1DEL equ 0FB7h ;# 
   818  0000                     # 4944 "/Applications/microchip/xc8/v1.45/include/pic18f2550.h"
   819                           CCP1DEL equ 0FB7h ;# 
   820  0000                     # 4979 "/Applications/microchip/xc8/v1.45/include/pic18f2550.h"
   821                           BAUDCON equ 0FB8h ;# 
   822  0000                     # 4984 "/Applications/microchip/xc8/v1.45/include/pic18f2550.h"
   823                           BAUDCTL equ 0FB8h ;# 
   824  0000                     # 5159 "/Applications/microchip/xc8/v1.45/include/pic18f2550.h"
   825                           CCP2CON equ 0FBAh ;# 
   826  0000                     # 5223 "/Applications/microchip/xc8/v1.45/include/pic18f2550.h"
   827                           CCPR2 equ 0FBBh ;# 
   828  0000                     # 5230 "/Applications/microchip/xc8/v1.45/include/pic18f2550.h"
   829                           CCPR2L equ 0FBBh ;# 
   830  0000                     # 5237 "/Applications/microchip/xc8/v1.45/include/pic18f2550.h"
   831                           CCPR2H equ 0FBCh ;# 
   832  0000                     # 5244 "/Applications/microchip/xc8/v1.45/include/pic18f2550.h"
   833                           CCP1CON equ 0FBDh ;# 
   834  0000                     # 5308 "/Applications/microchip/xc8/v1.45/include/pic18f2550.h"
   835                           CCPR1 equ 0FBEh ;# 
   836  0000                     # 5315 "/Applications/microchip/xc8/v1.45/include/pic18f2550.h"
   837                           CCPR1L equ 0FBEh ;# 
   838  0000                     # 5322 "/Applications/microchip/xc8/v1.45/include/pic18f2550.h"
   839                           CCPR1H equ 0FBFh ;# 
   840  0000                     # 5329 "/Applications/microchip/xc8/v1.45/include/pic18f2550.h"
   841                           ADCON2 equ 0FC0h ;# 
   842  0000                     # 5400 "/Applications/microchip/xc8/v1.45/include/pic18f2550.h"
   843                           ADCON1 equ 0FC1h ;# 
   844  0000                     # 5485 "/Applications/microchip/xc8/v1.45/include/pic18f2550.h"
   845                           ADCON0 equ 0FC2h ;# 
   846  0000                     # 5604 "/Applications/microchip/xc8/v1.45/include/pic18f2550.h"
   847                           ADRES equ 0FC3h ;# 
   848  0000                     # 5611 "/Applications/microchip/xc8/v1.45/include/pic18f2550.h"
   849                           ADRESL equ 0FC3h ;# 
   850  0000                     # 5618 "/Applications/microchip/xc8/v1.45/include/pic18f2550.h"
   851                           ADRESH equ 0FC4h ;# 
   852  0000                     # 5625 "/Applications/microchip/xc8/v1.45/include/pic18f2550.h"
   853                           SSPCON2 equ 0FC5h ;# 
   854  0000                     # 5687 "/Applications/microchip/xc8/v1.45/include/pic18f2550.h"
   855                           SSPCON1 equ 0FC6h ;# 
   856  0000                     # 5757 "/Applications/microchip/xc8/v1.45/include/pic18f2550.h"
   857                           SSPSTAT equ 0FC7h ;# 
   858  0000                     # 6005 "/Applications/microchip/xc8/v1.45/include/pic18f2550.h"
   859                           SSPADD equ 0FC8h ;# 
   860  0000                     # 6012 "/Applications/microchip/xc8/v1.45/include/pic18f2550.h"
   861                           SSPBUF equ 0FC9h ;# 
   862  0000                     # 6019 "/Applications/microchip/xc8/v1.45/include/pic18f2550.h"
   863                           T2CON equ 0FCAh ;# 
   864  0000                     # 6117 "/Applications/microchip/xc8/v1.45/include/pic18f2550.h"
   865                           PR2 equ 0FCBh ;# 
   866  0000                     # 6122 "/Applications/microchip/xc8/v1.45/include/pic18f2550.h"
   867                           MEMCON equ 0FCBh ;# 
   868  0000                     # 6227 "/Applications/microchip/xc8/v1.45/include/pic18f2550.h"
   869                           TMR2 equ 0FCCh ;# 
   870  0000                     # 6234 "/Applications/microchip/xc8/v1.45/include/pic18f2550.h"
   871                           T1CON equ 0FCDh ;# 
   872  0000                     # 6337 "/Applications/microchip/xc8/v1.45/include/pic18f2550.h"
   873                           TMR1 equ 0FCEh ;# 
   874  0000                     # 6344 "/Applications/microchip/xc8/v1.45/include/pic18f2550.h"
   875                           TMR1L equ 0FCEh ;# 
   876  0000                     # 6351 "/Applications/microchip/xc8/v1.45/include/pic18f2550.h"
   877                           TMR1H equ 0FCFh ;# 
   878  0000                     # 6358 "/Applications/microchip/xc8/v1.45/include/pic18f2550.h"
   879                           RCON equ 0FD0h ;# 
   880  0000                     # 6507 "/Applications/microchip/xc8/v1.45/include/pic18f2550.h"
   881                           WDTCON equ 0FD1h ;# 
   882  0000                     # 6535 "/Applications/microchip/xc8/v1.45/include/pic18f2550.h"
   883                           HLVDCON equ 0FD2h ;# 
   884  0000                     # 6540 "/Applications/microchip/xc8/v1.45/include/pic18f2550.h"
   885                           LVDCON equ 0FD2h ;# 
   886  0000                     # 6805 "/Applications/microchip/xc8/v1.45/include/pic18f2550.h"
   887                           OSCCON equ 0FD3h ;# 
   888  0000                     # 6888 "/Applications/microchip/xc8/v1.45/include/pic18f2550.h"
   889                           T0CON equ 0FD5h ;# 
   890  0000                     # 6958 "/Applications/microchip/xc8/v1.45/include/pic18f2550.h"
   891                           TMR0 equ 0FD6h ;# 
   892  0000                     # 6965 "/Applications/microchip/xc8/v1.45/include/pic18f2550.h"
   893                           TMR0L equ 0FD6h ;# 
   894  0000                     # 6972 "/Applications/microchip/xc8/v1.45/include/pic18f2550.h"
   895                           TMR0H equ 0FD7h ;# 
   896  0000                     # 6979 "/Applications/microchip/xc8/v1.45/include/pic18f2550.h"
   897                           STATUS equ 0FD8h ;# 
   898  0000                     # 7050 "/Applications/microchip/xc8/v1.45/include/pic18f2550.h"
   899                           FSR2 equ 0FD9h ;# 
   900  0000                     # 7057 "/Applications/microchip/xc8/v1.45/include/pic18f2550.h"
   901                           FSR2L equ 0FD9h ;# 
   902  0000                     # 7064 "/Applications/microchip/xc8/v1.45/include/pic18f2550.h"
   903                           FSR2H equ 0FDAh ;# 
   904  0000                     # 7071 "/Applications/microchip/xc8/v1.45/include/pic18f2550.h"
   905                           PLUSW2 equ 0FDBh ;# 
   906  0000                     # 7078 "/Applications/microchip/xc8/v1.45/include/pic18f2550.h"
   907                           PREINC2 equ 0FDCh ;# 
   908  0000                     # 7085 "/Applications/microchip/xc8/v1.45/include/pic18f2550.h"
   909                           POSTDEC2 equ 0FDDh ;# 
   910  0000                     # 7092 "/Applications/microchip/xc8/v1.45/include/pic18f2550.h"
   911                           POSTINC2 equ 0FDEh ;# 
   912  0000                     # 7099 "/Applications/microchip/xc8/v1.45/include/pic18f2550.h"
   913                           INDF2 equ 0FDFh ;# 
   914  0000                     # 7106 "/Applications/microchip/xc8/v1.45/include/pic18f2550.h"
   915                           BSR equ 0FE0h ;# 
   916  0000                     # 7113 "/Applications/microchip/xc8/v1.45/include/pic18f2550.h"
   917                           FSR1 equ 0FE1h ;# 
   918  0000                     # 7120 "/Applications/microchip/xc8/v1.45/include/pic18f2550.h"
   919                           FSR1L equ 0FE1h ;# 
   920  0000                     # 7127 "/Applications/microchip/xc8/v1.45/include/pic18f2550.h"
   921                           FSR1H equ 0FE2h ;# 
   922  0000                     # 7134 "/Applications/microchip/xc8/v1.45/include/pic18f2550.h"
   923                           PLUSW1 equ 0FE3h ;# 
   924  0000                     # 7141 "/Applications/microchip/xc8/v1.45/include/pic18f2550.h"
   925                           PREINC1 equ 0FE4h ;# 
   926  0000                     # 7148 "/Applications/microchip/xc8/v1.45/include/pic18f2550.h"
   927                           POSTDEC1 equ 0FE5h ;# 
   928  0000                     # 7155 "/Applications/microchip/xc8/v1.45/include/pic18f2550.h"
   929                           POSTINC1 equ 0FE6h ;# 
   930  0000                     # 7162 "/Applications/microchip/xc8/v1.45/include/pic18f2550.h"
   931                           INDF1 equ 0FE7h ;# 
   932  0000                     # 7169 "/Applications/microchip/xc8/v1.45/include/pic18f2550.h"
   933                           WREG equ 0FE8h ;# 
   934  0000                     # 7176 "/Applications/microchip/xc8/v1.45/include/pic18f2550.h"
   935                           FSR0 equ 0FE9h ;# 
   936  0000                     # 7183 "/Applications/microchip/xc8/v1.45/include/pic18f2550.h"
   937                           FSR0L equ 0FE9h ;# 
   938  0000                     # 7190 "/Applications/microchip/xc8/v1.45/include/pic18f2550.h"
   939                           FSR0H equ 0FEAh ;# 
   940  0000                     # 7197 "/Applications/microchip/xc8/v1.45/include/pic18f2550.h"
   941                           PLUSW0 equ 0FEBh ;# 
   942  0000                     # 7204 "/Applications/microchip/xc8/v1.45/include/pic18f2550.h"
   943                           PREINC0 equ 0FECh ;# 
   944  0000                     # 7211 "/Applications/microchip/xc8/v1.45/include/pic18f2550.h"
   945                           POSTDEC0 equ 0FEDh ;# 
   946  0000                     # 7218 "/Applications/microchip/xc8/v1.45/include/pic18f2550.h"
   947                           POSTINC0 equ 0FEEh ;# 
   948  0000                     # 7225 "/Applications/microchip/xc8/v1.45/include/pic18f2550.h"
   949                           INDF0 equ 0FEFh ;# 
   950  0000                     # 7232 "/Applications/microchip/xc8/v1.45/include/pic18f2550.h"
   951                           INTCON3 equ 0FF0h ;# 
   952  0000                     # 7324 "/Applications/microchip/xc8/v1.45/include/pic18f2550.h"
   953                           INTCON2 equ 0FF1h ;# 
   954  0000                     # 7401 "/Applications/microchip/xc8/v1.45/include/pic18f2550.h"
   955                           INTCON equ 0FF2h ;# 
   956  0000                     # 7518 "/Applications/microchip/xc8/v1.45/include/pic18f2550.h"
   957                           PROD equ 0FF3h ;# 
   958  0000                     # 7525 "/Applications/microchip/xc8/v1.45/include/pic18f2550.h"
   959                           PRODL equ 0FF3h ;# 
   960  0000                     # 7532 "/Applications/microchip/xc8/v1.45/include/pic18f2550.h"
   961                           PRODH equ 0FF4h ;# 
   962  0000                     # 7539 "/Applications/microchip/xc8/v1.45/include/pic18f2550.h"
   963                           TABLAT equ 0FF5h ;# 
   964  0000                     # 7548 "/Applications/microchip/xc8/v1.45/include/pic18f2550.h"
   965                           TBLPTR equ 0FF6h ;# 
   966  0000                     # 7555 "/Applications/microchip/xc8/v1.45/include/pic18f2550.h"
   967                           TBLPTRL equ 0FF6h ;# 
   968  0000                     # 7562 "/Applications/microchip/xc8/v1.45/include/pic18f2550.h"
   969                           TBLPTRH equ 0FF7h ;# 
   970  0000                     # 7569 "/Applications/microchip/xc8/v1.45/include/pic18f2550.h"
   971                           TBLPTRU equ 0FF8h ;# 
   972  0000                     # 7578 "/Applications/microchip/xc8/v1.45/include/pic18f2550.h"
   973                           PCLAT equ 0FF9h ;# 
   974  0000                     # 7585 "/Applications/microchip/xc8/v1.45/include/pic18f2550.h"
   975                           PC equ 0FF9h ;# 
   976  0000                     # 7592 "/Applications/microchip/xc8/v1.45/include/pic18f2550.h"
   977                           PCL equ 0FF9h ;# 
   978  0000                     # 7599 "/Applications/microchip/xc8/v1.45/include/pic18f2550.h"
   979                           PCLATH equ 0FFAh ;# 
   980  0000                     # 7606 "/Applications/microchip/xc8/v1.45/include/pic18f2550.h"
   981                           PCLATU equ 0FFBh ;# 
   982  0000                     # 7613 "/Applications/microchip/xc8/v1.45/include/pic18f2550.h"
   983                           STKPTR equ 0FFCh ;# 
   984  0000                     # 7689 "/Applications/microchip/xc8/v1.45/include/pic18f2550.h"
   985                           TOS equ 0FFDh ;# 
   986  0000                     # 7696 "/Applications/microchip/xc8/v1.45/include/pic18f2550.h"
   987                           TOSL equ 0FFDh ;# 
   988  0000                     # 7703 "/Applications/microchip/xc8/v1.45/include/pic18f2550.h"
   989                           TOSH equ 0FFEh ;# 
   990  0000                     # 7710 "/Applications/microchip/xc8/v1.45/include/pic18f2550.h"
   991                           TOSU equ 0FFFh ;# 
   992  0000                     # 52 "/Applications/microchip/xc8/v1.45/include/pic18f2550.h"
   993                           UFRM equ 0F66h ;# 
   994  0000                     # 59 "/Applications/microchip/xc8/v1.45/include/pic18f2550.h"
   995                           UFRML equ 0F66h ;# 
   996  0000                     # 137 "/Applications/microchip/xc8/v1.45/include/pic18f2550.h"
   997                           UFRMH equ 0F67h ;# 
   998  0000                     # 177 "/Applications/microchip/xc8/v1.45/include/pic18f2550.h"
   999                           UIR equ 0F68h ;# 
  1000  0000                     # 233 "/Applications/microchip/xc8/v1.45/include/pic18f2550.h"
  1001                           UIE equ 0F69h ;# 
  1002  0000                     # 289 "/Applications/microchip/xc8/v1.45/include/pic18f2550.h"
  1003                           UEIR equ 0F6Ah ;# 
  1004  0000                     # 340 "/Applications/microchip/xc8/v1.45/include/pic18f2550.h"
  1005                           UEIE equ 0F6Bh ;# 
  1006  0000                     # 391 "/Applications/microchip/xc8/v1.45/include/pic18f2550.h"
  1007                           USTAT equ 0F6Ch ;# 
  1008  0000                     # 451 "/Applications/microchip/xc8/v1.45/include/pic18f2550.h"
  1009                           UCON equ 0F6Dh ;# 
  1010  0000                     # 502 "/Applications/microchip/xc8/v1.45/include/pic18f2550.h"
  1011                           UADDR equ 0F6Eh ;# 
  1012  0000                     # 566 "/Applications/microchip/xc8/v1.45/include/pic18f2550.h"
  1013                           UCFG equ 0F6Fh ;# 
  1014  0000                     # 645 "/Applications/microchip/xc8/v1.45/include/pic18f2550.h"
  1015                           UEP0 equ 0F70h ;# 
  1016  0000                     # 753 "/Applications/microchip/xc8/v1.45/include/pic18f2550.h"
  1017                           UEP1 equ 0F71h ;# 
  1018  0000                     # 861 "/Applications/microchip/xc8/v1.45/include/pic18f2550.h"
  1019                           UEP2 equ 0F72h ;# 
  1020  0000                     # 969 "/Applications/microchip/xc8/v1.45/include/pic18f2550.h"
  1021                           UEP3 equ 0F73h ;# 
  1022  0000                     # 1077 "/Applications/microchip/xc8/v1.45/include/pic18f2550.h"
  1023                           UEP4 equ 0F74h ;# 
  1024  0000                     # 1185 "/Applications/microchip/xc8/v1.45/include/pic18f2550.h"
  1025                           UEP5 equ 0F75h ;# 
  1026  0000                     # 1293 "/Applications/microchip/xc8/v1.45/include/pic18f2550.h"
  1027                           UEP6 equ 0F76h ;# 
  1028  0000                     # 1401 "/Applications/microchip/xc8/v1.45/include/pic18f2550.h"
  1029                           UEP7 equ 0F77h ;# 
  1030  0000                     # 1509 "/Applications/microchip/xc8/v1.45/include/pic18f2550.h"
  1031                           UEP8 equ 0F78h ;# 
  1032  0000                     # 1585 "/Applications/microchip/xc8/v1.45/include/pic18f2550.h"
  1033                           UEP9 equ 0F79h ;# 
  1034  0000                     # 1661 "/Applications/microchip/xc8/v1.45/include/pic18f2550.h"
  1035                           UEP10 equ 0F7Ah ;# 
  1036  0000                     # 1737 "/Applications/microchip/xc8/v1.45/include/pic18f2550.h"
  1037                           UEP11 equ 0F7Bh ;# 
  1038  0000                     # 1813 "/Applications/microchip/xc8/v1.45/include/pic18f2550.h"
  1039                           UEP12 equ 0F7Ch ;# 
  1040  0000                     # 1889 "/Applications/microchip/xc8/v1.45/include/pic18f2550.h"
  1041                           UEP13 equ 0F7Dh ;# 
  1042  0000                     # 1965 "/Applications/microchip/xc8/v1.45/include/pic18f2550.h"
  1043                           UEP14 equ 0F7Eh ;# 
  1044  0000                     # 2041 "/Applications/microchip/xc8/v1.45/include/pic18f2550.h"
  1045                           UEP15 equ 0F7Fh ;# 
  1046  0000                     # 2117 "/Applications/microchip/xc8/v1.45/include/pic18f2550.h"
  1047                           PORTA equ 0F80h ;# 
  1048  0000                     # 2256 "/Applications/microchip/xc8/v1.45/include/pic18f2550.h"
  1049                           PORTB equ 0F81h ;# 
  1050  0000                     # 2366 "/Applications/microchip/xc8/v1.45/include/pic18f2550.h"
  1051                           PORTC equ 0F82h ;# 
  1052  0000                     # 2508 "/Applications/microchip/xc8/v1.45/include/pic18f2550.h"
  1053                           PORTE equ 0F84h ;# 
  1054  0000                     # 2547 "/Applications/microchip/xc8/v1.45/include/pic18f2550.h"
  1055                           LATA equ 0F89h ;# 
  1056  0000                     # 2647 "/Applications/microchip/xc8/v1.45/include/pic18f2550.h"
  1057                           LATB equ 0F8Ah ;# 
  1058  0000                     # 2759 "/Applications/microchip/xc8/v1.45/include/pic18f2550.h"
  1059                           LATC equ 0F8Bh ;# 
  1060  0000                     # 2837 "/Applications/microchip/xc8/v1.45/include/pic18f2550.h"
  1061                           TRISA equ 0F92h ;# 
  1062  0000                     # 2842 "/Applications/microchip/xc8/v1.45/include/pic18f2550.h"
  1063                           DDRA equ 0F92h ;# 
  1064  0000                     # 3035 "/Applications/microchip/xc8/v1.45/include/pic18f2550.h"
  1065                           TRISB equ 0F93h ;# 
  1066  0000                     # 3040 "/Applications/microchip/xc8/v1.45/include/pic18f2550.h"
  1067                           DDRB equ 0F93h ;# 
  1068  0000                     # 3257 "/Applications/microchip/xc8/v1.45/include/pic18f2550.h"
  1069                           TRISC equ 0F94h ;# 
  1070  0000                     # 3262 "/Applications/microchip/xc8/v1.45/include/pic18f2550.h"
  1071                           DDRC equ 0F94h ;# 
  1072  0000                     # 3411 "/Applications/microchip/xc8/v1.45/include/pic18f2550.h"
  1073                           OSCTUNE equ 0F9Bh ;# 
  1074  0000                     # 3470 "/Applications/microchip/xc8/v1.45/include/pic18f2550.h"
  1075                           PIE1 equ 0F9Dh ;# 
  1076  0000                     # 3541 "/Applications/microchip/xc8/v1.45/include/pic18f2550.h"
  1077                           PIR1 equ 0F9Eh ;# 
  1078  0000                     # 3612 "/Applications/microchip/xc8/v1.45/include/pic18f2550.h"
  1079                           IPR1 equ 0F9Fh ;# 
  1080  0000                     # 3683 "/Applications/microchip/xc8/v1.45/include/pic18f2550.h"
  1081                           PIE2 equ 0FA0h ;# 
  1082  0000                     # 3754 "/Applications/microchip/xc8/v1.45/include/pic18f2550.h"
  1083                           PIR2 equ 0FA1h ;# 
  1084  0000                     # 3825 "/Applications/microchip/xc8/v1.45/include/pic18f2550.h"
  1085                           IPR2 equ 0FA2h ;# 
  1086  0000                     # 3896 "/Applications/microchip/xc8/v1.45/include/pic18f2550.h"
  1087                           EECON1 equ 0FA6h ;# 
  1088  0000                     # 3962 "/Applications/microchip/xc8/v1.45/include/pic18f2550.h"
  1089                           EECON2 equ 0FA7h ;# 
  1090  0000                     # 3969 "/Applications/microchip/xc8/v1.45/include/pic18f2550.h"
  1091                           EEDATA equ 0FA8h ;# 
  1092  0000                     # 3976 "/Applications/microchip/xc8/v1.45/include/pic18f2550.h"
  1093                           EEADR equ 0FA9h ;# 
  1094  0000                     # 3983 "/Applications/microchip/xc8/v1.45/include/pic18f2550.h"
  1095                           RCSTA equ 0FABh ;# 
  1096  0000                     # 3988 "/Applications/microchip/xc8/v1.45/include/pic18f2550.h"
  1097                           RCSTA1 equ 0FABh ;# 
  1098  0000                     # 4193 "/Applications/microchip/xc8/v1.45/include/pic18f2550.h"
  1099                           TXSTA equ 0FACh ;# 
  1100  0000                     # 4198 "/Applications/microchip/xc8/v1.45/include/pic18f2550.h"
  1101                           TXSTA1 equ 0FACh ;# 
  1102  0000                     # 4449 "/Applications/microchip/xc8/v1.45/include/pic18f2550.h"
  1103                           TXREG equ 0FADh ;# 
  1104  0000                     # 4454 "/Applications/microchip/xc8/v1.45/include/pic18f2550.h"
  1105                           TXREG1 equ 0FADh ;# 
  1106  0000                     # 4461 "/Applications/microchip/xc8/v1.45/include/pic18f2550.h"
  1107                           RCREG equ 0FAEh ;# 
  1108  0000                     # 4466 "/Applications/microchip/xc8/v1.45/include/pic18f2550.h"
  1109                           RCREG1 equ 0FAEh ;# 
  1110  0000                     # 4473 "/Applications/microchip/xc8/v1.45/include/pic18f2550.h"
  1111                           SPBRG equ 0FAFh ;# 
  1112  0000                     # 4478 "/Applications/microchip/xc8/v1.45/include/pic18f2550.h"
  1113                           SPBRG1 equ 0FAFh ;# 
  1114  0000                     # 4485 "/Applications/microchip/xc8/v1.45/include/pic18f2550.h"
  1115                           SPBRGH equ 0FB0h ;# 
  1116  0000                     # 4492 "/Applications/microchip/xc8/v1.45/include/pic18f2550.h"
  1117                           T3CON equ 0FB1h ;# 
  1118  0000                     # 4613 "/Applications/microchip/xc8/v1.45/include/pic18f2550.h"
  1119                           TMR3 equ 0FB2h ;# 
  1120  0000                     # 4620 "/Applications/microchip/xc8/v1.45/include/pic18f2550.h"
  1121                           TMR3L equ 0FB2h ;# 
  1122  0000                     # 4627 "/Applications/microchip/xc8/v1.45/include/pic18f2550.h"
  1123                           TMR3H equ 0FB3h ;# 
  1124  0000                     # 4634 "/Applications/microchip/xc8/v1.45/include/pic18f2550.h"
  1125                           CMCON equ 0FB4h ;# 
  1126  0000                     # 4724 "/Applications/microchip/xc8/v1.45/include/pic18f2550.h"
  1127                           CVRCON equ 0FB5h ;# 
  1128  0000                     # 4809 "/Applications/microchip/xc8/v1.45/include/pic18f2550.h"
  1129                           ECCP1AS equ 0FB6h ;# 
  1130  0000                     # 4814 "/Applications/microchip/xc8/v1.45/include/pic18f2550.h"
  1131                           CCP1AS equ 0FB6h ;# 
  1132  0000                     # 4939 "/Applications/microchip/xc8/v1.45/include/pic18f2550.h"
  1133                           ECCP1DEL equ 0FB7h ;# 
  1134  0000                     # 4944 "/Applications/microchip/xc8/v1.45/include/pic18f2550.h"
  1135                           CCP1DEL equ 0FB7h ;# 
  1136  0000                     # 4979 "/Applications/microchip/xc8/v1.45/include/pic18f2550.h"
  1137                           BAUDCON equ 0FB8h ;# 
  1138  0000                     # 4984 "/Applications/microchip/xc8/v1.45/include/pic18f2550.h"
  1139                           BAUDCTL equ 0FB8h ;# 
  1140  0000                     # 5159 "/Applications/microchip/xc8/v1.45/include/pic18f2550.h"
  1141                           CCP2CON equ 0FBAh ;# 
  1142  0000                     # 5223 "/Applications/microchip/xc8/v1.45/include/pic18f2550.h"
  1143                           CCPR2 equ 0FBBh ;# 
  1144  0000                     # 5230 "/Applications/microchip/xc8/v1.45/include/pic18f2550.h"
  1145                           CCPR2L equ 0FBBh ;# 
  1146  0000                     # 5237 "/Applications/microchip/xc8/v1.45/include/pic18f2550.h"
  1147                           CCPR2H equ 0FBCh ;# 
  1148  0000                     # 5244 "/Applications/microchip/xc8/v1.45/include/pic18f2550.h"
  1149                           CCP1CON equ 0FBDh ;# 
  1150  0000                     # 5308 "/Applications/microchip/xc8/v1.45/include/pic18f2550.h"
  1151                           CCPR1 equ 0FBEh ;# 
  1152  0000                     # 5315 "/Applications/microchip/xc8/v1.45/include/pic18f2550.h"
  1153                           CCPR1L equ 0FBEh ;# 
  1154  0000                     # 5322 "/Applications/microchip/xc8/v1.45/include/pic18f2550.h"
  1155                           CCPR1H equ 0FBFh ;# 
  1156  0000                     # 5329 "/Applications/microchip/xc8/v1.45/include/pic18f2550.h"
  1157                           ADCON2 equ 0FC0h ;# 
  1158  0000                     # 5400 "/Applications/microchip/xc8/v1.45/include/pic18f2550.h"
  1159                           ADCON1 equ 0FC1h ;# 
  1160  0000                     # 5485 "/Applications/microchip/xc8/v1.45/include/pic18f2550.h"
  1161                           ADCON0 equ 0FC2h ;# 
  1162  0000                     # 5604 "/Applications/microchip/xc8/v1.45/include/pic18f2550.h"
  1163                           ADRES equ 0FC3h ;# 
  1164  0000                     # 5611 "/Applications/microchip/xc8/v1.45/include/pic18f2550.h"
  1165                           ADRESL equ 0FC3h ;# 
  1166  0000                     # 5618 "/Applications/microchip/xc8/v1.45/include/pic18f2550.h"
  1167                           ADRESH equ 0FC4h ;# 
  1168  0000                     # 5625 "/Applications/microchip/xc8/v1.45/include/pic18f2550.h"
  1169                           SSPCON2 equ 0FC5h ;# 
  1170  0000                     # 5687 "/Applications/microchip/xc8/v1.45/include/pic18f2550.h"
  1171                           SSPCON1 equ 0FC6h ;# 
  1172  0000                     # 5757 "/Applications/microchip/xc8/v1.45/include/pic18f2550.h"
  1173                           SSPSTAT equ 0FC7h ;# 
  1174  0000                     # 6005 "/Applications/microchip/xc8/v1.45/include/pic18f2550.h"
  1175                           SSPADD equ 0FC8h ;# 
  1176  0000                     # 6012 "/Applications/microchip/xc8/v1.45/include/pic18f2550.h"
  1177                           SSPBUF equ 0FC9h ;# 
  1178  0000                     # 6019 "/Applications/microchip/xc8/v1.45/include/pic18f2550.h"
  1179                           T2CON equ 0FCAh ;# 
  1180  0000                     # 6117 "/Applications/microchip/xc8/v1.45/include/pic18f2550.h"
  1181                           PR2 equ 0FCBh ;# 
  1182  0000                     # 6122 "/Applications/microchip/xc8/v1.45/include/pic18f2550.h"
  1183                           MEMCON equ 0FCBh ;# 
  1184  0000                     # 6227 "/Applications/microchip/xc8/v1.45/include/pic18f2550.h"
  1185                           TMR2 equ 0FCCh ;# 
  1186  0000                     # 6234 "/Applications/microchip/xc8/v1.45/include/pic18f2550.h"
  1187                           T1CON equ 0FCDh ;# 
  1188  0000                     # 6337 "/Applications/microchip/xc8/v1.45/include/pic18f2550.h"
  1189                           TMR1 equ 0FCEh ;# 
  1190  0000                     # 6344 "/Applications/microchip/xc8/v1.45/include/pic18f2550.h"
  1191                           TMR1L equ 0FCEh ;# 
  1192  0000                     # 6351 "/Applications/microchip/xc8/v1.45/include/pic18f2550.h"
  1193                           TMR1H equ 0FCFh ;# 
  1194  0000                     # 6358 "/Applications/microchip/xc8/v1.45/include/pic18f2550.h"
  1195                           RCON equ 0FD0h ;# 
  1196  0000                     # 6507 "/Applications/microchip/xc8/v1.45/include/pic18f2550.h"
  1197                           WDTCON equ 0FD1h ;# 
  1198  0000                     # 6535 "/Applications/microchip/xc8/v1.45/include/pic18f2550.h"
  1199                           HLVDCON equ 0FD2h ;# 
  1200  0000                     # 6540 "/Applications/microchip/xc8/v1.45/include/pic18f2550.h"
  1201                           LVDCON equ 0FD2h ;# 
  1202  0000                     # 6805 "/Applications/microchip/xc8/v1.45/include/pic18f2550.h"
  1203                           OSCCON equ 0FD3h ;# 
  1204  0000                     # 6888 "/Applications/microchip/xc8/v1.45/include/pic18f2550.h"
  1205                           T0CON equ 0FD5h ;# 
  1206  0000                     # 6958 "/Applications/microchip/xc8/v1.45/include/pic18f2550.h"
  1207                           TMR0 equ 0FD6h ;# 
  1208  0000                     # 6965 "/Applications/microchip/xc8/v1.45/include/pic18f2550.h"
  1209                           TMR0L equ 0FD6h ;# 
  1210  0000                     # 6972 "/Applications/microchip/xc8/v1.45/include/pic18f2550.h"
  1211                           TMR0H equ 0FD7h ;# 
  1212  0000                     # 6979 "/Applications/microchip/xc8/v1.45/include/pic18f2550.h"
  1213                           STATUS equ 0FD8h ;# 
  1214  0000                     # 7050 "/Applications/microchip/xc8/v1.45/include/pic18f2550.h"
  1215                           FSR2 equ 0FD9h ;# 
  1216  0000                     # 7057 "/Applications/microchip/xc8/v1.45/include/pic18f2550.h"
  1217                           FSR2L equ 0FD9h ;# 
  1218  0000                     # 7064 "/Applications/microchip/xc8/v1.45/include/pic18f2550.h"
  1219                           FSR2H equ 0FDAh ;# 
  1220  0000                     # 7071 "/Applications/microchip/xc8/v1.45/include/pic18f2550.h"
  1221                           PLUSW2 equ 0FDBh ;# 
  1222  0000                     # 7078 "/Applications/microchip/xc8/v1.45/include/pic18f2550.h"
  1223                           PREINC2 equ 0FDCh ;# 
  1224  0000                     # 7085 "/Applications/microchip/xc8/v1.45/include/pic18f2550.h"
  1225                           POSTDEC2 equ 0FDDh ;# 
  1226  0000                     # 7092 "/Applications/microchip/xc8/v1.45/include/pic18f2550.h"
  1227                           POSTINC2 equ 0FDEh ;# 
  1228  0000                     # 7099 "/Applications/microchip/xc8/v1.45/include/pic18f2550.h"
  1229                           INDF2 equ 0FDFh ;# 
  1230  0000                     # 7106 "/Applications/microchip/xc8/v1.45/include/pic18f2550.h"
  1231                           BSR equ 0FE0h ;# 
  1232  0000                     # 7113 "/Applications/microchip/xc8/v1.45/include/pic18f2550.h"
  1233                           FSR1 equ 0FE1h ;# 
  1234  0000                     # 7120 "/Applications/microchip/xc8/v1.45/include/pic18f2550.h"
  1235                           FSR1L equ 0FE1h ;# 
  1236  0000                     # 7127 "/Applications/microchip/xc8/v1.45/include/pic18f2550.h"
  1237                           FSR1H equ 0FE2h ;# 
  1238  0000                     # 7134 "/Applications/microchip/xc8/v1.45/include/pic18f2550.h"
  1239                           PLUSW1 equ 0FE3h ;# 
  1240  0000                     # 7141 "/Applications/microchip/xc8/v1.45/include/pic18f2550.h"
  1241                           PREINC1 equ 0FE4h ;# 
  1242  0000                     # 7148 "/Applications/microchip/xc8/v1.45/include/pic18f2550.h"
  1243                           POSTDEC1 equ 0FE5h ;# 
  1244  0000                     # 7155 "/Applications/microchip/xc8/v1.45/include/pic18f2550.h"
  1245                           POSTINC1 equ 0FE6h ;# 
  1246  0000                     # 7162 "/Applications/microchip/xc8/v1.45/include/pic18f2550.h"
  1247                           INDF1 equ 0FE7h ;# 
  1248  0000                     # 7169 "/Applications/microchip/xc8/v1.45/include/pic18f2550.h"
  1249                           WREG equ 0FE8h ;# 
  1250  0000                     # 7176 "/Applications/microchip/xc8/v1.45/include/pic18f2550.h"
  1251                           FSR0 equ 0FE9h ;# 
  1252  0000                     # 7183 "/Applications/microchip/xc8/v1.45/include/pic18f2550.h"
  1253                           FSR0L equ 0FE9h ;# 
  1254  0000                     # 7190 "/Applications/microchip/xc8/v1.45/include/pic18f2550.h"
  1255                           FSR0H equ 0FEAh ;# 
  1256  0000                     # 7197 "/Applications/microchip/xc8/v1.45/include/pic18f2550.h"
  1257                           PLUSW0 equ 0FEBh ;# 
  1258  0000                     # 7204 "/Applications/microchip/xc8/v1.45/include/pic18f2550.h"
  1259                           PREINC0 equ 0FECh ;# 
  1260  0000                     # 7211 "/Applications/microchip/xc8/v1.45/include/pic18f2550.h"
  1261                           POSTDEC0 equ 0FEDh ;# 
  1262  0000                     # 7218 "/Applications/microchip/xc8/v1.45/include/pic18f2550.h"
  1263                           POSTINC0 equ 0FEEh ;# 
  1264  0000                     # 7225 "/Applications/microchip/xc8/v1.45/include/pic18f2550.h"
  1265                           INDF0 equ 0FEFh ;# 
  1266  0000                     # 7232 "/Applications/microchip/xc8/v1.45/include/pic18f2550.h"
  1267                           INTCON3 equ 0FF0h ;# 
  1268  0000                     # 7324 "/Applications/microchip/xc8/v1.45/include/pic18f2550.h"
  1269                           INTCON2 equ 0FF1h ;# 
  1270  0000                     # 7401 "/Applications/microchip/xc8/v1.45/include/pic18f2550.h"
  1271                           INTCON equ 0FF2h ;# 
  1272  0000                     # 7518 "/Applications/microchip/xc8/v1.45/include/pic18f2550.h"
  1273                           PROD equ 0FF3h ;# 
  1274  0000                     # 7525 "/Applications/microchip/xc8/v1.45/include/pic18f2550.h"
  1275                           PRODL equ 0FF3h ;# 
  1276  0000                     # 7532 "/Applications/microchip/xc8/v1.45/include/pic18f2550.h"
  1277                           PRODH equ 0FF4h ;# 
  1278  0000                     # 7539 "/Applications/microchip/xc8/v1.45/include/pic18f2550.h"
  1279                           TABLAT equ 0FF5h ;# 
  1280  0000                     # 7548 "/Applications/microchip/xc8/v1.45/include/pic18f2550.h"
  1281                           TBLPTR equ 0FF6h ;# 
  1282  0000                     # 7555 "/Applications/microchip/xc8/v1.45/include/pic18f2550.h"
  1283                           TBLPTRL equ 0FF6h ;# 
  1284  0000                     # 7562 "/Applications/microchip/xc8/v1.45/include/pic18f2550.h"
  1285                           TBLPTRH equ 0FF7h ;# 
  1286  0000                     # 7569 "/Applications/microchip/xc8/v1.45/include/pic18f2550.h"
  1287                           TBLPTRU equ 0FF8h ;# 
  1288  0000                     # 7578 "/Applications/microchip/xc8/v1.45/include/pic18f2550.h"
  1289                           PCLAT equ 0FF9h ;# 
  1290  0000                     # 7585 "/Applications/microchip/xc8/v1.45/include/pic18f2550.h"
  1291                           PC equ 0FF9h ;# 
  1292  0000                     # 7592 "/Applications/microchip/xc8/v1.45/include/pic18f2550.h"
  1293                           PCL equ 0FF9h ;# 
  1294  0000                     # 7599 "/Applications/microchip/xc8/v1.45/include/pic18f2550.h"
  1295                           PCLATH equ 0FFAh ;# 
  1296  0000                     # 7606 "/Applications/microchip/xc8/v1.45/include/pic18f2550.h"
  1297                           PCLATU equ 0FFBh ;# 
  1298  0000                     # 7613 "/Applications/microchip/xc8/v1.45/include/pic18f2550.h"
  1299                           STKPTR equ 0FFCh ;# 
  1300  0000                     # 7689 "/Applications/microchip/xc8/v1.45/include/pic18f2550.h"
  1301                           TOS equ 0FFDh ;# 
  1302  0000                     # 7696 "/Applications/microchip/xc8/v1.45/include/pic18f2550.h"
  1303                           TOSL equ 0FFDh ;# 
  1304  0000                     # 7703 "/Applications/microchip/xc8/v1.45/include/pic18f2550.h"
  1305                           TOSH equ 0FFEh ;# 
  1306  0000                     # 7710 "/Applications/microchip/xc8/v1.45/include/pic18f2550.h"
  1307                           TOSU equ 0FFFh ;# 
  1308  0000                     # 52 "/Applications/microchip/xc8/v1.45/include/pic18f2550.h"
  1309                           UFRM equ 0F66h ;# 
  1310  0000                     # 59 "/Applications/microchip/xc8/v1.45/include/pic18f2550.h"
  1311                           UFRML equ 0F66h ;# 
  1312  0000                     # 137 "/Applications/microchip/xc8/v1.45/include/pic18f2550.h"
  1313                           UFRMH equ 0F67h ;# 
  1314  0000                     # 177 "/Applications/microchip/xc8/v1.45/include/pic18f2550.h"
  1315                           UIR equ 0F68h ;# 
  1316  0000                     # 233 "/Applications/microchip/xc8/v1.45/include/pic18f2550.h"
  1317                           UIE equ 0F69h ;# 
  1318  0000                     # 289 "/Applications/microchip/xc8/v1.45/include/pic18f2550.h"
  1319                           UEIR equ 0F6Ah ;# 
  1320  0000                     # 340 "/Applications/microchip/xc8/v1.45/include/pic18f2550.h"
  1321                           UEIE equ 0F6Bh ;# 
  1322  0000                     # 391 "/Applications/microchip/xc8/v1.45/include/pic18f2550.h"
  1323                           USTAT equ 0F6Ch ;# 
  1324  0000                     # 451 "/Applications/microchip/xc8/v1.45/include/pic18f2550.h"
  1325                           UCON equ 0F6Dh ;# 
  1326  0000                     # 502 "/Applications/microchip/xc8/v1.45/include/pic18f2550.h"
  1327                           UADDR equ 0F6Eh ;# 
  1328  0000                     # 566 "/Applications/microchip/xc8/v1.45/include/pic18f2550.h"
  1329                           UCFG equ 0F6Fh ;# 
  1330  0000                     # 645 "/Applications/microchip/xc8/v1.45/include/pic18f2550.h"
  1331                           UEP0 equ 0F70h ;# 
  1332  0000                     # 753 "/Applications/microchip/xc8/v1.45/include/pic18f2550.h"
  1333                           UEP1 equ 0F71h ;# 
  1334  0000                     # 861 "/Applications/microchip/xc8/v1.45/include/pic18f2550.h"
  1335                           UEP2 equ 0F72h ;# 
  1336  0000                     # 969 "/Applications/microchip/xc8/v1.45/include/pic18f2550.h"
  1337                           UEP3 equ 0F73h ;# 
  1338  0000                     # 1077 "/Applications/microchip/xc8/v1.45/include/pic18f2550.h"
  1339                           UEP4 equ 0F74h ;# 
  1340  0000                     # 1185 "/Applications/microchip/xc8/v1.45/include/pic18f2550.h"
  1341                           UEP5 equ 0F75h ;# 
  1342  0000                     # 1293 "/Applications/microchip/xc8/v1.45/include/pic18f2550.h"
  1343                           UEP6 equ 0F76h ;# 
  1344  0000                     # 1401 "/Applications/microchip/xc8/v1.45/include/pic18f2550.h"
  1345                           UEP7 equ 0F77h ;# 
  1346  0000                     # 1509 "/Applications/microchip/xc8/v1.45/include/pic18f2550.h"
  1347                           UEP8 equ 0F78h ;# 
  1348  0000                     # 1585 "/Applications/microchip/xc8/v1.45/include/pic18f2550.h"
  1349                           UEP9 equ 0F79h ;# 
  1350  0000                     # 1661 "/Applications/microchip/xc8/v1.45/include/pic18f2550.h"
  1351                           UEP10 equ 0F7Ah ;# 
  1352  0000                     # 1737 "/Applications/microchip/xc8/v1.45/include/pic18f2550.h"
  1353                           UEP11 equ 0F7Bh ;# 
  1354  0000                     # 1813 "/Applications/microchip/xc8/v1.45/include/pic18f2550.h"
  1355                           UEP12 equ 0F7Ch ;# 
  1356  0000                     # 1889 "/Applications/microchip/xc8/v1.45/include/pic18f2550.h"
  1357                           UEP13 equ 0F7Dh ;# 
  1358  0000                     # 1965 "/Applications/microchip/xc8/v1.45/include/pic18f2550.h"
  1359                           UEP14 equ 0F7Eh ;# 
  1360  0000                     # 2041 "/Applications/microchip/xc8/v1.45/include/pic18f2550.h"
  1361                           UEP15 equ 0F7Fh ;# 
  1362  0000                     # 2117 "/Applications/microchip/xc8/v1.45/include/pic18f2550.h"
  1363                           PORTA equ 0F80h ;# 
  1364  0000                     # 2256 "/Applications/microchip/xc8/v1.45/include/pic18f2550.h"
  1365                           PORTB equ 0F81h ;# 
  1366  0000                     # 2366 "/Applications/microchip/xc8/v1.45/include/pic18f2550.h"
  1367                           PORTC equ 0F82h ;# 
  1368  0000                     # 2508 "/Applications/microchip/xc8/v1.45/include/pic18f2550.h"
  1369                           PORTE equ 0F84h ;# 
  1370  0000                     # 2547 "/Applications/microchip/xc8/v1.45/include/pic18f2550.h"
  1371                           LATA equ 0F89h ;# 
  1372  0000                     # 2647 "/Applications/microchip/xc8/v1.45/include/pic18f2550.h"
  1373                           LATB equ 0F8Ah ;# 
  1374  0000                     # 2759 "/Applications/microchip/xc8/v1.45/include/pic18f2550.h"
  1375                           LATC equ 0F8Bh ;# 
  1376  0000                     # 2837 "/Applications/microchip/xc8/v1.45/include/pic18f2550.h"
  1377                           TRISA equ 0F92h ;# 
  1378  0000                     # 2842 "/Applications/microchip/xc8/v1.45/include/pic18f2550.h"
  1379                           DDRA equ 0F92h ;# 
  1380  0000                     # 3035 "/Applications/microchip/xc8/v1.45/include/pic18f2550.h"
  1381                           TRISB equ 0F93h ;# 
  1382  0000                     # 3040 "/Applications/microchip/xc8/v1.45/include/pic18f2550.h"
  1383                           DDRB equ 0F93h ;# 
  1384  0000                     # 3257 "/Applications/microchip/xc8/v1.45/include/pic18f2550.h"
  1385                           TRISC equ 0F94h ;# 
  1386  0000                     # 3262 "/Applications/microchip/xc8/v1.45/include/pic18f2550.h"
  1387                           DDRC equ 0F94h ;# 
  1388  0000                     # 3411 "/Applications/microchip/xc8/v1.45/include/pic18f2550.h"
  1389                           OSCTUNE equ 0F9Bh ;# 
  1390  0000                     # 3470 "/Applications/microchip/xc8/v1.45/include/pic18f2550.h"
  1391                           PIE1 equ 0F9Dh ;# 
  1392  0000                     # 3541 "/Applications/microchip/xc8/v1.45/include/pic18f2550.h"
  1393                           PIR1 equ 0F9Eh ;# 
  1394  0000                     # 3612 "/Applications/microchip/xc8/v1.45/include/pic18f2550.h"
  1395                           IPR1 equ 0F9Fh ;# 
  1396  0000                     # 3683 "/Applications/microchip/xc8/v1.45/include/pic18f2550.h"
  1397                           PIE2 equ 0FA0h ;# 
  1398  0000                     # 3754 "/Applications/microchip/xc8/v1.45/include/pic18f2550.h"
  1399                           PIR2 equ 0FA1h ;# 
  1400  0000                     # 3825 "/Applications/microchip/xc8/v1.45/include/pic18f2550.h"
  1401                           IPR2 equ 0FA2h ;# 
  1402  0000                     # 3896 "/Applications/microchip/xc8/v1.45/include/pic18f2550.h"
  1403                           EECON1 equ 0FA6h ;# 
  1404  0000                     # 3962 "/Applications/microchip/xc8/v1.45/include/pic18f2550.h"
  1405                           EECON2 equ 0FA7h ;# 
  1406  0000                     # 3969 "/Applications/microchip/xc8/v1.45/include/pic18f2550.h"
  1407                           EEDATA equ 0FA8h ;# 
  1408  0000                     # 3976 "/Applications/microchip/xc8/v1.45/include/pic18f2550.h"
  1409                           EEADR equ 0FA9h ;# 
  1410  0000                     # 3983 "/Applications/microchip/xc8/v1.45/include/pic18f2550.h"
  1411                           RCSTA equ 0FABh ;# 
  1412  0000                     # 3988 "/Applications/microchip/xc8/v1.45/include/pic18f2550.h"
  1413                           RCSTA1 equ 0FABh ;# 
  1414  0000                     # 4193 "/Applications/microchip/xc8/v1.45/include/pic18f2550.h"
  1415                           TXSTA equ 0FACh ;# 
  1416  0000                     # 4198 "/Applications/microchip/xc8/v1.45/include/pic18f2550.h"
  1417                           TXSTA1 equ 0FACh ;# 
  1418  0000                     # 4449 "/Applications/microchip/xc8/v1.45/include/pic18f2550.h"
  1419                           TXREG equ 0FADh ;# 
  1420  0000                     # 4454 "/Applications/microchip/xc8/v1.45/include/pic18f2550.h"
  1421                           TXREG1 equ 0FADh ;# 
  1422  0000                     # 4461 "/Applications/microchip/xc8/v1.45/include/pic18f2550.h"
  1423                           RCREG equ 0FAEh ;# 
  1424  0000                     # 4466 "/Applications/microchip/xc8/v1.45/include/pic18f2550.h"
  1425                           RCREG1 equ 0FAEh ;# 
  1426  0000                     # 4473 "/Applications/microchip/xc8/v1.45/include/pic18f2550.h"
  1427                           SPBRG equ 0FAFh ;# 
  1428  0000                     # 4478 "/Applications/microchip/xc8/v1.45/include/pic18f2550.h"
  1429                           SPBRG1 equ 0FAFh ;# 
  1430  0000                     # 4485 "/Applications/microchip/xc8/v1.45/include/pic18f2550.h"
  1431                           SPBRGH equ 0FB0h ;# 
  1432  0000                     # 4492 "/Applications/microchip/xc8/v1.45/include/pic18f2550.h"
  1433                           T3CON equ 0FB1h ;# 
  1434  0000                     # 4613 "/Applications/microchip/xc8/v1.45/include/pic18f2550.h"
  1435                           TMR3 equ 0FB2h ;# 
  1436  0000                     # 4620 "/Applications/microchip/xc8/v1.45/include/pic18f2550.h"
  1437                           TMR3L equ 0FB2h ;# 
  1438  0000                     # 4627 "/Applications/microchip/xc8/v1.45/include/pic18f2550.h"
  1439                           TMR3H equ 0FB3h ;# 
  1440  0000                     # 4634 "/Applications/microchip/xc8/v1.45/include/pic18f2550.h"
  1441                           CMCON equ 0FB4h ;# 
  1442  0000                     # 4724 "/Applications/microchip/xc8/v1.45/include/pic18f2550.h"
  1443                           CVRCON equ 0FB5h ;# 
  1444  0000                     # 4809 "/Applications/microchip/xc8/v1.45/include/pic18f2550.h"
  1445                           ECCP1AS equ 0FB6h ;# 
  1446  0000                     # 4814 "/Applications/microchip/xc8/v1.45/include/pic18f2550.h"
  1447                           CCP1AS equ 0FB6h ;# 
  1448  0000                     # 4939 "/Applications/microchip/xc8/v1.45/include/pic18f2550.h"
  1449                           ECCP1DEL equ 0FB7h ;# 
  1450  0000                     # 4944 "/Applications/microchip/xc8/v1.45/include/pic18f2550.h"
  1451                           CCP1DEL equ 0FB7h ;# 
  1452  0000                     # 4979 "/Applications/microchip/xc8/v1.45/include/pic18f2550.h"
  1453                           BAUDCON equ 0FB8h ;# 
  1454  0000                     # 4984 "/Applications/microchip/xc8/v1.45/include/pic18f2550.h"
  1455                           BAUDCTL equ 0FB8h ;# 
  1456  0000                     # 5159 "/Applications/microchip/xc8/v1.45/include/pic18f2550.h"
  1457                           CCP2CON equ 0FBAh ;# 
  1458  0000                     # 5223 "/Applications/microchip/xc8/v1.45/include/pic18f2550.h"
  1459                           CCPR2 equ 0FBBh ;# 
  1460  0000                     # 5230 "/Applications/microchip/xc8/v1.45/include/pic18f2550.h"
  1461                           CCPR2L equ 0FBBh ;# 
  1462  0000                     # 5237 "/Applications/microchip/xc8/v1.45/include/pic18f2550.h"
  1463                           CCPR2H equ 0FBCh ;# 
  1464  0000                     # 5244 "/Applications/microchip/xc8/v1.45/include/pic18f2550.h"
  1465                           CCP1CON equ 0FBDh ;# 
  1466  0000                     # 5308 "/Applications/microchip/xc8/v1.45/include/pic18f2550.h"
  1467                           CCPR1 equ 0FBEh ;# 
  1468  0000                     # 5315 "/Applications/microchip/xc8/v1.45/include/pic18f2550.h"
  1469                           CCPR1L equ 0FBEh ;# 
  1470  0000                     # 5322 "/Applications/microchip/xc8/v1.45/include/pic18f2550.h"
  1471                           CCPR1H equ 0FBFh ;# 
  1472  0000                     # 5329 "/Applications/microchip/xc8/v1.45/include/pic18f2550.h"
  1473                           ADCON2 equ 0FC0h ;# 
  1474  0000                     # 5400 "/Applications/microchip/xc8/v1.45/include/pic18f2550.h"
  1475                           ADCON1 equ 0FC1h ;# 
  1476  0000                     # 5485 "/Applications/microchip/xc8/v1.45/include/pic18f2550.h"
  1477                           ADCON0 equ 0FC2h ;# 
  1478  0000                     # 5604 "/Applications/microchip/xc8/v1.45/include/pic18f2550.h"
  1479                           ADRES equ 0FC3h ;# 
  1480  0000                     # 5611 "/Applications/microchip/xc8/v1.45/include/pic18f2550.h"
  1481                           ADRESL equ 0FC3h ;# 
  1482  0000                     # 5618 "/Applications/microchip/xc8/v1.45/include/pic18f2550.h"
  1483                           ADRESH equ 0FC4h ;# 
  1484  0000                     # 5625 "/Applications/microchip/xc8/v1.45/include/pic18f2550.h"
  1485                           SSPCON2 equ 0FC5h ;# 
  1486  0000                     # 5687 "/Applications/microchip/xc8/v1.45/include/pic18f2550.h"
  1487                           SSPCON1 equ 0FC6h ;# 
  1488  0000                     # 5757 "/Applications/microchip/xc8/v1.45/include/pic18f2550.h"
  1489                           SSPSTAT equ 0FC7h ;# 
  1490  0000                     # 6005 "/Applications/microchip/xc8/v1.45/include/pic18f2550.h"
  1491                           SSPADD equ 0FC8h ;# 
  1492  0000                     # 6012 "/Applications/microchip/xc8/v1.45/include/pic18f2550.h"
  1493                           SSPBUF equ 0FC9h ;# 
  1494  0000                     # 6019 "/Applications/microchip/xc8/v1.45/include/pic18f2550.h"
  1495                           T2CON equ 0FCAh ;# 
  1496  0000                     # 6117 "/Applications/microchip/xc8/v1.45/include/pic18f2550.h"
  1497                           PR2 equ 0FCBh ;# 
  1498  0000                     # 6122 "/Applications/microchip/xc8/v1.45/include/pic18f2550.h"
  1499                           MEMCON equ 0FCBh ;# 
  1500  0000                     # 6227 "/Applications/microchip/xc8/v1.45/include/pic18f2550.h"
  1501                           TMR2 equ 0FCCh ;# 
  1502  0000                     # 6234 "/Applications/microchip/xc8/v1.45/include/pic18f2550.h"
  1503                           T1CON equ 0FCDh ;# 
  1504  0000                     # 6337 "/Applications/microchip/xc8/v1.45/include/pic18f2550.h"
  1505                           TMR1 equ 0FCEh ;# 
  1506  0000                     # 6344 "/Applications/microchip/xc8/v1.45/include/pic18f2550.h"
  1507                           TMR1L equ 0FCEh ;# 
  1508  0000                     # 6351 "/Applications/microchip/xc8/v1.45/include/pic18f2550.h"
  1509                           TMR1H equ 0FCFh ;# 
  1510  0000                     # 6358 "/Applications/microchip/xc8/v1.45/include/pic18f2550.h"
  1511                           RCON equ 0FD0h ;# 
  1512  0000                     # 6507 "/Applications/microchip/xc8/v1.45/include/pic18f2550.h"
  1513                           WDTCON equ 0FD1h ;# 
  1514  0000                     # 6535 "/Applications/microchip/xc8/v1.45/include/pic18f2550.h"
  1515                           HLVDCON equ 0FD2h ;# 
  1516  0000                     # 6540 "/Applications/microchip/xc8/v1.45/include/pic18f2550.h"
  1517                           LVDCON equ 0FD2h ;# 
  1518  0000                     # 6805 "/Applications/microchip/xc8/v1.45/include/pic18f2550.h"
  1519                           OSCCON equ 0FD3h ;# 
  1520  0000                     # 6888 "/Applications/microchip/xc8/v1.45/include/pic18f2550.h"
  1521                           T0CON equ 0FD5h ;# 
  1522  0000                     # 6958 "/Applications/microchip/xc8/v1.45/include/pic18f2550.h"
  1523                           TMR0 equ 0FD6h ;# 
  1524  0000                     # 6965 "/Applications/microchip/xc8/v1.45/include/pic18f2550.h"
  1525                           TMR0L equ 0FD6h ;# 
  1526  0000                     # 6972 "/Applications/microchip/xc8/v1.45/include/pic18f2550.h"
  1527                           TMR0H equ 0FD7h ;# 
  1528  0000                     # 6979 "/Applications/microchip/xc8/v1.45/include/pic18f2550.h"
  1529                           STATUS equ 0FD8h ;# 
  1530  0000                     # 7050 "/Applications/microchip/xc8/v1.45/include/pic18f2550.h"
  1531                           FSR2 equ 0FD9h ;# 
  1532  0000                     # 7057 "/Applications/microchip/xc8/v1.45/include/pic18f2550.h"
  1533                           FSR2L equ 0FD9h ;# 
  1534  0000                     # 7064 "/Applications/microchip/xc8/v1.45/include/pic18f2550.h"
  1535                           FSR2H equ 0FDAh ;# 
  1536  0000                     # 7071 "/Applications/microchip/xc8/v1.45/include/pic18f2550.h"
  1537                           PLUSW2 equ 0FDBh ;# 
  1538  0000                     # 7078 "/Applications/microchip/xc8/v1.45/include/pic18f2550.h"
  1539                           PREINC2 equ 0FDCh ;# 
  1540  0000                     # 7085 "/Applications/microchip/xc8/v1.45/include/pic18f2550.h"
  1541                           POSTDEC2 equ 0FDDh ;# 
  1542  0000                     # 7092 "/Applications/microchip/xc8/v1.45/include/pic18f2550.h"
  1543                           POSTINC2 equ 0FDEh ;# 
  1544  0000                     # 7099 "/Applications/microchip/xc8/v1.45/include/pic18f2550.h"
  1545                           INDF2 equ 0FDFh ;# 
  1546  0000                     # 7106 "/Applications/microchip/xc8/v1.45/include/pic18f2550.h"
  1547                           BSR equ 0FE0h ;# 
  1548  0000                     # 7113 "/Applications/microchip/xc8/v1.45/include/pic18f2550.h"
  1549                           FSR1 equ 0FE1h ;# 
  1550  0000                     # 7120 "/Applications/microchip/xc8/v1.45/include/pic18f2550.h"
  1551                           FSR1L equ 0FE1h ;# 
  1552  0000                     # 7127 "/Applications/microchip/xc8/v1.45/include/pic18f2550.h"
  1553                           FSR1H equ 0FE2h ;# 
  1554  0000                     # 7134 "/Applications/microchip/xc8/v1.45/include/pic18f2550.h"
  1555                           PLUSW1 equ 0FE3h ;# 
  1556  0000                     # 7141 "/Applications/microchip/xc8/v1.45/include/pic18f2550.h"
  1557                           PREINC1 equ 0FE4h ;# 
  1558  0000                     # 7148 "/Applications/microchip/xc8/v1.45/include/pic18f2550.h"
  1559                           POSTDEC1 equ 0FE5h ;# 
  1560  0000                     # 7155 "/Applications/microchip/xc8/v1.45/include/pic18f2550.h"
  1561                           POSTINC1 equ 0FE6h ;# 
  1562  0000                     # 7162 "/Applications/microchip/xc8/v1.45/include/pic18f2550.h"
  1563                           INDF1 equ 0FE7h ;# 
  1564  0000                     # 7169 "/Applications/microchip/xc8/v1.45/include/pic18f2550.h"
  1565                           WREG equ 0FE8h ;# 
  1566  0000                     # 7176 "/Applications/microchip/xc8/v1.45/include/pic18f2550.h"
  1567                           FSR0 equ 0FE9h ;# 
  1568  0000                     # 7183 "/Applications/microchip/xc8/v1.45/include/pic18f2550.h"
  1569                           FSR0L equ 0FE9h ;# 
  1570  0000                     # 7190 "/Applications/microchip/xc8/v1.45/include/pic18f2550.h"
  1571                           FSR0H equ 0FEAh ;# 
  1572  0000                     # 7197 "/Applications/microchip/xc8/v1.45/include/pic18f2550.h"
  1573                           PLUSW0 equ 0FEBh ;# 
  1574  0000                     # 7204 "/Applications/microchip/xc8/v1.45/include/pic18f2550.h"
  1575                           PREINC0 equ 0FECh ;# 
  1576  0000                     # 7211 "/Applications/microchip/xc8/v1.45/include/pic18f2550.h"
  1577                           POSTDEC0 equ 0FEDh ;# 
  1578  0000                     # 7218 "/Applications/microchip/xc8/v1.45/include/pic18f2550.h"
  1579                           POSTINC0 equ 0FEEh ;# 
  1580  0000                     # 7225 "/Applications/microchip/xc8/v1.45/include/pic18f2550.h"
  1581                           INDF0 equ 0FEFh ;# 
  1582  0000                     # 7232 "/Applications/microchip/xc8/v1.45/include/pic18f2550.h"
  1583                           INTCON3 equ 0FF0h ;# 
  1584  0000                     # 7324 "/Applications/microchip/xc8/v1.45/include/pic18f2550.h"
  1585                           INTCON2 equ 0FF1h ;# 
  1586  0000                     # 7401 "/Applications/microchip/xc8/v1.45/include/pic18f2550.h"
  1587                           INTCON equ 0FF2h ;# 
  1588  0000                     # 7518 "/Applications/microchip/xc8/v1.45/include/pic18f2550.h"
  1589                           PROD equ 0FF3h ;# 
  1590  0000                     # 7525 "/Applications/microchip/xc8/v1.45/include/pic18f2550.h"
  1591                           PRODL equ 0FF3h ;# 
  1592  0000                     # 7532 "/Applications/microchip/xc8/v1.45/include/pic18f2550.h"
  1593                           PRODH equ 0FF4h ;# 
  1594  0000                     # 7539 "/Applications/microchip/xc8/v1.45/include/pic18f2550.h"
  1595                           TABLAT equ 0FF5h ;# 
  1596  0000                     # 7548 "/Applications/microchip/xc8/v1.45/include/pic18f2550.h"
  1597                           TBLPTR equ 0FF6h ;# 
  1598  0000                     # 7555 "/Applications/microchip/xc8/v1.45/include/pic18f2550.h"
  1599                           TBLPTRL equ 0FF6h ;# 
  1600  0000                     # 7562 "/Applications/microchip/xc8/v1.45/include/pic18f2550.h"
  1601                           TBLPTRH equ 0FF7h ;# 
  1602  0000                     # 7569 "/Applications/microchip/xc8/v1.45/include/pic18f2550.h"
  1603                           TBLPTRU equ 0FF8h ;# 
  1604  0000                     # 7578 "/Applications/microchip/xc8/v1.45/include/pic18f2550.h"
  1605                           PCLAT equ 0FF9h ;# 
  1606  0000                     # 7585 "/Applications/microchip/xc8/v1.45/include/pic18f2550.h"
  1607                           PC equ 0FF9h ;# 
  1608  0000                     # 7592 "/Applications/microchip/xc8/v1.45/include/pic18f2550.h"
  1609                           PCL equ 0FF9h ;# 
  1610  0000                     # 7599 "/Applications/microchip/xc8/v1.45/include/pic18f2550.h"
  1611                           PCLATH equ 0FFAh ;# 
  1612  0000                     # 7606 "/Applications/microchip/xc8/v1.45/include/pic18f2550.h"
  1613                           PCLATU equ 0FFBh ;# 
  1614  0000                     # 7613 "/Applications/microchip/xc8/v1.45/include/pic18f2550.h"
  1615                           STKPTR equ 0FFCh ;# 
  1616  0000                     # 7689 "/Applications/microchip/xc8/v1.45/include/pic18f2550.h"
  1617                           TOS equ 0FFDh ;# 
  1618  0000                     # 7696 "/Applications/microchip/xc8/v1.45/include/pic18f2550.h"
  1619                           TOSL equ 0FFDh ;# 
  1620  0000                     # 7703 "/Applications/microchip/xc8/v1.45/include/pic18f2550.h"
  1621                           TOSH equ 0FFEh ;# 
  1622  0000                     # 7710 "/Applications/microchip/xc8/v1.45/include/pic18f2550.h"
  1623                           TOSU equ 0FFFh ;# 
  1624  0000                     	FNCALL	_main,_BT_load_string
  1625                           	FNCALL	_main,_ConfigureOscillator
  1626                           	FNCALL	_main,_InitApp
  1627                           	FNCALL	_main,___fladd
  1628                           	FNCALL	_main,___fldiv
  1629                           	FNCALL	_main,___flmul
  1630                           	FNCALL	_main,___flneg
  1631                           	FNCALL	_main,___fltol
  1632                           	FNCALL	_main,___xxtofl
  1633                           	FNCALL	_main,_atof
  1634                           	FNCALL	_main,_atoi
  1635                           	FNCALL	_main,_sprintf
  1636                           	FNCALL	_sprintf,___lwdiv
  1637                           	FNCALL	_sprintf,___lwmod
  1638                           	FNCALL	_atoi,___wmul
  1639                           	FNCALL	_atoi,_isdigit
  1640                           	FNCALL	_atof,_strtod
  1641                           	FNCALL	_strtod,___fldiv
  1642                           	FNCALL	_strtod,___flge
  1643                           	FNCALL	_strtod,___flmul
  1644                           	FNCALL	_strtod,___flneg
  1645                           	FNCALL	_strtod,___lmul
  1646                           	FNCALL	_strtod,___xxtofl
  1647                           	FNCALL	_strtod,_isdigit
  1648                           	FNCALL	_strtod,_isspace
  1649                           	FNCALL	_BT_load_string,_BT_load_char
  1650                           	FNROOT	_main
  1651                           	FNCALL	intlevel1,_low_isr
  1652                           	global	intlevel1
  1653                           	FNROOT	intlevel1
  1654                           	FNCALL	intlevel2,_high_isr
  1655                           	global	intlevel2
  1656                           	FNROOT	intlevel2
  1657                           	global	_kp
  1658                           	global	_refSpeed
  1659                           psect	idataBANK0,class=CODE,space=0,delta=1,noexec
  1660                           global __pidataBANK0
  1661                           __pidataBANK0:
  1662  002F14                     	file	"main.c"
  1663                           	line	32
  1664                           
  1665                           ;initializer for _kp
  1666                           	dw	(normalize32(12.000000000000000) & 0ffffh)
  1667  002F14  0000               	dw	highword (normalize32(12.000000000000000))
  1668  002F16  4140               	line	36
  1669                           
  1670                           ;initializer for _refSpeed
  1671                           	dw	(0E10h)&0ffffh
  1672  002F18  0E10               	global	_dpowers
  1673                           psect	smallconst,class=SMALLCONST,space=0,reloc=2,noexec
  1674                           global __psmallconst
  1675                           __psmallconst:
  1676  000800                     	db	0
  1677  000800  00                 	file	"/Applications/microchip/xc8/v1.45/sources/common/doprnt.c"
  1678                           	line	354
  1679                           _dpowers:
  1680  000801                     	dw	(01h)&0ffffh
  1681  000801  0001               	dw	(0Ah)&0ffffh
  1682  000803  000A               	dw	(064h)&0ffffh
  1683  000805  0064               	dw	(03E8h)&0ffffh
  1684  000807  03E8               	dw	(02710h)&0ffffh
  1685  000809  2710               	global __end_of_dpowers
  1686                           __end_of_dpowers:
  1687  00080B                     	global	_dpowers
  1688                           	global	_Buffer
  1689                           	global	_i
  1690                           	global	_errorv
  1691                           	global	_errora
  1692                           	global	_kd
  1693                           	global	_ki
  1694                           	global	_plus
  1695                           	global	_currentSpeed
  1696                           	global	_read
  1697                           	global	_limit
  1698                           	global	_count
  1699                           	global	_timer
  1700                           	global	_count2
  1701                           	global	main@F3644
  1702                           	global	_send
  1703                           	global	_TXREG
  1704                           _TXREG	set	0xFAD
  1705  0000                     	global	_IPR1bits
  1706                           _IPR1bits	set	0xF9F
  1707  0000                     	global	_PIE1bits
  1708                           _PIE1bits	set	0xF9D
  1709  0000                     	global	_INTCON2bits
  1710                           _INTCON2bits	set	0xFF1
  1711  0000                     	global	_RCONbits
  1712                           _RCONbits	set	0xFD0
  1713  0000                     	global	_SPBRG
  1714                           _SPBRG	set	0xFAF
  1715  0000                     	global	_TXSTAbits
  1716                           _TXSTAbits	set	0xFAC
  1717  0000                     	global	_RCSTA1bits
  1718                           _RCSTA1bits	set	0xFAB
  1719  0000                     	global	_CCP2CONbits
  1720                           _CCP2CONbits	set	0xFBA
  1721  0000                     	global	_PR2
  1722                           _PR2	set	0xFCB
  1723  0000                     	global	_T2CONbits
  1724                           _T2CONbits	set	0xFCA
  1725  0000                     	global	_T0CONbits
  1726                           _T0CONbits	set	0xFD5
  1727  0000                     	global	_TRISCbits
  1728                           _TRISCbits	set	0xF94
  1729  0000                     	global	_TRISB
  1730                           _TRISB	set	0xF93
  1731  0000                     	global	_TRISA
  1732                           _TRISA	set	0xF92
  1733  0000                     	global	_ADCON1bits
  1734                           _ADCON1bits	set	0xFC1
  1735  0000                     	global	_LATC
  1736                           _LATC	set	0xF8B
  1737  0000                     	global	_LATB
  1738                           _LATB	set	0xF8A
  1739  0000                     	global	_LATA
  1740                           _LATA	set	0xF89
  1741  0000                     	global	_PORTC
  1742                           _PORTC	set	0xF82
  1743  0000                     	global	_PORTB
  1744                           _PORTB	set	0xF81
  1745  0000                     	global	_PORTA
  1746                           _PORTA	set	0xF80
  1747  0000                     	global	_OSCCONbits
  1748                           _OSCCONbits	set	0xFD3
  1749  0000                     	global	_CCPR2L
  1750                           _CCPR2L	set	0xFBB
  1751  0000                     	global	_RCREG
  1752                           _RCREG	set	0xFAE
  1753  0000                     	global	_PIR1bits
  1754                           _PIR1bits	set	0xF9E
  1755  0000                     	global	_INTCONbits
  1756                           _INTCONbits	set	0xFF2
  1757  0000                     	global	_TMR2
  1758                           _TMR2	set	0xFCC
  1759  0000                     	global	_INTCON3bits
  1760                           _INTCON3bits	set	0xFF0
  1761  0000                     	global	_TRMT
  1762                           _TRMT	set	0x7D61
  1763  0000                     	global	_TXIF
  1764                           _TXIF	set	0x7CF4
  1765  0000                     	
  1766                           STR_1:
  1767  00080B                     	db	35
  1768  00080B  23                 	db	37
  1769  00080C  25                 	db	100	;'d'
  1770  00080D  64                 	db	0
  1771  00080E  00                 ; #config settings
  1772                           global __CFG_PLLDIV$1
  1773                           __CFG_PLLDIV$1 equ 0x0
  1774  0000                     global __CFG_CPUDIV$OSC1_PLL2
  1775                           __CFG_CPUDIV$OSC1_PLL2 equ 0x0
  1776  0000                     global __CFG_USBDIV$1
  1777                           __CFG_USBDIV$1 equ 0x0
  1778  0000                     global __CFG_FOSC$INTOSC_EC
  1779                           __CFG_FOSC$INTOSC_EC equ 0x0
  1780  0000                     global __CFG_FCMEN$OFF
  1781                           __CFG_FCMEN$OFF equ 0x0
  1782  0000                     global __CFG_IESO$OFF
  1783                           __CFG_IESO$OFF equ 0x0
  1784  0000                     global __CFG_PWRT$OFF
  1785                           __CFG_PWRT$OFF equ 0x0
  1786  0000                     global __CFG_BOR$OFF
  1787                           __CFG_BOR$OFF equ 0x0
  1788  0000                     global __CFG_BORV$3
  1789                           __CFG_BORV$3 equ 0x0
  1790  0000                     global __CFG_VREGEN$OFF
  1791                           __CFG_VREGEN$OFF equ 0x0
  1792  0000                     global __CFG_WDT$OFF
  1793                           __CFG_WDT$OFF equ 0x0
  1794  0000                     global __CFG_WDTPS$32768
  1795                           __CFG_WDTPS$32768 equ 0x0
  1796  0000                     global __CFG_CCP2MX$OFF
  1797                           __CFG_CCP2MX$OFF equ 0x0
  1798  0000                     global __CFG_PBADEN$OFF
  1799                           __CFG_PBADEN$OFF equ 0x0
  1800  0000                     global __CFG_LPT1OSC$OFF
  1801                           __CFG_LPT1OSC$OFF equ 0x0
  1802  0000                     global __CFG_MCLRE$ON
  1803                           __CFG_MCLRE$ON equ 0x0
  1804  0000                     global __CFG_STVREN$OFF
  1805                           __CFG_STVREN$OFF equ 0x0
  1806  0000                     global __CFG_LVP$OFF
  1807                           __CFG_LVP$OFF equ 0x0
  1808  0000                     global __CFG_XINST$OFF
  1809                           __CFG_XINST$OFF equ 0x0
  1810  0000                     global __CFG_CP0$OFF
  1811                           __CFG_CP0$OFF equ 0x0
  1812  0000                     global __CFG_CP1$OFF
  1813                           __CFG_CP1$OFF equ 0x0
  1814  0000                     global __CFG_CP2$OFF
  1815                           __CFG_CP2$OFF equ 0x0
  1816  0000                     global __CFG_CP3$OFF
  1817                           __CFG_CP3$OFF equ 0x0
  1818  0000                     global __CFG_CPB$OFF
  1819                           __CFG_CPB$OFF equ 0x0
  1820  0000                     global __CFG_CPD$OFF
  1821                           __CFG_CPD$OFF equ 0x0
  1822  0000                     global __CFG_WRT0$OFF
  1823                           __CFG_WRT0$OFF equ 0x0
  1824  0000                     global __CFG_WRT1$OFF
  1825                           __CFG_WRT1$OFF equ 0x0
  1826  0000                     global __CFG_WRT2$OFF
  1827                           __CFG_WRT2$OFF equ 0x0
  1828  0000                     global __CFG_WRT3$OFF
  1829                           __CFG_WRT3$OFF equ 0x0
  1830  0000                     global __CFG_WRTC$OFF
  1831                           __CFG_WRTC$OFF equ 0x0
  1832  0000                     global __CFG_WRTB$OFF
  1833                           __CFG_WRTB$OFF equ 0x0
  1834  0000                     global __CFG_WRTD$OFF
  1835                           __CFG_WRTD$OFF equ 0x0
  1836  0000                     global __CFG_EBTR0$OFF
  1837                           __CFG_EBTR0$OFF equ 0x0
  1838  0000                     global __CFG_EBTR1$OFF
  1839                           __CFG_EBTR1$OFF equ 0x0
  1840  0000                     global __CFG_EBTR2$OFF
  1841                           __CFG_EBTR2$OFF equ 0x0
  1842  0000                     global __CFG_EBTR3$OFF
  1843                           __CFG_EBTR3$OFF equ 0x0
  1844  0000                     global __CFG_EBTRB$OFF
  1845                           __CFG_EBTRB$OFF equ 0x0
  1846  0000                     	file	"/tmp/xcLBuUQxr"
  1847                           	line	#
  1848                           psect	cinit,class=CODE,delta=1,reloc=2
  1849                           global __pcinit
  1850                           __pcinit:
  1851  002D68                     global start_initialization
  1852                           start_initialization:
  1853  002D68                     
  1854                           global __initialization
  1855                           __initialization:
  1856  002D68                     psect	bssCOMRAM,class=COMRAM,space=1,noexec
  1857                           global __pbssCOMRAM
  1858                           __pbssCOMRAM:
  1859  000029                     	global	_Buffer
  1860                           _Buffer:
  1861  000029                            ds      20
  1862  000029                     	global	_i
  1863                           _i:
  1864  00003D                            ds      2
  1865  00003D                     psect	bssBANK0,class=BANK0,space=1,noexec,lowdata
  1866                           global __pbssBANK0
  1867                           __pbssBANK0:
  1868  0000BE                     	global	_errorv
  1869                           _errorv:
  1870  0000BE                            ds      4
  1871  0000BE                     	global	_errora
  1872                           _errora:
  1873  0000C2                            ds      4
  1874  0000C2                     	global	_kd
  1875                           _kd:
  1876  0000C6                            ds      4
  1877  0000C6                     	global	_ki
  1878                           _ki:
  1879  0000CA                            ds      4
  1880  0000CA                     	global	_plus
  1881                           _plus:
  1882  0000CE                            ds      2
  1883  0000CE                     	global	_currentSpeed
  1884                           _currentSpeed:
  1885  0000D0                            ds      2
  1886  0000D0                     	global	_read
  1887                           _read:
  1888  0000D2                            ds      2
  1889  0000D2                     	global	_limit
  1890                           _limit:
  1891  0000D4                            ds      2
  1892  0000D4                     	global	_count
  1893                           _count:
  1894  0000D6                            ds      2
  1895  0000D6                     	global	_timer
  1896                           _timer:
  1897  0000D8                            ds      2
  1898  0000D8                     	global	_count2
  1899                           _count2:
  1900  0000DA                            ds      2
  1901  0000DA                     psect	dataBANK0,class=BANK0,space=1,noexec,lowdata
  1902                           global __pdataBANK0
  1903                           __pdataBANK0:
  1904  0000DC                     	file	"main.c"
  1905                           	line	32
  1906                           	global	_kp
  1907                           _kp:
  1908  0000DC                            ds      4
  1909  0000DC                     psect	dataBANK0
  1910                           	file	"main.c"
  1911                           	line	36
  1912                           	global	_refSpeed
  1913                           _refSpeed:
  1914  0000E0                            ds      2
  1915  0000E0                     psect	bssBANK1,class=BANK1,space=1,noexec,lowdata
  1916                           global __pbssBANK1
  1917                           __pbssBANK1:
  1918  000100                     main@F3644:
  1919  000100                            ds      20
  1920  000100                     	global	_send
  1921                           _send:
  1922  000114                            ds      20
  1923  000114                     	file	"/tmp/xcLBuUQxr"
  1924                           	line	#
  1925                           psect	cinit
  1926                           ; Initialize objects allocated to BANK0 (6 bytes)
  1927                           	global __pidataBANK0
  1928                           	; load TBLPTR registers with __pidataBANK0
  1929                           	movlw	low (__pidataBANK0)
  1930  002D68  0E14               	movwf	tblptrl
  1931  002D6A  6EF6               	movlw	high(__pidataBANK0)
  1932  002D6C  0E2F               	movwf	tblptrh
  1933  002D6E  6EF7               	movlw	low highword(__pidataBANK0)
  1934  002D70  0E00               	movwf	tblptru
  1935  002D72  6EF8               	lfsr	0,__pdataBANK0
  1936  002D74  EE00  F0DC         	lfsr	1,6
  1937  002D78  EE10 F006          	copy_data0:
  1938  002D7C                     	tblrd	*+
  1939  002D7C  0009               	movff	tablat, postinc0
  1940  002D7E  CFF5 FFEE          	movf	postdec1,w
  1941  002D82  50E5               	movf	fsr1l,w
  1942  002D84  50E1               	bnz	copy_data0
  1943  002D86  E1FA               	line	#
  1944                           ; Clear objects allocated to BANK1 (40 bytes)
  1945                           	global __pbssBANK1
  1946                           lfsr	0,__pbssBANK1
  1947  002D88  EE01  F000         movlw	40
  1948  002D8C  0E28               clear_0:
  1949  002D8E                     clrf	postinc0,c
  1950  002D8E  6AEE               decf	wreg
  1951  002D90  06E8               bnz	clear_0
  1952  002D92  E1FD               ; Clear objects allocated to BANK0 (30 bytes)
  1953                           	global __pbssBANK0
  1954                           lfsr	0,__pbssBANK0
  1955  002D94  EE00  F0BE         movlw	30
  1956  002D98  0E1E               clear_1:
  1957  002D9A                     clrf	postinc0,c
  1958  002D9A  6AEE               decf	wreg
  1959  002D9C  06E8               bnz	clear_1
  1960  002D9E  E1FD               ; Clear objects allocated to COMRAM (22 bytes)
  1961                           	global __pbssCOMRAM
  1962                           lfsr	0,__pbssCOMRAM
  1963  002DA0  EE00  F029         movlw	22
  1964  002DA4  0E16               clear_2:
  1965  002DA6                     clrf	postinc0,c
  1966  002DA6  6AEE               decf	wreg
  1967  002DA8  06E8               bnz	clear_2
  1968  002DAA  E1FD               psect cinit,class=CODE,delta=1
  1969                           global end_of_initialization,__end_of__initialization
  1970                           
  1971                           ;End of C runtime variable initialization code
  1972                           
  1973                           end_of_initialization:
  1974  002DAC                     __end_of__initialization:
  1975  002DAC                     	bcf int$flags,0,c ;clear compiler interrupt flag (level 1)
  1976  002DAC  903F               	bcf int$flags,1,c ;clear compiler interrupt flag (level 2)
  1977  002DAE  923F               	GLOBAL	__Lmediumconst
  1978                           	movlw	low highword(__Lmediumconst)
  1979  002DB0  0E00               	movwf	tblptru
  1980  002DB2  6EF8               movlb 0
  1981  002DB4  0100               goto _main	;jump to C main() function
  1982  002DB6  EF03  F00A         psect	cstackBANK1,class=BANK1,space=1,noexec
  1983                           global __pcstackBANK1
  1984                           __pcstackBANK1:
  1985  000128                     	global	main@du
  1986                           main@du:	; 20 bytes @ 0x0
  1987  000128                     	ds   20
  1988  000128                     	global	_main$1456
  1989                           _main$1456:	; 4 bytes @ 0x14
  1990  00013C                     	ds   4
  1991  00013C                     	global	_main$1457
  1992                           _main$1457:	; 4 bytes @ 0x18
  1993  000140                     	ds   4
  1994  000140                     	global	_main$1458
  1995                           _main$1458:	; 4 bytes @ 0x1C
  1996  000144                     	ds   4
  1997  000144                     	global	main@j
  1998                           main@j:	; 2 bytes @ 0x20
  1999  000148                     	ds   2
  2000  000148                     psect	cstackBANK0,class=BANK0,space=1,noexec
  2001                           global __pcstackBANK0
  2002                           __pcstackBANK0:
  2003  000060                     ?___flge:	; 1 bit 
  2004  000060                     ??_ConfigureOscillator:	; 1 bytes @ 0x0
  2005  000060                     ??_InitApp:	; 1 bytes @ 0x0
  2006  000060                     ??_isspace:	; 1 bytes @ 0x0
  2007  000060                     ??_isdigit:	; 1 bytes @ 0x0
  2008  000060                     ??_BT_load_char:	; 1 bytes @ 0x0
  2009  000060                     	global	?___wmul
  2010                           ?___wmul:	; 2 bytes @ 0x0
  2011  000060                     	global	?___lwdiv
  2012                           ?___lwdiv:	; 2 bytes @ 0x0
  2013  000060                     	global	?___lmul
  2014                           ?___lmul:	; 4 bytes @ 0x0
  2015  000060                     	global	?___flneg
  2016                           ?___flneg:	; 4 bytes @ 0x0
  2017  000060                     	global	?___xxtofl
  2018                           ?___xxtofl:	; 4 bytes @ 0x0
  2019  000060                     	global	BT_load_char@byte
  2020                           BT_load_char@byte:	; 1 bytes @ 0x0
  2021  000060                     	global	___wmul@multiplier
  2022                           ___wmul@multiplier:	; 2 bytes @ 0x0
  2023  000060                     	global	___lwdiv@dividend
  2024                           ___lwdiv@dividend:	; 2 bytes @ 0x0
  2025  000060                     	global	___lmul@multiplier
  2026                           ___lmul@multiplier:	; 4 bytes @ 0x0
  2027  000060                     	global	___flge@ff1
  2028                           ___flge@ff1:	; 4 bytes @ 0x0
  2029  000060                     	global	___flneg@f1
  2030                           ___flneg@f1:	; 4 bytes @ 0x0
  2031  000060                     	global	___xxtofl@val
  2032                           ___xxtofl@val:	; 4 bytes @ 0x0
  2033  000060                     	ds   1
  2034  000060                     ?_BT_load_string:	; 1 bytes @ 0x1
  2035  000061                     	global	_isdigit$1122
  2036                           _isdigit$1122:	; 1 bytes @ 0x1
  2037  000061                     	global	_isspace$1125
  2038                           _isspace$1125:	; 1 bytes @ 0x1
  2039  000061                     	global	BT_load_string@string
  2040                           BT_load_string@string:	; 2 bytes @ 0x1
  2041  000061                     	ds   1
  2042  000061                     	global	isdigit@c
  2043                           isdigit@c:	; 1 bytes @ 0x2
  2044  000062                     	global	isspace@c
  2045                           isspace@c:	; 1 bytes @ 0x2
  2046  000062                     	global	___wmul@multiplicand
  2047                           ___wmul@multiplicand:	; 2 bytes @ 0x2
  2048  000062                     	global	___lwdiv@divisor
  2049                           ___lwdiv@divisor:	; 2 bytes @ 0x2
  2050  000062                     	ds   1
  2051  000062                     ??_BT_load_string:	; 1 bytes @ 0x3
  2052  000063                     	ds   1
  2053  000063                     ??___wmul:	; 1 bytes @ 0x4
  2054  000064                     ??___flneg:	; 1 bytes @ 0x4
  2055  000064                     ??___lwdiv:	; 1 bytes @ 0x4
  2056  000064                     ??___xxtofl:	; 1 bytes @ 0x4
  2057  000064                     	global	?___fladd
  2058                           ?___fladd:	; 4 bytes @ 0x4
  2059  000064                     	global	___lwdiv@counter
  2060                           ___lwdiv@counter:	; 1 bytes @ 0x4
  2061  000064                     	global	___wmul@product
  2062                           ___wmul@product:	; 2 bytes @ 0x4
  2063  000064                     	global	___lmul@multiplicand
  2064                           ___lmul@multiplicand:	; 4 bytes @ 0x4
  2065  000064                     	global	___flge@ff2
  2066                           ___flge@ff2:	; 4 bytes @ 0x4
  2067  000064                     	global	___fladd@b
  2068                           ___fladd@b:	; 4 bytes @ 0x4
  2069  000064                     	ds   1
  2070  000064                     	global	___lwdiv@quotient
  2071                           ___lwdiv@quotient:	; 2 bytes @ 0x5
  2072  000065                     	ds   1
  2073  000065                     	global	?_atoi
  2074                           ?_atoi:	; 2 bytes @ 0x6
  2075  000066                     	global	atoi@s
  2076                           atoi@s:	; 2 bytes @ 0x6
  2077  000066                     	ds   1
  2078  000066                     	global	?___lwmod
  2079                           ?___lwmod:	; 2 bytes @ 0x7
  2080  000067                     	global	___lwmod@dividend
  2081                           ___lwmod@dividend:	; 2 bytes @ 0x7
  2082  000067                     	ds   1
  2083  000067                     ??_atoi:	; 1 bytes @ 0x8
  2084  000068                     ??___lmul:	; 1 bytes @ 0x8
  2085  000068                     ??___flge:	; 1 bytes @ 0x8
  2086  000068                     	global	___xxtofl@sign
  2087                           ___xxtofl@sign:	; 1 bytes @ 0x8
  2088  000068                     	global	___lmul@product
  2089                           ___lmul@product:	; 4 bytes @ 0x8
  2090  000068                     	global	___fladd@a
  2091                           ___fladd@a:	; 4 bytes @ 0x8
  2092  000068                     	ds   1
  2093  000068                     	global	___xxtofl@exp
  2094                           ___xxtofl@exp:	; 1 bytes @ 0x9
  2095  000069                     	global	___lwmod@divisor
  2096                           ___lwmod@divisor:	; 2 bytes @ 0x9
  2097  000069                     	ds   1
  2098  000069                     	global	atoi@sign
  2099                           atoi@sign:	; 1 bytes @ 0xA
  2100  00006A                     	global	___xxtofl@arg
  2101                           ___xxtofl@arg:	; 4 bytes @ 0xA
  2102  00006A                     	ds   1
  2103  00006A                     ??___lwmod:	; 1 bytes @ 0xB
  2104  00006B                     	global	___lwmod@counter
  2105                           ___lwmod@counter:	; 1 bytes @ 0xB
  2106  00006B                     	global	atoi@a
  2107                           atoi@a:	; 2 bytes @ 0xB
  2108  00006B                     	ds   1
  2109  00006B                     ??___fladd:	; 1 bytes @ 0xC
  2110  00006C                     	global	?_sprintf
  2111                           ?_sprintf:	; 2 bytes @ 0xC
  2112  00006C                     	global	sprintf@sp
  2113                           sprintf@sp:	; 2 bytes @ 0xC
  2114  00006C                     	ds   2
  2115  00006C                     	global	sprintf@f
  2116                           sprintf@f:	; 2 bytes @ 0xE
  2117  00006E                     	ds   4
  2118  00006E                     ??_sprintf:	; 1 bytes @ 0x12
  2119  000072                     	ds   1
  2120  000072                     	global	sprintf@ap
  2121                           sprintf@ap:	; 2 bytes @ 0x13
  2122  000073                     	ds   1
  2123  000073                     	global	___fladd@signs
  2124                           ___fladd@signs:	; 1 bytes @ 0x14
  2125  000074                     	ds   1
  2126  000074                     	global	sprintf@flag
  2127                           sprintf@flag:	; 1 bytes @ 0x15
  2128  000075                     	global	___fladd@aexp
  2129                           ___fladd@aexp:	; 1 bytes @ 0x15
  2130  000075                     	ds   1
  2131  000075                     	global	sprintf@prec
  2132                           sprintf@prec:	; 1 bytes @ 0x16
  2133  000076                     	global	___fladd@bexp
  2134                           ___fladd@bexp:	; 1 bytes @ 0x16
  2135  000076                     	ds   1
  2136  000076                     	global	___fladd@grs
  2137                           ___fladd@grs:	; 1 bytes @ 0x17
  2138  000077                     	global	sprintf@val
  2139                           sprintf@val:	; 2 bytes @ 0x17
  2140  000077                     	ds   1
  2141  000077                     	global	?___flmul
  2142                           ?___flmul:	; 4 bytes @ 0x18
  2143  000078                     	global	___flmul@b
  2144                           ___flmul@b:	; 4 bytes @ 0x18
  2145  000078                     	ds   1
  2146  000078                     	global	sprintf@c
  2147                           sprintf@c:	; 1 bytes @ 0x19
  2148  000079                     	ds   3
  2149  000079                     	global	___flmul@a
  2150                           ___flmul@a:	; 4 bytes @ 0x1C
  2151  00007C                     	ds   4
  2152  00007C                     ??___flmul:	; 1 bytes @ 0x20
  2153  000080                     	ds   4
  2154  000080                     	global	___flmul@sign
  2155                           ___flmul@sign:	; 1 bytes @ 0x24
  2156  000084                     	ds   1
  2157  000084                     	global	___flmul@aexp
  2158                           ___flmul@aexp:	; 1 bytes @ 0x25
  2159  000085                     	ds   1
  2160  000085                     	global	___flmul@grs
  2161                           ___flmul@grs:	; 4 bytes @ 0x26
  2162  000086                     	ds   4
  2163  000086                     	global	___flmul@bexp
  2164                           ___flmul@bexp:	; 1 bytes @ 0x2A
  2165  00008A                     	ds   1
  2166  00008A                     	global	___flmul@prod
  2167                           ___flmul@prod:	; 4 bytes @ 0x2B
  2168  00008B                     	ds   4
  2169  00008B                     	global	___flmul@temp
  2170                           ___flmul@temp:	; 2 bytes @ 0x2F
  2171  00008F                     	ds   2
  2172  00008F                     	global	?___fldiv
  2173                           ?___fldiv:	; 4 bytes @ 0x31
  2174  000091                     	global	___fldiv@b
  2175                           ___fldiv@b:	; 4 bytes @ 0x31
  2176  000091                     	ds   4
  2177  000091                     	global	___fldiv@a
  2178                           ___fldiv@a:	; 4 bytes @ 0x35
  2179  000095                     	ds   4
  2180  000095                     ??___fldiv:	; 1 bytes @ 0x39
  2181  000099                     	ds   4
  2182  000099                     	global	___fldiv@sign
  2183                           ___fldiv@sign:	; 1 bytes @ 0x3D
  2184  00009D                     	ds   1
  2185  00009D                     	global	___fldiv@rem
  2186                           ___fldiv@rem:	; 4 bytes @ 0x3E
  2187  00009E                     	ds   4
  2188  00009E                     	global	___fldiv@new_exp
  2189                           ___fldiv@new_exp:	; 2 bytes @ 0x42
  2190  0000A2                     	ds   2
  2191  0000A2                     	global	___fldiv@grs
  2192                           ___fldiv@grs:	; 4 bytes @ 0x44
  2193  0000A4                     	ds   4
  2194  0000A4                     	global	___fldiv@bexp
  2195                           ___fldiv@bexp:	; 1 bytes @ 0x48
  2196  0000A8                     	ds   1
  2197  0000A8                     	global	___fldiv@aexp
  2198                           ___fldiv@aexp:	; 1 bytes @ 0x49
  2199  0000A9                     	ds   1
  2200  0000A9                     	global	?_strtod
  2201                           ?_strtod:	; 4 bytes @ 0x4A
  2202  0000AA                     	global	?___fltol
  2203                           ?___fltol:	; 4 bytes @ 0x4A
  2204  0000AA                     	global	strtod@s
  2205                           strtod@s:	; 2 bytes @ 0x4A
  2206  0000AA                     	global	___fltol@f1
  2207                           ___fltol@f1:	; 4 bytes @ 0x4A
  2208  0000AA                     	ds   2
  2209  0000AA                     	global	strtod@res
  2210                           strtod@res:	; 2 bytes @ 0x4C
  2211  0000AC                     	ds   2
  2212  0000AC                     ??_strtod:	; 1 bytes @ 0x4E
  2213  0000AE                     ??___fltol:	; 1 bytes @ 0x4E
  2214  0000AE                     	ds   1
  2215  0000AE                     	global	strtod@eexp
  2216                           strtod@eexp:	; 1 bytes @ 0x4F
  2217  0000AF                     	ds   1
  2218  0000AF                     	global	strtod@flags
  2219                           strtod@flags:	; 1 bytes @ 0x50
  2220  0000B0                     	ds   1
  2221  0000B0                     	global	strtod@expon
  2222                           strtod@expon:	; 1 bytes @ 0x51
  2223  0000B1                     	ds   1
  2224  0000B1                     	global	___fltol@sign1
  2225                           ___fltol@sign1:	; 1 bytes @ 0x52
  2226  0000B2                     	global	strtod@_u
  2227                           strtod@_u:	; 4 bytes @ 0x52
  2228  0000B2                     	ds   1
  2229  0000B2                     	global	___fltol@exp1
  2230                           ___fltol@exp1:	; 1 bytes @ 0x53
  2231  0000B3                     	ds   3
  2232  0000B3                     	global	?_atof
  2233                           ?_atof:	; 4 bytes @ 0x56
  2234  0000B6                     	global	atof@s
  2235                           atof@s:	; 2 bytes @ 0x56
  2236  0000B6                     	ds   4
  2237  0000B6                     ??_atof:	; 1 bytes @ 0x5A
  2238  0000BA                     ??_main:	; 1 bytes @ 0x5A
  2239  0000BA                     	ds   4
  2240  0000BA                     psect	cstackCOMRAM,class=COMRAM,space=1,noexec
  2241                           global __pcstackCOMRAM
  2242                           __pcstackCOMRAM:
  2243  000001                     ?_isspace:	; 1 bit 
  2244  000001                     ?_isdigit:	; 1 bit 
  2245  000001                     ?_ConfigureOscillator:	; 1 bytes @ 0x0
  2246  000001                     ?_InitApp:	; 1 bytes @ 0x0
  2247  000001                     ?_high_isr:	; 1 bytes @ 0x0
  2248  000001                     ??_high_isr:	; 1 bytes @ 0x0
  2249  000001                     ?_low_isr:	; 1 bytes @ 0x0
  2250  000001                     ?_main:	; 1 bytes @ 0x0
  2251  000001                     ?_BT_load_char:	; 1 bytes @ 0x0
  2252  000001                     	ds   19
  2253  000001                     ??_low_isr:	; 1 bytes @ 0x13
  2254  000014                     	ds   21
  2255  000014                     ;!
  2256                           ;!Data Sizes:
  2257                           ;!    Strings     4
  2258                           ;!    Constant    10
  2259                           ;!    Data        6
  2260                           ;!    BSS         92
  2261                           ;!    Persistent  0
  2262                           ;!    Stack       0
  2263                           ;!
  2264                           ;!Auto Spaces:
  2265                           ;!    Space          Size  Autos    Used
  2266                           ;!    COMRAM           94     40      62
  2267                           ;!    BANK0           160     94     130
  2268                           ;!    BANK1           256     34      74
  2269                           ;!    BANK2           256      0       0
  2270                           ;!    BANK3           256      0       0
  2271                           ;!    BANK4           256      0       0
  2272                           ;!    BANK5           256      0       0
  2273                           ;!    BANK6           256      0       0
  2274                           ;!    BANK7           256      0       0
  2275                           
  2276                           ;!
  2277                           ;!Pointer List with Targets:
  2278                           ;!
  2279                           ;!    atoi@s	PTR const unsigned char  size(2) Largest target is 20
  2280                           ;!		 -> main@du(BANK1[20]), 
  2281                           ;!
  2282                           ;!    atof@s	PTR const unsigned char  size(2) Largest target is 20
  2283                           ;!		 -> main@du(BANK1[20]), 
  2284                           ;!
  2285                           ;!    strtod@s	PTR const unsigned char  size(2) Largest target is 20
  2286                           ;!		 -> main@du(BANK1[20]), 
  2287                           ;!
  2288                           ;!    strtod@res	PTR PTR const unsigned char  size(2) Largest target is 0
  2289                           ;!		 -> NULL(NULL[0]), 
  2290                           ;!
  2291                           ;!    sprintf@f	PTR const unsigned char  size(2) Largest target is 4
  2292                           ;!		 -> STR_1(CODE[4]), 
  2293                           ;!
  2294                           ;!    sprintf@sp	PTR unsigned char  size(2) Largest target is 20
  2295                           ;!		 -> send(BANK1[20]), 
  2296                           ;!
  2297                           ;!    sprintf@ap	PTR void [1] size(2) Largest target is 2
  2298                           ;!		 -> ?_sprintf(BANK0[2]), 
  2299                           ;!
  2300                           ;!    BT_load_string@string	PTR unsigned char  size(2) Largest target is 20
  2301                           ;!		 -> send(BANK1[20]), 
  2302                           ;!
  2303                           
  2304                           
  2305                           ;!
  2306                           ;!Critical Paths under _main in COMRAM
  2307                           ;!
  2308                           ;!    None.
  2309                           ;!
  2310                           ;!Critical Paths under _low_isr in COMRAM
  2311                           ;!
  2312                           ;!    None.
  2313                           ;!
  2314                           ;!Critical Paths under _high_isr in COMRAM
  2315                           ;!
  2316                           ;!    None.
  2317                           ;!
  2318                           ;!Critical Paths under _main in BANK0
  2319                           ;!
  2320                           ;!    _main->_atof
  2321                           ;!    _sprintf->___lwmod
  2322                           ;!    ___lwmod->___lwdiv
  2323                           ;!    _atoi->___wmul
  2324                           ;!    _atof->_strtod
  2325                           ;!    _strtod->___fldiv
  2326                           ;!    ___flmul->___fladd
  2327                           ;!    ___fldiv->___flmul
  2328                           ;!    ___fltol->___fldiv
  2329                           ;!    ___fladd->___flneg
  2330                           ;!    _BT_load_string->_BT_load_char
  2331                           ;!
  2332                           ;!Critical Paths under _low_isr in BANK0
  2333                           ;!
  2334                           ;!    None.
  2335                           ;!
  2336                           ;!Critical Paths under _high_isr in BANK0
  2337                           ;!
  2338                           ;!    None.
  2339                           ;!
  2340                           ;!Critical Paths under _main in BANK1
  2341                           ;!
  2342                           ;!    None.
  2343                           ;!
  2344                           ;!Critical Paths under _low_isr in BANK1
  2345                           ;!
  2346                           ;!    None.
  2347                           ;!
  2348                           ;!Critical Paths under _high_isr in BANK1
  2349                           ;!
  2350                           ;!    None.
  2351                           ;!
  2352                           ;!Critical Paths under _main in BANK2
  2353                           ;!
  2354                           ;!    None.
  2355                           ;!
  2356                           ;!Critical Paths under _low_isr in BANK2
  2357                           ;!
  2358                           ;!    None.
  2359                           ;!
  2360                           ;!Critical Paths under _high_isr in BANK2
  2361                           ;!
  2362                           ;!    None.
  2363                           ;!
  2364                           ;!Critical Paths under _main in BANK3
  2365                           ;!
  2366                           ;!    None.
  2367                           ;!
  2368                           ;!Critical Paths under _low_isr in BANK3
  2369                           ;!
  2370                           ;!    None.
  2371                           ;!
  2372                           ;!Critical Paths under _high_isr in BANK3
  2373                           ;!
  2374                           ;!    None.
  2375                           ;!
  2376                           ;!Critical Paths under _main in BANK4
  2377                           ;!
  2378                           ;!    None.
  2379                           ;!
  2380                           ;!Critical Paths under _low_isr in BANK4
  2381                           ;!
  2382                           ;!    None.
  2383                           ;!
  2384                           ;!Critical Paths under _high_isr in BANK4
  2385                           ;!
  2386                           ;!    None.
  2387                           ;!
  2388                           ;!Critical Paths under _main in BANK5
  2389                           ;!
  2390                           ;!    None.
  2391                           ;!
  2392                           ;!Critical Paths under _low_isr in BANK5
  2393                           ;!
  2394                           ;!    None.
  2395                           ;!
  2396                           ;!Critical Paths under _high_isr in BANK5
  2397                           ;!
  2398                           ;!    None.
  2399                           ;!
  2400                           ;!Critical Paths under _main in BANK6
  2401                           ;!
  2402                           ;!    None.
  2403                           ;!
  2404                           ;!Critical Paths under _low_isr in BANK6
  2405                           ;!
  2406                           ;!    None.
  2407                           ;!
  2408                           ;!Critical Paths under _high_isr in BANK6
  2409                           ;!
  2410                           ;!    None.
  2411                           ;!
  2412                           ;!Critical Paths under _main in BANK7
  2413                           ;!
  2414                           ;!    None.
  2415                           ;!
  2416                           ;!Critical Paths under _low_isr in BANK7
  2417                           ;!
  2418                           ;!    None.
  2419                           ;!
  2420                           ;!Critical Paths under _high_isr in BANK7
  2421                           ;!
  2422                           ;!    None.
  2423                           
  2424 ;;
  2425 ;;Main: autosize = 0, tempsize = 4, incstack = 0, save=0
  2426 ;;
  2427                           
  2428                           ;!
  2429                           ;!Call Graph Tables:
  2430                           ;!
  2431                           ;! ---------------------------------------------------------------------------------
  2432                           ;! (Depth) Function   	        Calls       Base Space   Used Autos Params    Refs
  2433                           ;! ---------------------------------------------------------------------------------
  2434                           ;! (0) _main                                                38    38      0   26507
  2435                           ;!                                             90 BANK0      4     4      0
  2436                           ;!                                              0 BANK1     34    34      0
  2437                           ;!                     _BT_load_string
  2438                           ;!                _ConfigureOscillator
  2439                           ;!                            _InitApp
  2440                           ;!                            ___fladd
  2441                           ;!                            ___fldiv
  2442                           ;!                            ___flmul
  2443                           ;!                            ___flneg
  2444                           ;!                            ___fltol
  2445                           ;!                           ___xxtofl
  2446                           ;!                               _atof
  2447                           ;!                               _atoi
  2448                           ;!                            _sprintf
  2449                           ;! ---------------------------------------------------------------------------------
  2450                           ;! (1) _sprintf                                             23    17      6    1709
  2451                           ;!                                             12 BANK0     14     8      6
  2452                           ;!                            ___lwdiv
  2453                           ;!                            ___lwmod
  2454                           ;! ---------------------------------------------------------------------------------
  2455                           ;! (2) ___lwmod                                              5     1      4     412
  2456                           ;!                                              7 BANK0      5     1      4
  2457                           ;!                            ___lwdiv (ARG)
  2458                           ;! ---------------------------------------------------------------------------------
  2459                           ;! (2) ___lwdiv                                              7     3      4     421
  2460                           ;!                                              0 BANK0      7     3      4
  2461                           ;! ---------------------------------------------------------------------------------
  2462                           ;! (1) _atoi                                                 7     5      2     935
  2463                           ;!                                              6 BANK0      7     5      2
  2464                           ;!                             ___wmul
  2465                           ;!                            _isdigit
  2466                           ;! ---------------------------------------------------------------------------------
  2467                           ;! (2) ___wmul                                               6     2      4     412
  2468                           ;!                                              0 BANK0      6     2      4
  2469                           ;! ---------------------------------------------------------------------------------
  2470                           ;! (1) _atof                                                 4     0      4   11188
  2471                           ;!                                             86 BANK0      4     0      4
  2472                           ;!                             _strtod
  2473                           ;! ---------------------------------------------------------------------------------
  2474                           ;! (2) _strtod                                              12     8      4   10887
  2475                           ;!                                             74 BANK0     12     8      4
  2476                           ;!                            ___fldiv
  2477                           ;!                             ___flge
  2478                           ;!                            ___flmul
  2479                           ;!                            ___flneg
  2480                           ;!                             ___lmul
  2481                           ;!                           ___xxtofl
  2482                           ;!                            _isdigit
  2483                           ;!                            _isspace
  2484                           ;! ---------------------------------------------------------------------------------
  2485                           ;! (3) _isspace                                              3     3      0     130
  2486                           ;!                                              0 BANK0      3     3      0
  2487                           ;! ---------------------------------------------------------------------------------
  2488                           ;! (2) _isdigit                                              3     3      0      99
  2489                           ;!                                              0 BANK0      3     3      0
  2490                           ;! ---------------------------------------------------------------------------------
  2491                           ;! (3) ___xxtofl                                            14    10      4     746
  2492                           ;!                                              0 BANK0     14    10      4
  2493                           ;! ---------------------------------------------------------------------------------
  2494                           ;! (3) ___lmul                                              12     4      8     456
  2495                           ;!                                              0 BANK0     12     4      8
  2496                           ;! ---------------------------------------------------------------------------------
  2497                           ;! (3) ___flneg                                              4     0      4     245
  2498                           ;!                                              0 BANK0      4     0      4
  2499                           ;! ---------------------------------------------------------------------------------
  2500                           ;! (3) ___flmul                                             25    17      8    3773
  2501                           ;!                                             24 BANK0     25    17      8
  2502                           ;!                            ___fladd (ARG)
  2503                           ;!                            ___flneg (ARG)
  2504                           ;!                           ___xxtofl (ARG)
  2505                           ;! ---------------------------------------------------------------------------------
  2506                           ;! (3) ___flge                                              12     4      8     626
  2507                           ;!                                              0 BANK0     12     4      8
  2508                           ;! ---------------------------------------------------------------------------------
  2509                           ;! (3) ___fldiv                                             25    17      8    2835
  2510                           ;!                                             49 BANK0     25    17      8
  2511                           ;!                            ___fladd (ARG)
  2512                           ;!                            ___flmul (ARG)
  2513                           ;!                            ___flneg (ARG)
  2514                           ;!                           ___xxtofl (ARG)
  2515                           ;! ---------------------------------------------------------------------------------
  2516                           ;! (1) ___fltol                                             10     6      4     517
  2517                           ;!                                             74 BANK0     10     6      4
  2518                           ;!                            ___fladd (ARG)
  2519                           ;!                            ___fldiv (ARG)
  2520                           ;!                            ___flmul (ARG)
  2521                           ;!                            ___flneg (ARG)
  2522                           ;!                           ___xxtofl (ARG)
  2523                           ;! ---------------------------------------------------------------------------------
  2524                           ;! (1) ___fladd                                             20    12      8    3942
  2525                           ;!                                              4 BANK0     20    12      8
  2526                           ;!                            ___flneg (ARG)
  2527                           ;! ---------------------------------------------------------------------------------
  2528                           ;! (1) _InitApp                                              0     0      0       0
  2529                           ;! ---------------------------------------------------------------------------------
  2530                           ;! (1) _ConfigureOscillator                                  0     0      0       0
  2531                           ;! ---------------------------------------------------------------------------------
  2532                           ;! (1) _BT_load_string                                       2     0      2     186
  2533                           ;!                                              1 BANK0      2     0      2
  2534                           ;!                       _BT_load_char
  2535                           ;! ---------------------------------------------------------------------------------
  2536                           ;! (2) _BT_load_char                                         1     1      0      31
  2537                           ;!                                              0 BANK0      1     1      0
  2538                           ;! ---------------------------------------------------------------------------------
  2539                           ;! Estimated maximum stack depth 3
  2540                           ;! ---------------------------------------------------------------------------------
  2541                           ;! (Depth) Function   	        Calls       Base Space   Used Autos Params    Refs
  2542                           ;! ---------------------------------------------------------------------------------
  2543                           ;! (4) _low_isr                                             21    21      0       0
  2544                           ;!                                             19 COMRAM    21    21      0
  2545                           ;! ---------------------------------------------------------------------------------
  2546                           ;! Estimated maximum stack depth 4
  2547                           ;! ---------------------------------------------------------------------------------
  2548                           ;! (Depth) Function   	        Calls       Base Space   Used Autos Params    Refs
  2549                           ;! ---------------------------------------------------------------------------------
  2550                           ;! (5) _high_isr                                            19    19      0       0
  2551                           ;!                                              0 COMRAM    19    19      0
  2552                           ;! ---------------------------------------------------------------------------------
  2553                           ;! Estimated maximum stack depth 5
  2554                           ;! ---------------------------------------------------------------------------------
  2555                           ;!
  2556                           ;! Call Graph Graphs:
  2557                           ;!
  2558                           ;! _main (ROOT)
  2559                           ;!   _BT_load_string
  2560                           ;!     _BT_load_char
  2561                           ;!   _ConfigureOscillator
  2562                           ;!   _InitApp
  2563                           ;!   ___fladd
  2564                           ;!     ___flneg (ARG)
  2565                           ;!   ___fldiv
  2566                           ;!     ___fladd (ARG)
  2567                           ;!       ___flneg (ARG)
  2568                           ;!     ___flmul (ARG)
  2569                           ;!       ___fladd (ARG)
  2570                           ;!         ___flneg (ARG)
  2571                           ;!       ___flneg (ARG)
  2572                           ;!       ___xxtofl (ARG)
  2573                           ;!     ___flneg (ARG)
  2574                           ;!     ___xxtofl (ARG)
  2575                           ;!   ___flmul
  2576                           ;!     ___fladd (ARG)
  2577                           ;!       ___flneg (ARG)
  2578                           ;!     ___flneg (ARG)
  2579                           ;!     ___xxtofl (ARG)
  2580                           ;!   ___flneg
  2581                           ;!   ___fltol
  2582                           ;!     ___fladd (ARG)
  2583                           ;!       ___flneg (ARG)
  2584                           ;!     ___fldiv (ARG)
  2585                           ;!       ___fladd (ARG)
  2586                           ;!         ___flneg (ARG)
  2587                           ;!       ___flmul (ARG)
  2588                           ;!         ___fladd (ARG)
  2589                           ;!           ___flneg (ARG)
  2590                           ;!         ___flneg (ARG)
  2591                           ;!         ___xxtofl (ARG)
  2592                           ;!       ___flneg (ARG)
  2593                           ;!       ___xxtofl (ARG)
  2594                           ;!     ___flmul (ARG)
  2595                           ;!       ___fladd (ARG)
  2596                           ;!         ___flneg (ARG)
  2597                           ;!       ___flneg (ARG)
  2598                           ;!       ___xxtofl (ARG)
  2599                           ;!     ___flneg (ARG)
  2600                           ;!     ___xxtofl (ARG)
  2601                           ;!   ___xxtofl
  2602                           ;!   _atof
  2603                           ;!     _strtod
  2604                           ;!       ___fldiv
  2605                           ;!         ___fladd (ARG)
  2606                           ;!           ___flneg (ARG)
  2607                           ;!         ___flmul (ARG)
  2608                           ;!           ___fladd (ARG)
  2609                           ;!             ___flneg (ARG)
  2610                           ;!           ___flneg (ARG)
  2611                           ;!           ___xxtofl (ARG)
  2612                           ;!         ___flneg (ARG)
  2613                           ;!         ___xxtofl (ARG)
  2614                           ;!       ___flge
  2615                           ;!       ___flmul
  2616                           ;!         ___fladd (ARG)
  2617                           ;!           ___flneg (ARG)
  2618                           ;!         ___flneg (ARG)
  2619                           ;!         ___xxtofl (ARG)
  2620                           ;!       ___flneg
  2621                           ;!       ___lmul
  2622                           ;!       ___xxtofl
  2623                           ;!       _isdigit
  2624                           ;!       _isspace
  2625                           ;!   _atoi
  2626                           ;!     ___wmul
  2627                           ;!     _isdigit
  2628                           ;!   _sprintf
  2629                           ;!     ___lwdiv
  2630                           ;!     ___lwmod
  2631                           ;!       ___lwdiv (ARG)
  2632                           ;!
  2633                           ;! _low_isr (ROOT)
  2634                           ;!
  2635                           ;! _high_isr (ROOT)
  2636                           ;!
  2637                           
  2638                           ;! Address spaces:
  2639                           
  2640                           ;!Name               Size   Autos  Total    Cost      Usage
  2641                           ;!BIGRAM             7FF      0       0      21        0.0%
  2642                           ;!EEDATA             100      0       0       0        0.0%
  2643                           ;!BITBANK7           100      0       0      18        0.0%
  2644                           ;!BANK7              100      0       0      19        0.0%
  2645                           ;!BITBANK6           100      0       0      16        0.0%
  2646                           ;!BANK6              100      0       0      17        0.0%
  2647                           ;!BITBANK5           100      0       0      14        0.0%
  2648                           ;!BANK5              100      0       0      15        0.0%
  2649                           ;!BITBANK4           100      0       0      12        0.0%
  2650                           ;!BANK4              100      0       0      13        0.0%
  2651                           ;!BITBANK3           100      0       0      10        0.0%
  2652                           ;!BANK3              100      0       0      11        0.0%
  2653                           ;!BITBANK2           100      0       0       8        0.0%
  2654                           ;!BANK2              100      0       0       9        0.0%
  2655                           ;!BITBANK1           100      0       0       6        0.0%
  2656                           ;!BANK1              100     22      4A       7       28.9%
  2657                           ;!BITBANK0            A0      0       0       4        0.0%
  2658                           ;!BANK0               A0     5E      82       5       81.2%
  2659                           ;!BITCOMRAM           5E      0       0       0        0.0%
  2660                           ;!COMRAM              5E     28      3E       1       66.0%
  2661                           ;!BITSFR               0      0       0     200        0.0%
  2662                           ;!SFR                  0      0       0     200        0.0%
  2663                           ;!STACK                0      0       0       2        0.0%
  2664                           ;!NULL                 0      0       0       0        0.0%
  2665                           ;!ABS                  0      0     10A      20        0.0%
  2666                           ;!DATA                 0      0     10A       3        0.0%
  2667                           ;!CODE                 0      0       0       0        0.0%
  2668                           
  2669                           	global	_main
  2670                           
  2671 ;; *************** function _main *****************
  2672 ;; Defined at:
  2673 ;;		line 48 in file "main.c"
  2674 ;; Parameters:    Size  Location     Type
  2675 ;;		None
  2676 ;; Auto vars:     Size  Location     Type
  2677 ;;  du             20    0[BANK1 ] unsigned char [20]
  2678 ;;  j               2   32[BANK1 ] int 
  2679 ;; Return value:  Size  Location     Type
  2680 ;;                  1    wreg      void 
  2681 ;; Registers used:
  2682 ;;		wreg, fsr1l, fsr1h, fsr2l, fsr2h, status,2, status,0, tblptrl, tblptrh, tblptru, prodl, prodh, cstack
  2683 ;; Tracked objects:
  2684 ;;		On entry : 0/0
  2685 ;;		On exit  : 0/0
  2686 ;;		Unchanged: 0/0
  2687 ;; Data sizes:     COMRAM   BANK0   BANK1   BANK2   BANK3   BANK4   BANK5   BANK6   BANK7
  2688 ;;      Params:         0       0       0       0       0       0       0       0       0
  2689 ;;      Locals:         0       0      34       0       0       0       0       0       0
  2690 ;;      Temps:          0       4       0       0       0       0       0       0       0
  2691 ;;      Totals:         0       4      34       0       0       0       0       0       0
  2692 ;;Total ram usage:       38 bytes
  2693 ;; Hardware stack levels required when called:    5
  2694 ;; This function calls:
  2695 ;;		_BT_load_string
  2696 ;;		_ConfigureOscillator
  2697 ;;		_InitApp
  2698 ;;		___fladd
  2699 ;;		___fldiv
  2700 ;;		___flmul
  2701 ;;		___flneg
  2702 ;;		___fltol
  2703 ;;		___xxtofl
  2704 ;;		_atof
  2705 ;;		_atoi
  2706 ;;		_sprintf
  2707 ;; This function is called by:
  2708 ;;		Startup code after reset
  2709 ;; This function uses a non-reentrant model
  2710 ;;
  2711                           psect	text0,class=CODE,space=0,reloc=2,group=0
  2712                           	file	"main.c"
  2713                           	line	48
  2714                           global __ptext0
  2715                           __ptext0:
  2716  001406                     psect	text0
  2717                           	file	"main.c"
  2718                           	line	48
  2719                           	global	__size_of_main
  2720                           	__size_of_main	equ	__end_of_main-_main
  2721  0000                     	
  2722                           _main:
  2723  001406                     ;incstack = 0
  2724                           	opt	stack 26
  2725                           	line	51
  2726                           	
  2727                           l4133:
  2728  001406                     ;main.c: 51: ConfigureOscillator();
  2729                           	call	_ConfigureOscillator	;wreg free
  2730  001406  EC81  F017         	line	53
  2731                           ;main.c: 53: InitApp();
  2732                           	call	_InitApp	;wreg free
  2733  00140A  ECD3  F015         	line	55
  2734                           	
  2735                           l4135:
  2736  00140E                     ;main.c: 55: int j = 0;
  2737                           	movlw	high(0)
  2738  00140E  0E00               	movlb	1	; () banked
  2739  001410  0101               	movwf	((main@j+1))&0ffh
  2740  001412  6F49               	movlw	low(0)
  2741  001414  0E00               	movwf	((main@j))&0ffh
  2742  001416  6F48               	goto	l4137
  2743  001418  EF0E  F00A         	line	56
  2744                           ;main.c: 56: while(1)
  2745                           	
  2746                           l90:; BSR set to: 1
  2747  00141C                     
  2748                           	line	58
  2749                           	
  2750                           l4137:
  2751  00141C                     ;main.c: 57: {
  2752                           ;main.c: 58: if (read){
  2753                           	movlb	0	; () banked
  2754  00141C  0100               	movf	((_read))&0ffh,w
  2755  00141E  51D2               iorwf	((_read+1))&0ffh,w
  2756  001420  11D3               	btfsc	status,2
  2757  001422  B4D8               	goto	u5281
  2758  001424  EF16  F00A         	goto	u5280
  2759  001428  EF18  F00A         
  2760                           u5281:
  2761  00142C                     	goto	l4163
  2762  00142C  EFBA  F00A         u5280:
  2763  001430                     	line	59
  2764                           	
  2765                           l4139:; BSR set to: 0
  2766  001430                     
  2767                           ;main.c: 59: read = 0;
  2768                           	movlw	high(0)
  2769  001430  0E00               	movwf	((_read+1))&0ffh
  2770  001432  6FD3               	movlw	low(0)
  2771  001434  0E00               	movwf	((_read))&0ffh
  2772  001436  6FD2               	line	60
  2773                           	
  2774                           l4141:; BSR set to: 0
  2775  001438                     
  2776                           ;main.c: 60: char du[20] = "";
  2777                           	lfsr	2,(main@F3644)
  2778  001438  EE21  F000         	lfsr	1,(main@du)
  2779  00143C  EE11  F028         	movlw	20-1
  2780  001440  0E13               u5291:
  2781  001442                     	movff	plusw2,plusw1
  2782  001442  CFDB FFE3          	decf	wreg
  2783  001446  06E8               	bc	u5291
  2784  001448  E2FC               
  2785                           	line	61
  2786                           	
  2787                           l4143:; BSR set to: 0
  2788  00144A                     
  2789                           ;main.c: 61: for(j=1; j<limit; j++){
  2790                           	movlw	high(01h)
  2791  00144A  0E00               	movlb	1	; () banked
  2792  00144C  0101               	movwf	((main@j+1))&0ffh
  2793  00144E  6F49               	movlw	low(01h)
  2794  001450  0E01               	movwf	((main@j))&0ffh
  2795  001452  6F48               	goto	l4149
  2796  001454  EF4D  F00A         	
  2797                           l95:; BSR set to: 1
  2798  001458                     
  2799                           	line	62
  2800                           	
  2801                           l4145:
  2802  001458                     ;main.c: 62: du[j-1] = Buffer[j];
  2803                           	movlw	low(_Buffer)
  2804  001458  0E29               	movlb	1	; () banked
  2805  00145A  0101               	addwf	((main@j))&0ffh,w
  2806  00145C  2548               	movwf	c:fsr2l
  2807  00145E  6ED9               	movlw	high(_Buffer)
  2808  001460  0E00               	addwfc	((main@j+1))&0ffh,w
  2809  001462  2149               	movwf	1+c:fsr2l
  2810  001464  6EDA               	movlw	low(0FFFFh)
  2811  001466  0EFF               	movlb	0	; () banked
  2812  001468  0100               	movwf	(??_main+0+0)&0ffh
  2813  00146A  6FBA               	movlw	high(0FFFFh)
  2814  00146C  0EFF               	movwf	1+(??_main+0+0)&0ffh
  2815  00146E  6FBB               	movff	(main@j),??_main+2+0
  2816  001470  C148  F0BC         	movff	(main@j+1),??_main+2+0+1
  2817  001474  C149  F0BD         	movf	(??_main+0+0)&0ffh,w
  2818  001478  51BA               	addwf	(??_main+2+0)&0ffh
  2819  00147A  27BC               	movf	(??_main+0+1)&0ffh,w
  2820  00147C  51BB               	addwfc	(??_main+2+1)&0ffh
  2821  00147E  23BD               	movlw	low(main@du)
  2822  001480  0E28               	addwf	(??_main+2+0)&0ffh,w
  2823  001482  25BC               	movwf	c:fsr1l
  2824  001484  6EE1               	movlw	high(main@du)
  2825  001486  0E01               	addwfc	(??_main+2+1)&0ffh,w
  2826  001488  21BD               	movwf	1+c:fsr1l
  2827  00148A  6EE2               	movff	indf2,indf1
  2828  00148C  CFDF FFE7          	line	61
  2829                           	
  2830                           l4147:; BSR set to: 0
  2831  001490                     
  2832                           	movlb	1	; () banked
  2833  001490  0101               	infsnz	((main@j))&0ffh
  2834  001492  4B48               	incf	((main@j+1))&0ffh
  2835  001494  2B49               	goto	l4149
  2836  001496  EF4D  F00A         	
  2837                           l94:; BSR set to: 1
  2838  00149A                     
  2839                           	
  2840                           l4149:; BSR set to: 1
  2841  00149A                     
  2842                           	movlb	0	; () banked
  2843  00149A  0100               		movf	((_limit))&0ffh,w
  2844  00149C  51D4               	movlb	1	; () banked
  2845  00149E  0101               	subwf	((main@j))&0ffh,w
  2846  0014A0  5D48               	movf	((main@j+1))&0ffh,w
  2847  0014A2  5149               	xorlw	80h
  2848  0014A4  0A80               	movlb	0	; () banked
  2849  0014A6  0100               	movwf	(??_main+0+0)&0ffh
  2850  0014A8  6FBA               	movf	((_limit+1))&0ffh,w
  2851  0014AA  51D5               	xorlw	80h
  2852  0014AC  0A80               	subwfb	(??_main+0+0)&0ffh,w
  2853  0014AE  59BA               	btfss	status,0
  2854  0014B0  A0D8               	goto	u5301
  2855  0014B2  EF5D  F00A         	goto	u5300
  2856  0014B6  EF5F  F00A         
  2857                           u5301:
  2858  0014BA                     	goto	l4145
  2859  0014BA  EF2C  F00A         u5300:
  2860  0014BE                     	goto	l4161
  2861  0014BE  EFA5  F00A         	
  2862                           l96:; BSR set to: 0
  2863  0014C2                     
  2864                           	line	64
  2865                           ;main.c: 63: }
  2866                           ;main.c: 64: switch (Buffer[0]){
  2867                           	goto	l4161
  2868  0014C2  EFA5  F00A         	line	65
  2869                           ;main.c: 65: case 'V':
  2870                           	
  2871                           l98:; BSR set to: 0
  2872  0014C6                     
  2873                           	line	66
  2874                           	
  2875                           l4151:
  2876  0014C6                     ;main.c: 66: refSpeed = atoi(du);
  2877                           		movlw	low(main@du)
  2878  0014C6  0E28               	movlb	0	; () banked
  2879  0014C8  0100               	movwf	((atoi@s))&0ffh
  2880  0014CA  6F66               	movlw	high(main@du)
  2881  0014CC  0E01               	movwf	((atoi@s+1))&0ffh
  2882  0014CE  6F67               
  2883                           	call	_atoi	;wreg free
  2884  0014D0  ECF0  F014         	movff	0+?_atoi,(_refSpeed)
  2885  0014D4  C066  F0E0         	movff	1+?_atoi,(_refSpeed+1)
  2886  0014D8  C067  F0E1         	line	67
  2887                           ;main.c: 67: break;
  2888                           	goto	l4163
  2889  0014DC  EFBA  F00A         	line	68
  2890                           ;main.c: 68: case 'P':
  2891                           	
  2892                           l100:
  2893  0014E0                     	line	69
  2894                           	
  2895                           l4153:
  2896  0014E0                     ;main.c: 69: kp = atof(du);
  2897                           		movlw	low(main@du)
  2898  0014E0  0E28               	movlb	0	; () banked
  2899  0014E2  0100               	movwf	((atof@s))&0ffh
  2900  0014E4  6FB6               	movlw	high(main@du)
  2901  0014E6  0E01               	movwf	((atof@s+1))&0ffh
  2902  0014E8  6FB7               
  2903                           	call	_atof	;wreg free
  2904  0014EA  EC6B  F017         	movff	0+?_atof,(_kp)
  2905  0014EE  C0B6  F0DC         	movff	1+?_atof,(_kp+1)
  2906  0014F2  C0B7  F0DD         	movff	2+?_atof,(_kp+2)
  2907  0014F6  C0B8  F0DE         	movff	3+?_atof,(_kp+3)
  2908  0014FA  C0B9  F0DF         	
  2909                           	line	70
  2910                           ;main.c: 70: break;
  2911                           	goto	l4163
  2912  0014FE  EFBA  F00A         	line	71
  2913                           ;main.c: 71: case 'I':
  2914                           	
  2915                           l101:
  2916  001502                     	line	72
  2917                           	
  2918                           l4155:
  2919  001502                     ;main.c: 72: ki = atof(du);
  2920                           		movlw	low(main@du)
  2921  001502  0E28               	movlb	0	; () banked
  2922  001504  0100               	movwf	((atof@s))&0ffh
  2923  001506  6FB6               	movlw	high(main@du)
  2924  001508  0E01               	movwf	((atof@s+1))&0ffh
  2925  00150A  6FB7               
  2926                           	call	_atof	;wreg free
  2927  00150C  EC6B  F017         	movff	0+?_atof,(_ki)
  2928  001510  C0B6  F0CA         	movff	1+?_atof,(_ki+1)
  2929  001514  C0B7  F0CB         	movff	2+?_atof,(_ki+2)
  2930  001518  C0B8  F0CC         	movff	3+?_atof,(_ki+3)
  2931  00151C  C0B9  F0CD         	
  2932                           	line	73
  2933                           ;main.c: 73: break;
  2934                           	goto	l4163
  2935  001520  EFBA  F00A         	line	74
  2936                           ;main.c: 74: case 'D':
  2937                           	
  2938                           l102:
  2939  001524                     	line	75
  2940                           	
  2941                           l4157:
  2942  001524                     ;main.c: 75: kd = atof(du);
  2943                           		movlw	low(main@du)
  2944  001524  0E28               	movlb	0	; () banked
  2945  001526  0100               	movwf	((atof@s))&0ffh
  2946  001528  6FB6               	movlw	high(main@du)
  2947  00152A  0E01               	movwf	((atof@s+1))&0ffh
  2948  00152C  6FB7               
  2949                           	call	_atof	;wreg free
  2950  00152E  EC6B  F017         	movff	0+?_atof,(_kd)
  2951  001532  C0B6  F0C6         	movff	1+?_atof,(_kd+1)
  2952  001536  C0B7  F0C7         	movff	2+?_atof,(_kd+2)
  2953  00153A  C0B8  F0C8         	movff	3+?_atof,(_kd+3)
  2954  00153E  C0B9  F0C9         	
  2955                           	line	76
  2956                           ;main.c: 76: break;
  2957                           	goto	l4163
  2958  001542  EFBA  F00A         	line	77
  2959                           	
  2960                           l4159:
  2961  001546                     ;main.c: 77: }
  2962                           	goto	l4163
  2963  001546  EFBA  F00A         	line	64
  2964                           	
  2965                           l97:
  2966  00154A                     	
  2967                           l4161:
  2968  00154A                     	movf	((c:_Buffer)),c,w
  2969  00154A  5029               	; Switch size 1, requested type "space"
  2970                           ; Number of cases is 4, Range of values is 68 to 86
  2971                           ; switch strategies available:
  2972                           ; Name         Instructions Cycles
  2973                           ; simple_byte           13     7 (average)
  2974                           ;	Chosen strategy is simple_byte
  2975                           
  2976                           	xorlw	68^0	; case 68
  2977  00154C  0A44               	skipnz
  2978  00154E  B4D8               	goto	l4157
  2979  001550  EF92  F00A         	xorlw	73^68	; case 73
  2980  001554  0A0D               	skipnz
  2981  001556  B4D8               	goto	l4155
  2982  001558  EF81  F00A         	xorlw	80^73	; case 80
  2983  00155C  0A19               	skipnz
  2984  00155E  B4D8               	goto	l4153
  2985  001560  EF70  F00A         	xorlw	86^80	; case 86
  2986  001564  0A06               	skipnz
  2987  001566  B4D8               	goto	l4151
  2988  001568  EF63  F00A         	goto	l4163
  2989  00156C  EFBA  F00A         
  2990                           	line	77
  2991                           	
  2992                           l99:
  2993  001570                     	goto	l4163
  2994  001570  EFBA  F00A         	line	78
  2995                           	
  2996                           l91:
  2997  001574                     	line	79
  2998                           	
  2999                           l4163:
  3000  001574                     ;main.c: 78: }
  3001                           ;main.c: 79: if (timer){
  3002                           	movlb	0	; () banked
  3003  001574  0100               	movf	((_timer))&0ffh,w
  3004  001576  51D8               iorwf	((_timer+1))&0ffh,w
  3005  001578  11D9               	btfsc	status,2
  3006  00157A  B4D8               	goto	u5311
  3007  00157C  EFC2  F00A         	goto	u5310
  3008  001580  EFC4  F00A         
  3009                           u5311:
  3010  001584                     	goto	l4137
  3011  001584  EF0E  F00A         u5310:
  3012  001588                     	line	80
  3013                           	
  3014                           l4165:; BSR set to: 0
  3015  001588                     
  3016                           ;main.c: 80: count2 = count;
  3017                           	movff	(_count),(_count2)
  3018  001588  C0D6  F0DA         	movff	(_count+1),(_count2+1)
  3019  00158C  C0D7  F0DB         	line	81
  3020                           	
  3021                           l4167:; BSR set to: 0
  3022  001590                     
  3023                           ;main.c: 81: timer = count = 0;
  3024                           	movlw	high(0)
  3025  001590  0E00               	movwf	((_count+1))&0ffh
  3026  001592  6FD7               	movlw	low(0)
  3027  001594  0E00               	movwf	((_count))&0ffh
  3028  001596  6FD6               	movff	(_count),(_timer)
  3029  001598  C0D6  F0D8         	movff	(_count+1),(_timer+1)
  3030  00159C  C0D7  F0D9         	line	82
  3031                           	
  3032                           l4169:; BSR set to: 0
  3033  0015A0                     
  3034                           ;main.c: 82: sprintf(send, "#%d", count2);
  3035                           		movlw	low(_send)
  3036  0015A0  0E14               	movwf	((sprintf@sp))&0ffh
  3037  0015A2  6F6C               	movlw	high(_send)
  3038  0015A4  0E01               	movwf	((sprintf@sp+1))&0ffh
  3039  0015A6  6F6D               
  3040                           		movlw	low(STR_1)
  3041  0015A8  0E0B               	movwf	((sprintf@f))&0ffh
  3042  0015AA  6F6E               	movlw	high(STR_1)
  3043  0015AC  0E08               	movwf	((sprintf@f+1))&0ffh
  3044  0015AE  6F6F               
  3045                           	movff	(_count2),0+(?_sprintf+04h)
  3046  0015B0  C0DA  F070         	movff	(_count2+1),1+(?_sprintf+04h)
  3047  0015B4  C0DB  F071         	call	_sprintf	;wreg free
  3048  0015B8  ECF0  F010         	line	83
  3049                           	
  3050                           l4171:
  3051  0015BC                     ;main.c: 83: BT_load_string(send);
  3052                           		movlw	low(_send)
  3053  0015BC  0E14               	movlb	0	; () banked
  3054  0015BE  0100               	movwf	((BT_load_string@string))&0ffh
  3055  0015C0  6F61               	movlw	high(_send)
  3056  0015C2  0E01               	movwf	((BT_load_string@string+1))&0ffh
  3057  0015C4  6F62               
  3058                           	call	_BT_load_string	;wreg free
  3059  0015C6  EC1D  F017         	line	84
  3060                           	
  3061                           l4173:
  3062  0015CA                     ;main.c: 84: currentSpeed = (60.0*count2/0.131072);
  3063                           	movlw	low(normalize32(0.13107199999999999))
  3064  0015CA  0EBD               	movlb	0	; () banked
  3065  0015CC  0100               	movwf	((___fldiv@a))&0ffh
  3066  0015CE  6F95               	movlw	high(normalize32(0.13107199999999999))
  3067  0015D0  0E37               	movwf	((___fldiv@a+1))&0ffh
  3068  0015D2  6F96               	movlw	low highword(normalize32(0.13107199999999999))
  3069  0015D4  0E06               	movwf	((___fldiv@a+2))&0ffh
  3070  0015D6  6F97               	movlw	high highword(normalize32(0.13107199999999999))
  3071  0015D8  0E3E               	movwf	((___fldiv@a+3))&0ffh
  3072  0015DA  6F98               	movlw	low(normalize32(60.000000000000000))
  3073  0015DC  0E00               	movwf	((___flmul@a))&0ffh
  3074  0015DE  6F7C               	movlw	high(normalize32(60.000000000000000))
  3075  0015E0  0E00               	movwf	((___flmul@a+1))&0ffh
  3076  0015E2  6F7D               	movlw	low highword(normalize32(60.000000000000000))
  3077  0015E4  0E70               	movwf	((___flmul@a+2))&0ffh
  3078  0015E6  6F7E               	movlw	high highword(normalize32(60.000000000000000))
  3079  0015E8  0E42               	movwf	((___flmul@a+3))&0ffh
  3080  0015EA  6F7F               	movff	(_count2),(___xxtofl@val)
  3081  0015EC  C0DA  F060         	movff	(_count2+1),(___xxtofl@val+1)
  3082  0015F0  C0DB  F061         	movlw	0
  3083  0015F4  0E00               	btfsc	((___xxtofl@val+1))&0ffh,7
  3084  0015F6  BF61               	movlw	-1
  3085  0015F8  0EFF               	movwf	((___xxtofl@val+2))&0ffh
  3086  0015FA  6F62               	movwf	((___xxtofl@val+3))&0ffh
  3087  0015FC  6F63               	movlw	(01h)&0ffh
  3088  0015FE  0E01               	
  3089                           	call	___xxtofl
  3090  001600  ECF0  F011         	movff	0+?___xxtofl,(___flmul@b)
  3091  001604  C060  F078         	movff	1+?___xxtofl,(___flmul@b+1)
  3092  001608  C061  F079         	movff	2+?___xxtofl,(___flmul@b+2)
  3093  00160C  C062  F07A         	movff	3+?___xxtofl,(___flmul@b+3)
  3094  001610  C063  F07B         	
  3095                           	call	___flmul	;wreg free
  3096  001614  ECA9  F00C         	movff	0+?___flmul,(___fldiv@b)
  3097  001618  C078  F091         	movff	1+?___flmul,(___fldiv@b+1)
  3098  00161C  C079  F092         	movff	2+?___flmul,(___fldiv@b+2)
  3099  001620  C07A  F093         	movff	3+?___flmul,(___fldiv@b+3)
  3100  001624  C07B  F094         	
  3101                           	call	___fldiv	;wreg free
  3102  001628  ECE1  F00E         	movff	0+?___fldiv,(___fltol@f1)
  3103  00162C  C091  F0AA         	movff	1+?___fldiv,(___fltol@f1+1)
  3104  001630  C092  F0AB         	movff	2+?___fldiv,(___fltol@f1+2)
  3105  001634  C093  F0AC         	movff	3+?___fldiv,(___fltol@f1+3)
  3106  001638  C094  F0AD         	
  3107                           	call	___fltol	;wreg free
  3108  00163C  EC46  F014         	movff	0+?___fltol,(_currentSpeed)
  3109  001640  C0AA  F0D0         	movff	1+?___fltol,(_currentSpeed+1)
  3110  001644  C0AB  F0D1         	line	85
  3111                           	
  3112                           l4175:
  3113  001648                     ;main.c: 85: errora = (refSpeed-currentSpeed)/10000.0;
  3114                           	movff	(_currentSpeed),??_main+0+0
  3115  001648  C0D0  F0BA         	movff	(_currentSpeed+1),??_main+0+0+1
  3116  00164C  C0D1  F0BB         	movlb	0	; () banked
  3117  001650  0100               	comf	(??_main+0+0)&0ffh
  3118  001652  1FBA               	comf	(??_main+0+1)&0ffh
  3119  001654  1FBB               	infsnz	(??_main+0+0)&0ffh
  3120  001656  4BBA               	incf	(??_main+0+1)&0ffh
  3121  001658  2BBB               	movf	((_refSpeed))&0ffh,w
  3122  00165A  51E0               	addwf	(??_main+0+0)&0ffh
  3123  00165C  27BA               	movf	((_refSpeed+1))&0ffh,w
  3124  00165E  51E1               	addwfc	(??_main+0+1)&0ffh
  3125  001660  23BB               	movff	??_main+0+0,(___xxtofl@val)
  3126  001662  C0BA  F060         	movff	??_main+0+1,(___xxtofl@val+1)
  3127  001666  C0BB  F061         	movlw	0
  3128  00166A  0E00               	btfsc	((___xxtofl@val+1))&0ffh,7
  3129  00166C  BF61               	movlw	-1
  3130  00166E  0EFF               	movwf	((___xxtofl@val+2))&0ffh
  3131  001670  6F62               	movwf	((___xxtofl@val+3))&0ffh
  3132  001672  6F63               	movlw	(01h)&0ffh
  3133  001674  0E01               	
  3134                           	call	___xxtofl
  3135  001676  ECF0  F011         	movff	0+?___xxtofl,(___fldiv@b)
  3136  00167A  C060  F091         	movff	1+?___xxtofl,(___fldiv@b+1)
  3137  00167E  C061  F092         	movff	2+?___xxtofl,(___fldiv@b+2)
  3138  001682  C062  F093         	movff	3+?___xxtofl,(___fldiv@b+3)
  3139  001686  C063  F094         	
  3140                           	movlw	low(normalize32(10000.000000000000))
  3141  00168A  0E00               	movlb	0	; () banked
  3142  00168C  0100               	movwf	((___fldiv@a))&0ffh
  3143  00168E  6F95               	movlw	high(normalize32(10000.000000000000))
  3144  001690  0E40               	movwf	((___fldiv@a+1))&0ffh
  3145  001692  6F96               	movlw	low highword(normalize32(10000.000000000000))
  3146  001694  0E1C               	movwf	((___fldiv@a+2))&0ffh
  3147  001696  6F97               	movlw	high highword(normalize32(10000.000000000000))
  3148  001698  0E46               	movwf	((___fldiv@a+3))&0ffh
  3149  00169A  6F98               	call	___fldiv	;wreg free
  3150  00169C  ECE1  F00E         	movff	0+?___fldiv,(_errora)
  3151  0016A0  C091  F0C2         	movff	1+?___fldiv,(_errora+1)
  3152  0016A4  C092  F0C3         	movff	2+?___fldiv,(_errora+2)
  3153  0016A8  C093  F0C4         	movff	3+?___fldiv,(_errora+3)
  3154  0016AC  C094  F0C5         	
  3155                           	line	86
  3156                           	
  3157                           l4177:
  3158  0016B0                     ;main.c: 86: plus = (kp*errora) + (kd*60.0*((errora-errorv)/0.131072)) + (ki*0.131072*((
                                 errora+errorv)/120.0));
  3159                           	movff	(_ki),(___flmul@a)
  3160  0016B0  C0CA  F07C         	movff	(_ki+1),(___flmul@a+1)
  3161  0016B4  C0CB  F07D         	movff	(_ki+2),(___flmul@a+2)
  3162  0016B8  C0CC  F07E         	movff	(_ki+3),(___flmul@a+3)
  3163  0016BC  C0CD  F07F         	movlw	low(normalize32(120.00000000000000))
  3164  0016C0  0E00               	movlb	0	; () banked
  3165  0016C2  0100               	movwf	((___fldiv@a))&0ffh
  3166  0016C4  6F95               	movlw	high(normalize32(120.00000000000000))
  3167  0016C6  0E00               	movwf	((___fldiv@a+1))&0ffh
  3168  0016C8  6F96               	movlw	low highword(normalize32(120.00000000000000))
  3169  0016CA  0EF0               	movwf	((___fldiv@a+2))&0ffh
  3170  0016CC  6F97               	movlw	high highword(normalize32(120.00000000000000))
  3171  0016CE  0E42               	movwf	((___fldiv@a+3))&0ffh
  3172  0016D0  6F98               	movff	(_errorv),(___fladd@a)
  3173  0016D2  C0BE  F068         	movff	(_errorv+1),(___fladd@a+1)
  3174  0016D6  C0BF  F069         	movff	(_errorv+2),(___fladd@a+2)
  3175  0016DA  C0C0  F06A         	movff	(_errorv+3),(___fladd@a+3)
  3176  0016DE  C0C1  F06B         	movff	(_errora),(___fladd@b)
  3177  0016E2  C0C2  F064         	movff	(_errora+1),(___fladd@b+1)
  3178  0016E6  C0C3  F065         	movff	(_errora+2),(___fladd@b+2)
  3179  0016EA  C0C4  F066         	movff	(_errora+3),(___fladd@b+3)
  3180  0016EE  C0C5  F067         	call	___fladd	;wreg free
  3181  0016F2  EC3F  F007         	movff	0+?___fladd,(___fldiv@b)
  3182  0016F6  C064  F091         	movff	1+?___fladd,(___fldiv@b+1)
  3183  0016FA  C065  F092         	movff	2+?___fladd,(___fldiv@b+2)
  3184  0016FE  C066  F093         	movff	3+?___fladd,(___fldiv@b+3)
  3185  001702  C067  F094         	
  3186                           	call	___fldiv	;wreg free
  3187  001706  ECE1  F00E         	movff	0+?___fldiv,(___flmul@b)
  3188  00170A  C091  F078         	movff	1+?___fldiv,(___flmul@b+1)
  3189  00170E  C092  F079         	movff	2+?___fldiv,(___flmul@b+2)
  3190  001712  C093  F07A         	movff	3+?___fldiv,(___flmul@b+3)
  3191  001716  C094  F07B         	
  3192                           	call	___flmul	;wreg free
  3193  00171A  ECA9  F00C         	movff	0+?___flmul,(_main$1456)
  3194  00171E  C078  F13C         	movff	1+?___flmul,(_main$1456+1)
  3195  001722  C079  F13D         	movff	2+?___flmul,(_main$1456+2)
  3196  001726  C07A  F13E         	movff	3+?___flmul,(_main$1456+3)
  3197  00172A  C07B  F13F         	
  3198                           	
  3199                           l4179:
  3200  00172E                     ;main.c: 86: plus = (kp*errora) + (kd*60.0*((errora-errorv)/0.131072)) + (ki*0.131072*((
                                 errora+errorv)/120.0));
  3201                           	movff	(_kd),(___flmul@a)
  3202  00172E  C0C6  F07C         	movff	(_kd+1),(___flmul@a+1)
  3203  001732  C0C7  F07D         	movff	(_kd+2),(___flmul@a+2)
  3204  001736  C0C8  F07E         	movff	(_kd+3),(___flmul@a+3)
  3205  00173A  C0C9  F07F         	movlw	low(normalize32(0.13107199999999999))
  3206  00173E  0EBD               	movlb	0	; () banked
  3207  001740  0100               	movwf	((___fldiv@a))&0ffh
  3208  001742  6F95               	movlw	high(normalize32(0.13107199999999999))
  3209  001744  0E37               	movwf	((___fldiv@a+1))&0ffh
  3210  001746  6F96               	movlw	low highword(normalize32(0.13107199999999999))
  3211  001748  0E06               	movwf	((___fldiv@a+2))&0ffh
  3212  00174A  6F97               	movlw	high highword(normalize32(0.13107199999999999))
  3213  00174C  0E3E               	movwf	((___fldiv@a+3))&0ffh
  3214  00174E  6F98               	movff	(_errora),(___fladd@a)
  3215  001750  C0C2  F068         	movff	(_errora+1),(___fladd@a+1)
  3216  001754  C0C3  F069         	movff	(_errora+2),(___fladd@a+2)
  3217  001758  C0C4  F06A         	movff	(_errora+3),(___fladd@a+3)
  3218  00175C  C0C5  F06B         	movff	(_errorv),(___flneg@f1)
  3219  001760  C0BE  F060         	movff	(_errorv+1),(___flneg@f1+1)
  3220  001764  C0BF  F061         	movff	(_errorv+2),(___flneg@f1+2)
  3221  001768  C0C0  F062         	movff	(_errorv+3),(___flneg@f1+3)
  3222  00176C  C0C1  F063         	call	___flneg	;wreg free
  3223  001770  ECDD  F016         	movff	0+?___flneg,(___fladd@b)
  3224  001774  C060  F064         	movff	1+?___flneg,(___fladd@b+1)
  3225  001778  C061  F065         	movff	2+?___flneg,(___fladd@b+2)
  3226  00177C  C062  F066         	movff	3+?___flneg,(___fladd@b+3)
  3227  001780  C063  F067         	
  3228                           	call	___fladd	;wreg free
  3229  001784  EC3F  F007         	movff	0+?___fladd,(___fldiv@b)
  3230  001788  C064  F091         	movff	1+?___fladd,(___fldiv@b+1)
  3231  00178C  C065  F092         	movff	2+?___fladd,(___fldiv@b+2)
  3232  001790  C066  F093         	movff	3+?___fladd,(___fldiv@b+3)
  3233  001794  C067  F094         	
  3234                           	call	___fldiv	;wreg free
  3235  001798  ECE1  F00E         	movff	0+?___fldiv,(___flmul@b)
  3236  00179C  C091  F078         	movff	1+?___fldiv,(___flmul@b+1)
  3237  0017A0  C092  F079         	movff	2+?___fldiv,(___flmul@b+2)
  3238  0017A4  C093  F07A         	movff	3+?___fldiv,(___flmul@b+3)
  3239  0017A8  C094  F07B         	
  3240                           	call	___flmul	;wreg free
  3241  0017AC  ECA9  F00C         	movff	0+?___flmul,(_main$1457)
  3242  0017B0  C078  F140         	movff	1+?___flmul,(_main$1457+1)
  3243  0017B4  C079  F141         	movff	2+?___flmul,(_main$1457+2)
  3244  0017B8  C07A  F142         	movff	3+?___flmul,(_main$1457+3)
  3245  0017BC  C07B  F143         	
  3246                           	
  3247                           l4181:
  3248  0017C0                     ;main.c: 86: plus = (kp*errora) + (kd*60.0*((errora-errorv)/0.131072)) + (ki*0.131072*((
                                 errora+errorv)/120.0));
  3249                           	movlw	low(normalize32(60.000000000000000))
  3250  0017C0  0E00               	movlb	0	; () banked
  3251  0017C2  0100               	movwf	((___flmul@a))&0ffh
  3252  0017C4  6F7C               	movlw	high(normalize32(60.000000000000000))
  3253  0017C6  0E00               	movwf	((___flmul@a+1))&0ffh
  3254  0017C8  6F7D               	movlw	low highword(normalize32(60.000000000000000))
  3255  0017CA  0E70               	movwf	((___flmul@a+2))&0ffh
  3256  0017CC  6F7E               	movlw	high highword(normalize32(60.000000000000000))
  3257  0017CE  0E42               	movwf	((___flmul@a+3))&0ffh
  3258  0017D0  6F7F               	movff	(_main$1457),(___flmul@b)
  3259  0017D2  C140  F078         	movff	(_main$1457+1),(___flmul@b+1)
  3260  0017D6  C141  F079         	movff	(_main$1457+2),(___flmul@b+2)
  3261  0017DA  C142  F07A         	movff	(_main$1457+3),(___flmul@b+3)
  3262  0017DE  C143  F07B         	call	___flmul	;wreg free
  3263  0017E2  ECA9  F00C         	movff	0+?___flmul,(___fladd@a)
  3264  0017E6  C078  F068         	movff	1+?___flmul,(___fladd@a+1)
  3265  0017EA  C079  F069         	movff	2+?___flmul,(___fladd@a+2)
  3266  0017EE  C07A  F06A         	movff	3+?___flmul,(___fladd@a+3)
  3267  0017F2  C07B  F06B         	
  3268                           	movff	(_errora),(___flmul@a)
  3269  0017F6  C0C2  F07C         	movff	(_errora+1),(___flmul@a+1)
  3270  0017FA  C0C3  F07D         	movff	(_errora+2),(___flmul@a+2)
  3271  0017FE  C0C4  F07E         	movff	(_errora+3),(___flmul@a+3)
  3272  001802  C0C5  F07F         	movff	(_kp),(___flmul@b)
  3273  001806  C0DC  F078         	movff	(_kp+1),(___flmul@b+1)
  3274  00180A  C0DD  F079         	movff	(_kp+2),(___flmul@b+2)
  3275  00180E  C0DE  F07A         	movff	(_kp+3),(___flmul@b+3)
  3276  001812  C0DF  F07B         	call	___flmul	;wreg free
  3277  001816  ECA9  F00C         	movff	0+?___flmul,(___fladd@b)
  3278  00181A  C078  F064         	movff	1+?___flmul,(___fladd@b+1)
  3279  00181E  C079  F065         	movff	2+?___flmul,(___fladd@b+2)
  3280  001822  C07A  F066         	movff	3+?___flmul,(___fladd@b+3)
  3281  001826  C07B  F067         	
  3282                           	call	___fladd	;wreg free
  3283  00182A  EC3F  F007         	movff	0+?___fladd,(_main$1458)
  3284  00182E  C064  F144         	movff	1+?___fladd,(_main$1458+1)
  3285  001832  C065  F145         	movff	2+?___fladd,(_main$1458+2)
  3286  001836  C066  F146         	movff	3+?___fladd,(_main$1458+3)
  3287  00183A  C067  F147         	
  3288                           	
  3289                           l4183:
  3290  00183E                     ;main.c: 86: plus = (kp*errora) + (kd*60.0*((errora-errorv)/0.131072)) + (ki*0.131072*((
                                 errora+errorv)/120.0));
  3291                           	movlw	low(normalize32(0.13107199999999999))
  3292  00183E  0EBD               	movlb	0	; () banked
  3293  001840  0100               	movwf	((___flmul@a))&0ffh
  3294  001842  6F7C               	movlw	high(normalize32(0.13107199999999999))
  3295  001844  0E37               	movwf	((___flmul@a+1))&0ffh
  3296  001846  6F7D               	movlw	low highword(normalize32(0.13107199999999999))
  3297  001848  0E06               	movwf	((___flmul@a+2))&0ffh
  3298  00184A  6F7E               	movlw	high highword(normalize32(0.13107199999999999))
  3299  00184C  0E3E               	movwf	((___flmul@a+3))&0ffh
  3300  00184E  6F7F               	movff	(_main$1456),(___flmul@b)
  3301  001850  C13C  F078         	movff	(_main$1456+1),(___flmul@b+1)
  3302  001854  C13D  F079         	movff	(_main$1456+2),(___flmul@b+2)
  3303  001858  C13E  F07A         	movff	(_main$1456+3),(___flmul@b+3)
  3304  00185C  C13F  F07B         	call	___flmul	;wreg free
  3305  001860  ECA9  F00C         	movff	0+?___flmul,(___fladd@a)
  3306  001864  C078  F068         	movff	1+?___flmul,(___fladd@a+1)
  3307  001868  C079  F069         	movff	2+?___flmul,(___fladd@a+2)
  3308  00186C  C07A  F06A         	movff	3+?___flmul,(___fladd@a+3)
  3309  001870  C07B  F06B         	
  3310                           	movff	(_main$1458),(___fladd@b)
  3311  001874  C144  F064         	movff	(_main$1458+1),(___fladd@b+1)
  3312  001878  C145  F065         	movff	(_main$1458+2),(___fladd@b+2)
  3313  00187C  C146  F066         	movff	(_main$1458+3),(___fladd@b+3)
  3314  001880  C147  F067         	call	___fladd	;wreg free
  3315  001884  EC3F  F007         	movff	0+?___fladd,(___fltol@f1)
  3316  001888  C064  F0AA         	movff	1+?___fladd,(___fltol@f1+1)
  3317  00188C  C065  F0AB         	movff	2+?___fladd,(___fltol@f1+2)
  3318  001890  C066  F0AC         	movff	3+?___fladd,(___fltol@f1+3)
  3319  001894  C067  F0AD         	
  3320                           	call	___fltol	;wreg free
  3321  001898  EC46  F014         	movff	0+?___fltol,(_plus)
  3322  00189C  C0AA  F0CE         	movff	1+?___fltol,(_plus+1)
  3323  0018A0  C0AB  F0CF         	line	87
  3324                           	
  3325                           l4185:
  3326  0018A4                     ;main.c: 87: if (plus>=20) {
  3327                           	movlb	0	; () banked
  3328  0018A4  0100               	btfsc	((_plus+1))&0ffh,7
  3329  0018A6  BFCF               	goto	u5321
  3330  0018A8  EF5F  F00C         	movf	((_plus+1))&0ffh,w
  3331  0018AC  51CF               	bnz	u5320
  3332  0018AE  E109               	movlw	20
  3333  0018B0  0E14               	subwf	 ((_plus))&0ffh,w
  3334  0018B2  5DCE               	btfss	status,0
  3335  0018B4  A0D8               	goto	u5321
  3336  0018B6  EF5F  F00C         	goto	u5320
  3337  0018BA  EF61  F00C         
  3338                           u5321:
  3339  0018BE                     	goto	l4189
  3340  0018BE  EF67  F00C         u5320:
  3341  0018C2                     	line	88
  3342                           	
  3343                           l4187:; BSR set to: 0
  3344  0018C2                     
  3345                           ;main.c: 88: plus=8;
  3346                           	movlw	high(08h)
  3347  0018C2  0E00               	movwf	((_plus+1))&0ffh
  3348  0018C4  6FCF               	movlw	low(08h)
  3349  0018C6  0E08               	movwf	((_plus))&0ffh
  3350  0018C8  6FCE               	line	89
  3351                           ;main.c: 89: } else if (plus<=-20) {
  3352                           	goto	l4193
  3353  0018CA  EF7D  F00C         	
  3354                           l104:; BSR set to: 0
  3355  0018CE                     
  3356                           	
  3357                           l4189:; BSR set to: 0
  3358  0018CE                     
  3359                           	btfss	((_plus+1))&0ffh,7
  3360  0018CE  AFCF               	goto	u5331
  3361  0018D0  EF73  F00C         	movlw	237
  3362  0018D4  0EED               	subwf	 ((_plus))&0ffh,w
  3363  0018D6  5DCE               	movlw	255
  3364  0018D8  0EFF               	subwfb	((_plus+1))&0ffh,w
  3365  0018DA  59CF               	btfsc	status,0
  3366  0018DC  B0D8               	goto	u5331
  3367  0018DE  EF73  F00C         	goto	u5330
  3368  0018E2  EF75  F00C         
  3369                           u5331:
  3370  0018E6                     	goto	l4193
  3371  0018E6  EF7D  F00C         u5330:
  3372  0018EA                     	line	90
  3373                           	
  3374                           l4191:; BSR set to: 0
  3375  0018EA                     
  3376                           ;main.c: 90: plus=-8;
  3377                           	movlw	high(-8)
  3378  0018EA  0EFF               	movwf	((_plus+1))&0ffh
  3379  0018EC  6FCF               	movlw	low(-8)
  3380  0018EE  0EF8               	movwf	((_plus))&0ffh
  3381  0018F0  6FCE               	goto	l4193
  3382  0018F2  EF7D  F00C         	line	91
  3383                           	
  3384                           l106:; BSR set to: 0
  3385  0018F6                     
  3386                           	goto	l4193
  3387  0018F6  EF7D  F00C         	line	92
  3388                           	
  3389                           l105:; BSR set to: 0
  3390  0018FA                     
  3391                           	
  3392                           l4193:; BSR set to: 0
  3393  0018FA                     
  3394                           ;main.c: 91: }
  3395                           ;main.c: 92: CCPR2L -= plus;
  3396                           	movf	((_plus))&0ffh,w
  3397  0018FA  51CE               	subwf	((c:4027)),c	;volatile
  3398  0018FC  5EBB               	line	93
  3399                           	
  3400                           l4195:; BSR set to: 0
  3401  0018FE                     
  3402                           ;main.c: 93: if(CCPR2L>=255){
  3403                           		incf	((c:4027)),c,w	;volatile
  3404  0018FE  28BB               	btfss	status,2
  3405  001900  A4D8               	goto	u5341
  3406  001902  EF85  F00C         	goto	u5340
  3407  001906  EF87  F00C         
  3408                           u5341:
  3409  00190A                     	goto	l4199
  3410  00190A  EF8B  F00C         u5340:
  3411  00190E                     	line	94
  3412                           	
  3413                           l4197:; BSR set to: 0
  3414  00190E                     
  3415                           ;main.c: 94: CCPR2L=254;
  3416                           	movlw	low(0FEh)
  3417  00190E  0EFE               	movwf	((c:4027)),c	;volatile
  3418  001910  6EBB               	line	95
  3419                           ;main.c: 95: } else if (CCPR2L<=0){
  3420                           	goto	l4203
  3421  001912  EF99  F00C         	
  3422                           l107:; BSR set to: 0
  3423  001916                     
  3424                           	
  3425                           l4199:; BSR set to: 0
  3426  001916                     
  3427                           	movf	((c:4027)),c,w	;volatile
  3428  001916  50BB               	btfss	status,2
  3429  001918  A4D8               	goto	u5351
  3430  00191A  EF91  F00C         	goto	u5350
  3431  00191E  EF93  F00C         u5351:
  3432  001922                     	goto	l4203
  3433  001922  EF99  F00C         u5350:
  3434  001926                     	line	96
  3435                           	
  3436                           l4201:; BSR set to: 0
  3437  001926                     
  3438                           ;main.c: 96: CCPR2L=1;
  3439                           	movlw	low(01h)
  3440  001926  0E01               	movwf	((c:4027)),c	;volatile
  3441  001928  6EBB               	goto	l4203
  3442  00192A  EF99  F00C         	line	97
  3443                           	
  3444                           l109:; BSR set to: 0
  3445  00192E                     
  3446                           	goto	l4203
  3447  00192E  EF99  F00C         	line	98
  3448                           	
  3449                           l108:; BSR set to: 0
  3450  001932                     
  3451                           	
  3452                           l4203:; BSR set to: 0
  3453  001932                     
  3454                           ;main.c: 97: }
  3455                           ;main.c: 98: errorv = errora;
  3456                           	movff	(_errora),(_errorv)
  3457  001932  C0C2  F0BE         	movff	(_errora+1),(_errorv+1)
  3458  001936  C0C3  F0BF         	movff	(_errora+2),(_errorv+2)
  3459  00193A  C0C4  F0C0         	movff	(_errora+3),(_errorv+3)
  3460  00193E  C0C5  F0C1         	goto	l4137
  3461  001942  EF0E  F00A         	line	99
  3462                           	
  3463                           l103:; BSR set to: 0
  3464  001946                     
  3465                           	goto	l4137
  3466  001946  EF0E  F00A         	line	100
  3467                           	
  3468                           l110:; BSR set to: 0
  3469  00194A                     
  3470                           	line	56
  3471                           	goto	l4137
  3472  00194A  EF0E  F00A         	
  3473                           l111:; BSR set to: 0
  3474  00194E                     
  3475                           	line	101
  3476                           	
  3477                           l112:; BSR set to: 0
  3478  00194E                     
  3479                           	global	start
  3480                           	goto	start
  3481  00194E  EF63  F000         	opt stack 0
  3482                           GLOBAL	__end_of_main
  3483                           	__end_of_main:
  3484  001952                     	signat	_main,89
  3485                           	global	_sprintf
  3486                           
  3487 ;; *************** function _sprintf *****************
  3488 ;; Defined at:
  3489 ;;		line 492 in file "/Applications/microchip/xc8/v1.45/sources/common/doprnt.c"
  3490 ;; Parameters:    Size  Location     Type
  3491 ;;  sp              2   12[BANK0 ] PTR unsigned char 
  3492 ;;		 -> send(20), 
  3493 ;;  f               2   14[BANK0 ] PTR const unsigned char 
  3494 ;;		 -> STR_1(4), 
  3495 ;; Auto vars:     Size  Location     Type
  3496 ;;  tmpval          4    0        struct .
  3497 ;;  cp              3    0        PTR const unsigned char 
  3498 ;;  val             2   23[BANK0 ] unsigned int 
  3499 ;;  ap              2   19[BANK0 ] PTR void [1]
  3500 ;;		 -> ?_sprintf(2), 
  3501 ;;  len             2    0        unsigned int 
  3502 ;;  c               1   25[BANK0 ] char 
  3503 ;;  prec            1   22[BANK0 ] char 
  3504 ;;  flag            1   21[BANK0 ] unsigned char 
  3505 ;; Return value:  Size  Location     Type
  3506 ;;                  2   12[BANK0 ] int 
  3507 ;; Registers used:
  3508 ;;		wreg, fsr2l, fsr2h, status,2, status,0, tblptrl, tblptrh, tblptru, prodl, prodh, cstack
  3509 ;; Tracked objects:
  3510 ;;		On entry : 0/0
  3511 ;;		On exit  : 0/0
  3512 ;;		Unchanged: 0/0
  3513 ;; Data sizes:     COMRAM   BANK0   BANK1   BANK2   BANK3   BANK4   BANK5   BANK6   BANK7
  3514 ;;      Params:         0       6       0       0       0       0       0       0       0
  3515 ;;      Locals:         0       7       0       0       0       0       0       0       0
  3516 ;;      Temps:          0       1       0       0       0       0       0       0       0
  3517 ;;      Totals:         0      14       0       0       0       0       0       0       0
  3518 ;;Total ram usage:       14 bytes
  3519 ;; Hardware stack levels used:    1
  3520 ;; Hardware stack levels required when called:    3
  3521 ;; This function calls:
  3522 ;;		___lwdiv
  3523 ;;		___lwmod
  3524 ;; This function is called by:
  3525 ;;		_main
  3526 ;; This function uses a non-reentrant model
  3527 ;;
  3528                           psect	text1,class=CODE,space=0,reloc=2,group=0
  3529                           	file	"/Applications/microchip/xc8/v1.45/sources/common/doprnt.c"
  3530                           	line	492
  3531                           global __ptext1
  3532                           __ptext1:
  3533  0021E0                     psect	text1
  3534                           	file	"/Applications/microchip/xc8/v1.45/sources/common/doprnt.c"
  3535                           	line	492
  3536                           	global	__size_of_sprintf
  3537                           	__size_of_sprintf	equ	__end_of_sprintf-_sprintf
  3538  0000                     	
  3539                           _sprintf:; BSR set to: 0
  3540  0021E0                     
  3541                           ;incstack = 0
  3542                           	opt	stack 27
  3543                           	line	533
  3544                           	
  3545                           l3819:
  3546  0021E0                     ;doprnt.c: 494: va_list ap;
  3547                           ;doprnt.c: 499: signed char c;
  3548                           ;doprnt.c: 506: signed char prec;
  3549                           ;doprnt.c: 508: unsigned char flag;
  3550                           ;doprnt.c: 523: union {
  3551                           ;doprnt.c: 524: unsigned long vd;
  3552                           ;doprnt.c: 525: double integ;
  3553                           ;doprnt.c: 526: } tmpval;
  3554                           ;doprnt.c: 528: unsigned int val;
  3555                           ;doprnt.c: 529: unsigned len;
  3556                           ;doprnt.c: 530: const char * cp;
  3557                           ;doprnt.c: 533: *ap = __va_start();
  3558                           		movlw	low(?_sprintf+04h)
  3559  0021E0  0E70               	movlb	0	; () banked
  3560  0021E2  0100               	movwf	((sprintf@ap))&0ffh
  3561  0021E4  6F73               	movlw	high(?_sprintf+04h)
  3562  0021E6  0E00               	movwf	((sprintf@ap+1))&0ffh
  3563  0021E8  6F74               
  3564                           	line	536
  3565                           ;doprnt.c: 536: while(c = *f++) {
  3566                           	goto	l3873
  3567  0021EA  EFD2  F011         	
  3568                           l199:; BSR set to: 0
  3569  0021EE                     
  3570                           	line	538
  3571                           	
  3572                           l3821:; BSR set to: 0
  3573  0021EE                     
  3574                           ;doprnt.c: 538: if(c != '%')
  3575                           		movlw	37
  3576  0021EE  0E25               	xorwf	((sprintf@c))&0ffh,w
  3577  0021F0  1979               	btfsc	status,2
  3578  0021F2  B4D8               	goto	u4731
  3579  0021F4  EFFE  F010         	goto	u4730
  3580  0021F8  EF00  F011         
  3581                           u4731:
  3582  0021FC                     	goto	l3827
  3583  0021FC  EF0A  F011         u4730:
  3584  002200                     	line	541
  3585                           	
  3586                           l3823:; BSR set to: 0
  3587  002200                     
  3588                           ;doprnt.c: 540: {
  3589                           ;doprnt.c: 541: ((*sp++ = (c)));
  3590                           	movff	(sprintf@sp),fsr2l
  3591  002200  C06C  FFD9         	movff	(sprintf@sp+1),fsr2h
  3592  002204  C06D  FFDA         	movff	(sprintf@c),indf2
  3593  002208  C079  FFDF         
  3594                           	
  3595                           l3825:; BSR set to: 0
  3596  00220C                     
  3597                           	infsnz	((sprintf@sp))&0ffh
  3598  00220C  4B6C               	incf	((sprintf@sp+1))&0ffh
  3599  00220E  2B6D               	line	542
  3600                           ;doprnt.c: 542: continue;
  3601                           	goto	l3873
  3602  002210  EFD2  F011         	line	543
  3603                           	
  3604                           l200:; BSR set to: 0
  3605  002214                     
  3606                           	line	548
  3607                           	
  3608                           l3827:; BSR set to: 0
  3609  002214                     
  3610                           ;doprnt.c: 543: }
  3611                           ;doprnt.c: 548: flag = 0;
  3612                           	movlw	low(0)
  3613  002214  0E00               	movwf	((sprintf@flag))&0ffh
  3614  002216  6F75               	line	635
  3615                           ;doprnt.c: 635: switch(c = *f++) {
  3616                           	goto	l3831
  3617  002218  EF18  F011         	line	637
  3618                           ;doprnt.c: 637: case 0:
  3619                           	
  3620                           l202:; BSR set to: 0
  3621  00221C                     
  3622                           	line	638
  3623                           ;doprnt.c: 638: goto alldone;
  3624                           	goto	l3875
  3625  00221C  EFE7  F011         	line	697
  3626                           ;doprnt.c: 697: case 'd':
  3627                           	
  3628                           l204:; BSR set to: 0
  3629  002220                     
  3630                           	goto	l3833
  3631  002220  EF30  F011         	line	698
  3632                           	
  3633                           l205:; BSR set to: 0
  3634  002224                     
  3635                           	line	699
  3636                           ;doprnt.c: 698: case 'i':
  3637                           ;doprnt.c: 699: break;
  3638                           	goto	l3833
  3639  002224  EF30  F011         	line	802
  3640                           ;doprnt.c: 802: default:
  3641                           	
  3642                           l207:; BSR set to: 0
  3643  002228                     
  3644                           	line	813
  3645                           ;doprnt.c: 813: continue;
  3646                           	goto	l3873
  3647  002228  EFD2  F011         	line	822
  3648                           	
  3649                           l3829:; BSR set to: 0
  3650  00222C                     
  3651                           ;doprnt.c: 822: }
  3652                           	goto	l3833
  3653  00222C  EF30  F011         	line	635
  3654                           	
  3655                           l201:; BSR set to: 0
  3656  002230                     
  3657                           	
  3658                           l3831:; BSR set to: 0
  3659  002230                     
  3660                           	movff	(sprintf@f),tblptrl
  3661  002230  C06E  FFF6         	movff	(sprintf@f+1),tblptrh
  3662  002234  C06F  FFF7         	infsnz	((sprintf@f))&0ffh
  3663  002238  4B6E               	incf	((sprintf@f+1))&0ffh
  3664  00223A  2B6F               	if	0	;tblptru may be non-zero
  3665  00223C                     	clrf	tblptru
  3667  00223C                     	if	0	;tblptru may be non-zero
  3668  00223C                     	global __mediumconst
  3669                           movlw	low highword(__mediumconst)
  3672  00223C                     	tblrd	*
  3673  00223C  0008               	
  3674                           	movff	tablat,(sprintf@c)
  3675  00223E  CFF5 F079          	movf	((sprintf@c))&0ffh,w
  3676  002242  5179               	; Switch size 1, requested type "space"
  3677                           ; Number of cases is 3, Range of values is 0 to 105
  3678                           ; switch strategies available:
  3679                           ; Name         Instructions Cycles
  3680                           ; simple_byte           10     6 (average)
  3681                           ;	Chosen strategy is simple_byte
  3682                           
  3683                           	xorlw	0^0	; case 0
  3684  002244  0A00               	skipnz
  3685  002246  B4D8               	goto	l3875
  3686  002248  EFE7  F011         	xorlw	100^0	; case 100
  3687  00224C  0A64               	skipnz
  3688  00224E  B4D8               	goto	l3833
  3689  002250  EF30  F011         	xorlw	105^100	; case 105
  3690  002254  0A0D               	skipnz
  3691  002256  B4D8               	goto	l3833
  3692  002258  EF30  F011         	goto	l3873
  3693  00225C  EFD2  F011         
  3694                           	line	822
  3695                           	
  3696                           l206:; BSR set to: 0
  3697  002260                     
  3698                           	line	1259
  3699                           	
  3700                           l3833:; BSR set to: 0
  3701  002260                     
  3702                           ;doprnt.c: 1253: {
  3703                           ;doprnt.c: 1259: val = (int)(*(int *)__va_arg((*(int **)ap), (int)0));
  3704                           	movff	(sprintf@ap),fsr2l
  3705  002260  C073  FFD9         	movff	(sprintf@ap+1),fsr2h
  3706  002264  C074  FFDA         	movff	postinc2,(sprintf@val)
  3707  002268  CFDE F077          	movff	postdec2,(sprintf@val+1)
  3708  00226C  CFDD F078          	
  3709                           l3835:; BSR set to: 0
  3710  002270                     
  3711                           	movlw	02h
  3712  002270  0E02               	addwf	((sprintf@ap))&0ffh
  3713  002272  2773               	movlw	0
  3714  002274  0E00               	addwfc	((sprintf@ap+1))&0ffh
  3715  002276  2374               	line	1261
  3716                           	
  3717                           l3837:; BSR set to: 0
  3718  002278                     
  3719                           ;doprnt.c: 1261: if((int)val < 0) {
  3720                           	btfsc	((sprintf@val+1))&0ffh,7
  3721  002278  BF78               	goto	u4740
  3722  00227A  EF43  F011         	goto	u4741
  3723  00227E  EF41  F011         
  3724                           u4741:
  3725  002282                     	goto	l3843
  3726  002282  EF4B  F011         u4740:
  3727  002286                     	line	1262
  3728                           	
  3729                           l3839:; BSR set to: 0
  3730  002286                     
  3731                           ;doprnt.c: 1262: flag |= 0x03;
  3732                           	movlw	(03h)&0ffh
  3733  002286  0E03               	iorwf	((sprintf@flag))&0ffh
  3734  002288  1375               	line	1263
  3735                           	
  3736                           l3841:; BSR set to: 0
  3737  00228A                     
  3738                           ;doprnt.c: 1263: val = -val;
  3739                           	negf	((sprintf@val))&0ffh
  3740  00228A  6D77               	comf	((sprintf@val+1))&0ffh
  3741  00228C  1F78               	btfsc	status,0
  3742  00228E  B0D8               	incf	((sprintf@val+1))&0ffh
  3743  002290  2B78               	goto	l3843
  3744  002292  EF4B  F011         	line	1264
  3745                           	
  3746                           l208:; BSR set to: 0
  3747  002296                     
  3748                           	line	1305
  3749                           	
  3750                           l3843:; BSR set to: 0
  3751  002296                     
  3752                           ;doprnt.c: 1264: }
  3753                           ;doprnt.c: 1266: }
  3754                           ;doprnt.c: 1305: for(c = 1 ; c != sizeof dpowers/sizeof dpowers[0] ; c++)
  3755                           	movlw	low(01h)
  3756  002296  0E01               	movwf	((sprintf@c))&0ffh
  3757  002298  6F79               	
  3758                           l3845:; BSR set to: 0
  3759  00229A                     
  3760                           		movlw	5
  3761  00229A  0E05               	xorwf	((sprintf@c))&0ffh,w
  3762  00229C  1979               	btfss	status,2
  3763  00229E  A4D8               	goto	u4751
  3764  0022A0  EF54  F011         	goto	u4750
  3765  0022A4  EF56  F011         
  3766                           u4751:
  3767  0022A8                     	goto	l3849
  3768  0022A8  EF5A  F011         u4750:
  3769  0022AC                     	goto	l3857
  3770  0022AC  EF7F  F011         	
  3771                           l3847:; BSR set to: 0
  3772  0022B0                     
  3773                           	goto	l3857
  3774  0022B0  EF7F  F011         	line	1306
  3775                           	
  3776                           l209:; BSR set to: 0
  3777  0022B4                     
  3778                           	
  3779                           l3849:; BSR set to: 0
  3780  0022B4                     
  3781                           ;doprnt.c: 1306: if(val < dpowers[c])
  3782                           	movf	((sprintf@c))&0ffh,w
  3783  0022B4  5179               	mullw	02h
  3784  0022B6  0D02               	movlw	low((_dpowers))
  3785  0022B8  0E01               	addwf	(prodl),c,w
  3786  0022BA  24F3               	movwf	tblptrl
  3787  0022BC  6EF6               	movlw	high((_dpowers))
  3788  0022BE  0E08               	addwfc	(prodh),c,w
  3789  0022C0  20F4               	movwf	tblptrh
  3790  0022C2  6EF7               	if	0	;There are less than 3 active tblptr bytes
  3791  0022C4                     	clrf	tblptru
  3793                           	global __mediumconst
  3796  0022C4                     		tblrd	*+
  3797  0022C4  0009               	movf	tablat,w
  3798  0022C6  50F5               	subwf	((sprintf@val))&0ffh,w
  3799  0022C8  5D77               	tblrd	*+
  3800  0022CA  0009               	movf	tablat,w
  3801  0022CC  50F5               	subwfb	((sprintf@val+1))&0ffh,w
  3802  0022CE  5978               	btfsc	status,0
  3803  0022D0  B0D8               	goto	u4761
  3804  0022D2  EF6D  F011         	goto	u4760
  3805  0022D6  EF6F  F011         
  3806                           u4761:
  3807  0022DA                     	goto	l3853
  3808  0022DA  EF73  F011         u4760:
  3809  0022DE                     	goto	l3857
  3810  0022DE  EF7F  F011         	line	1307
  3811                           	
  3812                           l3851:; BSR set to: 0
  3813  0022E2                     
  3814                           ;doprnt.c: 1307: break;
  3815                           	goto	l3857
  3816  0022E2  EF7F  F011         	
  3817                           l211:; BSR set to: 0
  3818  0022E6                     
  3819                           	line	1305
  3820                           	
  3821                           l3853:; BSR set to: 0
  3822  0022E6                     
  3823                           	incf	((sprintf@c))&0ffh
  3824  0022E6  2B79               	
  3825                           l3855:; BSR set to: 0
  3826  0022E8                     
  3827                           		movlw	5
  3828  0022E8  0E05               	xorwf	((sprintf@c))&0ffh,w
  3829  0022EA  1979               	btfss	status,2
  3830  0022EC  A4D8               	goto	u4771
  3831  0022EE  EF7B  F011         	goto	u4770
  3832  0022F2  EF7D  F011         
  3833                           u4771:
  3834  0022F6                     	goto	l3849
  3835  0022F6  EF5A  F011         u4770:
  3836  0022FA                     	goto	l3857
  3837  0022FA  EF7F  F011         	
  3838                           l210:; BSR set to: 0
  3839  0022FE                     
  3840                           	line	1438
  3841                           	
  3842                           l3857:; BSR set to: 0
  3843  0022FE                     
  3844                           ;doprnt.c: 1422: {
  3845                           ;doprnt.c: 1438: if(flag & 0x03)
  3846                           	movff	(sprintf@flag),??_sprintf+0+0
  3847  0022FE  C075  F072         	movlw	03h
  3848  002302  0E03               	andwf	(??_sprintf+0+0)&0ffh
  3849  002304  1772               	btfsc	status,2
  3850  002306  B4D8               	goto	u4781
  3851  002308  EF88  F011         	goto	u4780
  3852  00230C  EF8A  F011         u4781:
  3853  002310                     	goto	l3863
  3854  002310  EF94  F011         u4780:
  3855  002314                     	line	1439
  3856                           	
  3857                           l3859:; BSR set to: 0
  3858  002314                     
  3859                           ;doprnt.c: 1439: ((*sp++ = ('-')));
  3860                           	movff	(sprintf@sp),fsr2l
  3861  002314  C06C  FFD9         	movff	(sprintf@sp+1),fsr2h
  3862  002318  C06D  FFDA         	movlw	low(02Dh)
  3863  00231C  0E2D               	movwf	indf2
  3864  00231E  6EDF               	
  3865                           l3861:; BSR set to: 0
  3866  002320                     
  3867                           	infsnz	((sprintf@sp))&0ffh
  3868  002320  4B6C               	incf	((sprintf@sp+1))&0ffh
  3869  002322  2B6D               	goto	l3863
  3870  002324  EF94  F011         	
  3871                           l212:; BSR set to: 0
  3872  002328                     
  3873                           	line	1472
  3874                           	
  3875                           l3863:; BSR set to: 0
  3876  002328                     
  3877                           ;doprnt.c: 1469: }
  3878                           ;doprnt.c: 1472: prec = c;
  3879                           	movff	(sprintf@c),(sprintf@prec)
  3880  002328  C079  F076         	line	1474
  3881                           ;doprnt.c: 1474: while(prec--) {
  3882                           	goto	l3871
  3883  00232C  EFC5  F011         	
  3884                           l214:; BSR set to: 0
  3885  002330                     
  3886                           	line	1489
  3887                           	
  3888                           l3865:; BSR set to: 0
  3889  002330                     
  3890                           ;doprnt.c: 1478: {
  3891                           ;doprnt.c: 1489: c = (val / dpowers[prec]) % 10 + '0';
  3892                           	movf	((sprintf@prec))&0ffh,w
  3893  002330  5176               	mullw	02h
  3894  002332  0D02               	movlw	low((_dpowers))
  3895  002334  0E01               	addwf	(prodl),c,w
  3896  002336  24F3               	movwf	tblptrl
  3897  002338  6EF6               	movlw	high((_dpowers))
  3898  00233A  0E08               	addwfc	(prodh),c,w
  3899  00233C  20F4               	movwf	tblptrh
  3900  00233E  6EF7               	if	0	;There are less than 3 active tblptr bytes
  3901  002340                     	clrf	tblptru
  3903                           	global __mediumconst
  3906  002340                     	tblrd*+
  3907  002340  0009               	
  3908                           	movff	tablat,(___lwdiv@divisor)
  3909  002342  CFF5 F062          	tblrd*-
  3910  002346  000A               	
  3911                           	movff	tablat,(___lwdiv@divisor+1)
  3912  002348  CFF5 F063          
  3913                           	movff	(sprintf@val),(___lwdiv@dividend)
  3914  00234C  C077  F060         	movff	(sprintf@val+1),(___lwdiv@dividend+1)
  3915  002350  C078  F061         	call	___lwdiv	;wreg free
  3916  002354  EC8E  F015         	movff	0+?___lwdiv,(___lwmod@dividend)
  3917  002358  C060  F067         	movff	1+?___lwdiv,(___lwmod@dividend+1)
  3918  00235C  C061  F068         	movlw	high(0Ah)
  3919  002360  0E00               	movlb	0	; () banked
  3920  002362  0100               	movwf	((___lwmod@divisor+1))&0ffh
  3921  002364  6F6A               	movlw	low(0Ah)
  3922  002366  0E0A               	movwf	((___lwmod@divisor))&0ffh
  3923  002368  6F69               	call	___lwmod	;wreg free
  3924  00236A  EC13  F016         	movlb	0	; () banked
  3925  00236E  0100               	movf	(0+?___lwmod)&0ffh,w
  3926  002370  5167               	addlw	low(030h)
  3927  002372  0F30               	movwf	((sprintf@c))&0ffh
  3928  002374  6F79               	line	1524
  3929                           	
  3930                           l3867:; BSR set to: 0
  3931  002376                     
  3932                           ;doprnt.c: 1523: }
  3933                           ;doprnt.c: 1524: ((*sp++ = (c)));
  3934                           	movff	(sprintf@sp),fsr2l
  3935  002376  C06C  FFD9         	movff	(sprintf@sp+1),fsr2h
  3936  00237A  C06D  FFDA         	movff	(sprintf@c),indf2
  3937  00237E  C079  FFDF         
  3938                           	
  3939                           l3869:; BSR set to: 0
  3940  002382                     
  3941                           	infsnz	((sprintf@sp))&0ffh
  3942  002382  4B6C               	incf	((sprintf@sp+1))&0ffh
  3943  002384  2B6D               	goto	l3871
  3944  002386  EFC5  F011         	line	1525
  3945                           	
  3946                           l213:; BSR set to: 0
  3947  00238A                     
  3948                           	line	1474
  3949                           	
  3950                           l3871:; BSR set to: 0
  3951  00238A                     
  3952                           	decf	((sprintf@prec))&0ffh
  3953  00238A  0776               		incf	((sprintf@prec))&0ffh,w
  3954  00238C  2976               	btfss	status,2
  3955  00238E  A4D8               	goto	u4791
  3956  002390  EFCC  F011         	goto	u4790
  3957  002394  EFCE  F011         
  3958                           u4791:
  3959  002398                     	goto	l3865
  3960  002398  EF98  F011         u4790:
  3961  00239C                     	goto	l3873
  3962  00239C  EFD2  F011         	
  3963                           l215:; BSR set to: 0
  3964  0023A0                     
  3965                           	goto	l3873
  3966  0023A0  EFD2  F011         	line	1533
  3967                           	
  3968                           l198:; BSR set to: 0
  3969  0023A4                     
  3970                           	line	536
  3971                           	
  3972                           l3873:; BSR set to: 0
  3973  0023A4                     
  3974                           	movff	(sprintf@f),tblptrl
  3975  0023A4  C06E  FFF6         	movff	(sprintf@f+1),tblptrh
  3976  0023A8  C06F  FFF7         	infsnz	((sprintf@f))&0ffh
  3977  0023AC  4B6E               	incf	((sprintf@f+1))&0ffh
  3978  0023AE  2B6F               	if	0	;tblptru may be non-zero
  3979  0023B0                     	clrf	tblptru
  3981  0023B0                     	if	0	;tblptru may be non-zero
  3982  0023B0                     	global __mediumconst
  3983                           movlw	low highword(__mediumconst)
  3986  0023B0                     	tblrd	*
  3987  0023B0  0008               	
  3988                           	movff	tablat,(sprintf@c)
  3989  0023B2  CFF5 F079          	movf	((sprintf@c))&0ffh,w
  3990  0023B6  5179               	btfss	status,2
  3991  0023B8  A4D8               	goto	u4801
  3992  0023BA  EFE1  F011         	goto	u4800
  3993  0023BE  EFE3  F011         u4801:
  3994  0023C2                     	goto	l3821
  3995  0023C2  EFF7  F010         u4800:
  3996  0023C6                     	goto	l3875
  3997  0023C6  EFE7  F011         	
  3998                           l216:; BSR set to: 0
  3999  0023CA                     
  4000                           	goto	l3875
  4001  0023CA  EFE7  F011         	line	1535
  4002                           ;doprnt.c: 1525: }
  4003                           ;doprnt.c: 1533: }
  4004                           ;doprnt.c: 1535: alldone:
  4005                           	
  4006                           l203:; BSR set to: 0
  4007  0023CE                     
  4008                           	line	1538
  4009                           	
  4010                           l3875:; BSR set to: 0
  4011  0023CE                     
  4012                           ;doprnt.c: 1538: *sp = 0;
  4013                           	movff	(sprintf@sp),fsr2l
  4014  0023CE  C06C  FFD9         	movff	(sprintf@sp+1),fsr2h
  4015  0023D2  C06D  FFDA         	movlw	low(0)
  4016  0023D6  0E00               	movwf	indf2
  4017  0023D8  6EDF               	goto	l217
  4018  0023DA  EFEF  F011         	line	1540
  4019                           	
  4020                           l3877:; BSR set to: 0
  4021  0023DE                     
  4022                           	line	1541
  4023                           ;doprnt.c: 1540: return 0;
  4024                           ;	Return value of _sprintf is never used
  4025                           	
  4026                           l217:; BSR set to: 0
  4027  0023DE                     
  4028                           	return	;funcret
  4029  0023DE  0012               	opt stack 0
  4030                           GLOBAL	__end_of_sprintf
  4031                           	__end_of_sprintf:
  4032  0023E0                     	signat	_sprintf,4698
  4033                           	global	___lwmod
  4034                           
  4035 ;; *************** function ___lwmod *****************
  4036 ;; Defined at:
  4037 ;;		line 8 in file "/Applications/microchip/xc8/v1.45/sources/common/lwmod.c"
  4038 ;; Parameters:    Size  Location     Type
  4039 ;;  dividend        2    7[BANK0 ] unsigned int 
  4040 ;;  divisor         2    9[BANK0 ] unsigned int 
  4041 ;; Auto vars:     Size  Location     Type
  4042 ;;  counter         1   11[BANK0 ] unsigned char 
  4043 ;; Return value:  Size  Location     Type
  4044 ;;                  2    7[BANK0 ] unsigned int 
  4045 ;; Registers used:
  4046 ;;		wreg, status,2, status,0
  4047 ;; Tracked objects:
  4048 ;;		On entry : 0/0
  4049 ;;		On exit  : 0/0
  4050 ;;		Unchanged: 0/0
  4051 ;; Data sizes:     COMRAM   BANK0   BANK1   BANK2   BANK3   BANK4   BANK5   BANK6   BANK7
  4052 ;;      Params:         0       4       0       0       0       0       0       0       0
  4053 ;;      Locals:         0       1       0       0       0       0       0       0       0
  4054 ;;      Temps:          0       0       0       0       0       0       0       0       0
  4055 ;;      Totals:         0       5       0       0       0       0       0       0       0
  4056 ;;Total ram usage:        5 bytes
  4057 ;; Hardware stack levels used:    1
  4058 ;; Hardware stack levels required when called:    2
  4059 ;; This function calls:
  4060 ;;		Nothing
  4061 ;; This function is called by:
  4062 ;;		_sprintf
  4063 ;; This function uses a non-reentrant model
  4064 ;;
  4065                           psect	text2,class=CODE,space=0,reloc=2,group=1
  4066                           	file	"/Applications/microchip/xc8/v1.45/sources/common/lwmod.c"
  4067                           	line	8
  4068                           global __ptext2
  4069                           __ptext2:
  4070  002C26                     psect	text2
  4071                           	file	"/Applications/microchip/xc8/v1.45/sources/common/lwmod.c"
  4072                           	line	8
  4073                           	global	__size_of___lwmod
  4074                           	__size_of___lwmod	equ	__end_of___lwmod-___lwmod
  4075  0000                     	
  4076                           ___lwmod:; BSR set to: 0
  4077  002C26                     
  4078                           ;incstack = 0
  4079                           	opt	stack 27
  4080                           	line	13
  4081                           	
  4082                           l3711:
  4083  002C26                     	movlb	0	; () banked
  4084  002C26  0100               	movf	((___lwmod@divisor))&0ffh,w
  4085  002C28  5169               iorwf	((___lwmod@divisor+1))&0ffh,w
  4086  002C2A  116A               	btfsc	status,2
  4087  002C2C  B4D8               	goto	u4641
  4088  002C2E  EF1B  F016         	goto	u4640
  4089  002C32  EF1D  F016         
  4090                           u4641:
  4091  002C36                     	goto	l716
  4092  002C36  EF4B  F016         u4640:
  4093  002C3A                     	line	14
  4094                           	
  4095                           l3713:; BSR set to: 0
  4096  002C3A                     
  4097                           	movlw	low(01h)
  4098  002C3A  0E01               	movwf	((___lwmod@counter))&0ffh
  4099  002C3C  6F6B               	line	15
  4100                           	goto	l3717
  4101  002C3E  EF27  F016         	
  4102                           l718:; BSR set to: 0
  4103  002C42                     
  4104                           	line	16
  4105                           	
  4106                           l3715:; BSR set to: 0
  4107  002C42                     
  4108                           	bcf	status,0
  4109  002C42  90D8               	rlcf	((___lwmod@divisor))&0ffh
  4110  002C44  3769               	rlcf	((___lwmod@divisor+1))&0ffh
  4111  002C46  376A               	line	17
  4112                           	incf	((___lwmod@counter))&0ffh
  4113  002C48  2B6B               	goto	l3717
  4114  002C4A  EF27  F016         	line	18
  4115                           	
  4116                           l717:; BSR set to: 0
  4117  002C4E                     
  4118                           	line	15
  4119                           	
  4120                           l3717:; BSR set to: 0
  4121  002C4E                     
  4122                           	
  4123                           	btfss	((___lwmod@divisor+1))&0ffh,(15)&7
  4124  002C4E  AF6A               	goto	u4651
  4125  002C50  EF2C  F016         	goto	u4650
  4126  002C54  EF2E  F016         u4651:
  4127  002C58                     	goto	l3715
  4128  002C58  EF21  F016         u4650:
  4129  002C5C                     	goto	l3719
  4130  002C5C  EF32  F016         	
  4131                           l719:; BSR set to: 0
  4132  002C60                     
  4133                           	goto	l3719
  4134  002C60  EF32  F016         	line	19
  4135                           	
  4136                           l720:; BSR set to: 0
  4137  002C64                     
  4138                           	line	20
  4139                           	
  4140                           l3719:; BSR set to: 0
  4141  002C64                     
  4142                           		movf	((___lwmod@divisor))&0ffh,w
  4143  002C64  5169               	subwf	((___lwmod@dividend))&0ffh,w
  4144  002C66  5D67               	movf	((___lwmod@divisor+1))&0ffh,w
  4145  002C68  516A               	subwfb	((___lwmod@dividend+1))&0ffh,w
  4146  002C6A  5968               	btfss	status,0
  4147  002C6C  A0D8               	goto	u4661
  4148  002C6E  EF3B  F016         	goto	u4660
  4149  002C72  EF3D  F016         
  4150                           u4661:
  4151  002C76                     	goto	l3723
  4152  002C76  EF43  F016         u4660:
  4153  002C7A                     	line	21
  4154                           	
  4155                           l3721:; BSR set to: 0
  4156  002C7A                     
  4157                           	movf	((___lwmod@divisor))&0ffh,w
  4158  002C7A  5169               	subwf	((___lwmod@dividend))&0ffh
  4159  002C7C  5F67               	movf	((___lwmod@divisor+1))&0ffh,w
  4160  002C7E  516A               	subwfb	((___lwmod@dividend+1))&0ffh
  4161  002C80  5B68               
  4162                           	goto	l3723
  4163  002C82  EF43  F016         	
  4164                           l721:; BSR set to: 0
  4165  002C86                     
  4166                           	line	22
  4167                           	
  4168                           l3723:; BSR set to: 0
  4169  002C86                     
  4170                           	bcf	status,0
  4171  002C86  90D8               	rrcf	((___lwmod@divisor+1))&0ffh
  4172  002C88  336A               	rrcf	((___lwmod@divisor))&0ffh
  4173  002C8A  3369               	line	23
  4174                           	
  4175                           l3725:; BSR set to: 0
  4176  002C8C                     
  4177                           	decfsz	((___lwmod@counter))&0ffh
  4178  002C8C  2F6B               	
  4179                           	goto	l3719
  4180  002C8E  EF32  F016         	goto	l716
  4181  002C92  EF4B  F016         	
  4182                           l722:; BSR set to: 0
  4183  002C96                     
  4184                           	line	24
  4185                           	
  4186                           l716:; BSR set to: 0
  4187  002C96                     
  4188                           	line	25
  4189                           	movff	(___lwmod@dividend),(?___lwmod)
  4190  002C96  C067  F067         	movff	(___lwmod@dividend+1),(?___lwmod+1)
  4191  002C9A  C068  F068         	line	26
  4192                           	
  4193                           l723:; BSR set to: 0
  4194  002C9E                     
  4195                           	return	;funcret
  4196  002C9E  0012               	opt stack 0
  4197                           GLOBAL	__end_of___lwmod
  4198                           	__end_of___lwmod:
  4199  002CA0                     	signat	___lwmod,8314
  4200                           	global	___lwdiv
  4201                           
  4202 ;; *************** function ___lwdiv *****************
  4203 ;; Defined at:
  4204 ;;		line 8 in file "/Applications/microchip/xc8/v1.45/sources/common/lwdiv.c"
  4205 ;; Parameters:    Size  Location     Type
  4206 ;;  dividend        2    0[BANK0 ] unsigned int 
  4207 ;;  divisor         2    2[BANK0 ] unsigned int 
  4208 ;; Auto vars:     Size  Location     Type
  4209 ;;  quotient        2    5[BANK0 ] unsigned int 
  4210 ;;  counter         1    4[BANK0 ] unsigned char 
  4211 ;; Return value:  Size  Location     Type
  4212 ;;                  2    0[BANK0 ] unsigned int 
  4213 ;; Registers used:
  4214 ;;		wreg, status,2, status,0
  4215 ;; Tracked objects:
  4216 ;;		On entry : 0/0
  4217 ;;		On exit  : 0/0
  4218 ;;		Unchanged: 0/0
  4219 ;; Data sizes:     COMRAM   BANK0   BANK1   BANK2   BANK3   BANK4   BANK5   BANK6   BANK7
  4220 ;;      Params:         0       4       0       0       0       0       0       0       0
  4221 ;;      Locals:         0       3       0       0       0       0       0       0       0
  4222 ;;      Temps:          0       0       0       0       0       0       0       0       0
  4223 ;;      Totals:         0       7       0       0       0       0       0       0       0
  4224 ;;Total ram usage:        7 bytes
  4225 ;; Hardware stack levels used:    1
  4226 ;; Hardware stack levels required when called:    2
  4227 ;; This function calls:
  4228 ;;		Nothing
  4229 ;; This function is called by:
  4230 ;;		_sprintf
  4231 ;; This function uses a non-reentrant model
  4232 ;;
  4233                           psect	text3,class=CODE,space=0,reloc=2,group=1
  4234                           	file	"/Applications/microchip/xc8/v1.45/sources/common/lwdiv.c"
  4235                           	line	8
  4236                           global __ptext3
  4237                           __ptext3:
  4238  002B1C                     psect	text3
  4239                           	file	"/Applications/microchip/xc8/v1.45/sources/common/lwdiv.c"
  4240                           	line	8
  4241                           	global	__size_of___lwdiv
  4242                           	__size_of___lwdiv	equ	__end_of___lwdiv-___lwdiv
  4243  0000                     	
  4244                           ___lwdiv:; BSR set to: 0
  4245  002B1C                     
  4246                           ;incstack = 0
  4247                           	opt	stack 27
  4248                           	line	14
  4249                           	
  4250                           l3689:
  4251  002B1C                     	movlw	high(0)
  4252  002B1C  0E00               	movlb	0	; () banked
  4253  002B1E  0100               	movwf	((___lwdiv@quotient+1))&0ffh
  4254  002B20  6F66               	movlw	low(0)
  4255  002B22  0E00               	movwf	((___lwdiv@quotient))&0ffh
  4256  002B24  6F65               	line	15
  4257                           	
  4258                           l3691:; BSR set to: 0
  4259  002B26                     
  4260                           	movf	((___lwdiv@divisor))&0ffh,w
  4261  002B26  5162               iorwf	((___lwdiv@divisor+1))&0ffh,w
  4262  002B28  1163               	btfsc	status,2
  4263  002B2A  B4D8               	goto	u4611
  4264  002B2C  EF9A  F015         	goto	u4610
  4265  002B30  EF9C  F015         
  4266                           u4611:
  4267  002B34                     	goto	l706
  4268  002B34  EFCE  F015         u4610:
  4269  002B38                     	line	16
  4270                           	
  4271                           l3693:; BSR set to: 0
  4272  002B38                     
  4273                           	movlw	low(01h)
  4274  002B38  0E01               	movwf	((___lwdiv@counter))&0ffh
  4275  002B3A  6F64               	line	17
  4276                           	goto	l3697
  4277  002B3C  EFA6  F015         	
  4278                           l708:; BSR set to: 0
  4279  002B40                     
  4280                           	line	18
  4281                           	
  4282                           l3695:; BSR set to: 0
  4283  002B40                     
  4284                           	bcf	status,0
  4285  002B40  90D8               	rlcf	((___lwdiv@divisor))&0ffh
  4286  002B42  3762               	rlcf	((___lwdiv@divisor+1))&0ffh
  4287  002B44  3763               	line	19
  4288                           	incf	((___lwdiv@counter))&0ffh
  4289  002B46  2B64               	goto	l3697
  4290  002B48  EFA6  F015         	line	20
  4291                           	
  4292                           l707:; BSR set to: 0
  4293  002B4C                     
  4294                           	line	17
  4295                           	
  4296                           l3697:; BSR set to: 0
  4297  002B4C                     
  4298                           	
  4299                           	btfss	((___lwdiv@divisor+1))&0ffh,(15)&7
  4300  002B4C  AF63               	goto	u4621
  4301  002B4E  EFAB  F015         	goto	u4620
  4302  002B52  EFAD  F015         u4621:
  4303  002B56                     	goto	l3695
  4304  002B56  EFA0  F015         u4620:
  4305  002B5A                     	goto	l3699
  4306  002B5A  EFB1  F015         	
  4307                           l709:; BSR set to: 0
  4308  002B5E                     
  4309                           	goto	l3699
  4310  002B5E  EFB1  F015         	line	21
  4311                           	
  4312                           l710:; BSR set to: 0
  4313  002B62                     
  4314                           	line	22
  4315                           	
  4316                           l3699:; BSR set to: 0
  4317  002B62                     
  4318                           	bcf	status,0
  4319  002B62  90D8               	rlcf	((___lwdiv@quotient))&0ffh
  4320  002B64  3765               	rlcf	((___lwdiv@quotient+1))&0ffh
  4321  002B66  3766               	line	23
  4322                           	
  4323                           l3701:; BSR set to: 0
  4324  002B68                     
  4325                           		movf	((___lwdiv@divisor))&0ffh,w
  4326  002B68  5162               	subwf	((___lwdiv@dividend))&0ffh,w
  4327  002B6A  5D60               	movf	((___lwdiv@divisor+1))&0ffh,w
  4328  002B6C  5163               	subwfb	((___lwdiv@dividend+1))&0ffh,w
  4329  002B6E  5961               	btfss	status,0
  4330  002B70  A0D8               	goto	u4631
  4331  002B72  EFBD  F015         	goto	u4630
  4332  002B76  EFBF  F015         
  4333                           u4631:
  4334  002B7A                     	goto	l3707
  4335  002B7A  EFC6  F015         u4630:
  4336  002B7E                     	line	24
  4337                           	
  4338                           l3703:; BSR set to: 0
  4339  002B7E                     
  4340                           	movf	((___lwdiv@divisor))&0ffh,w
  4341  002B7E  5162               	subwf	((___lwdiv@dividend))&0ffh
  4342  002B80  5F60               	movf	((___lwdiv@divisor+1))&0ffh,w
  4343  002B82  5163               	subwfb	((___lwdiv@dividend+1))&0ffh
  4344  002B84  5B61               
  4345                           	line	25
  4346                           	
  4347                           l3705:; BSR set to: 0
  4348  002B86                     
  4349                           	bsf	(0+(0/8)+(___lwdiv@quotient))&0ffh,(0)&7
  4350  002B86  8165               	goto	l3707
  4351  002B88  EFC6  F015         	line	26
  4352                           	
  4353                           l711:; BSR set to: 0
  4354  002B8C                     
  4355                           	line	27
  4356                           	
  4357                           l3707:; BSR set to: 0
  4358  002B8C                     
  4359                           	bcf	status,0
  4360  002B8C  90D8               	rrcf	((___lwdiv@divisor+1))&0ffh
  4361  002B8E  3363               	rrcf	((___lwdiv@divisor))&0ffh
  4362  002B90  3362               	line	28
  4363                           	
  4364                           l3709:; BSR set to: 0
  4365  002B92                     
  4366                           	decfsz	((___lwdiv@counter))&0ffh
  4367  002B92  2F64               	
  4368                           	goto	l3699
  4369  002B94  EFB1  F015         	goto	l706
  4370  002B98  EFCE  F015         	
  4371                           l712:; BSR set to: 0
  4372  002B9C                     
  4373                           	line	29
  4374                           	
  4375                           l706:; BSR set to: 0
  4376  002B9C                     
  4377                           	line	30
  4378                           	movff	(___lwdiv@quotient),(?___lwdiv)
  4379  002B9C  C065  F060         	movff	(___lwdiv@quotient+1),(?___lwdiv+1)
  4380  002BA0  C066  F061         	line	31
  4381                           	
  4382                           l713:; BSR set to: 0
  4383  002BA4                     
  4384                           	return	;funcret
  4385  002BA4  0012               	opt stack 0
  4386                           GLOBAL	__end_of___lwdiv
  4387                           	__end_of___lwdiv:
  4388  002BA6                     	signat	___lwdiv,8314
  4389                           	global	_atoi
  4390                           
  4391 ;; *************** function _atoi *****************
  4392 ;; Defined at:
  4393 ;;		line 5 in file "/Applications/microchip/xc8/v1.45/sources/common/atoi.c"
  4394 ;; Parameters:    Size  Location     Type
  4395 ;;  s               2    6[BANK0 ] PTR const unsigned char 
  4396 ;;		 -> main@du(20), 
  4397 ;; Auto vars:     Size  Location     Type
  4398 ;;  a               2   11[BANK0 ] int 
  4399 ;;  sign            1   10[BANK0 ] unsigned char 
  4400 ;; Return value:  Size  Location     Type
  4401 ;;                  2    6[BANK0 ] int 
  4402 ;; Registers used:
  4403 ;;		wreg, fsr2l, fsr2h, status,2, status,0, prodl, prodh, cstack
  4404 ;; Tracked objects:
  4405 ;;		On entry : 0/0
  4406 ;;		On exit  : 0/0
  4407 ;;		Unchanged: 0/0
  4408 ;; Data sizes:     COMRAM   BANK0   BANK1   BANK2   BANK3   BANK4   BANK5   BANK6   BANK7
  4409 ;;      Params:         0       2       0       0       0       0       0       0       0
  4410 ;;      Locals:         0       3       0       0       0       0       0       0       0
  4411 ;;      Temps:          0       2       0       0       0       0       0       0       0
  4412 ;;      Totals:         0       7       0       0       0       0       0       0       0
  4413 ;;Total ram usage:        7 bytes
  4414 ;; Hardware stack levels used:    1
  4415 ;; Hardware stack levels required when called:    3
  4416 ;; This function calls:
  4417 ;;		___wmul
  4418 ;;		_isdigit
  4419 ;; This function is called by:
  4420 ;;		_main
  4421 ;; This function uses a non-reentrant model
  4422 ;;
  4423                           psect	text4,class=CODE,space=0,reloc=2,group=1
  4424                           	file	"/Applications/microchip/xc8/v1.45/sources/common/atoi.c"
  4425                           	line	5
  4426                           global __ptext4
  4427                           __ptext4:
  4428  0029E0                     psect	text4
  4429                           	file	"/Applications/microchip/xc8/v1.45/sources/common/atoi.c"
  4430                           	line	5
  4431                           	global	__size_of_atoi
  4432                           	__size_of_atoi	equ	__end_of_atoi-_atoi
  4433  0000                     	
  4434                           _atoi:; BSR set to: 0
  4435  0029E0                     
  4436                           ;incstack = 0
  4437                           	opt	stack 27
  4438                           	line	10
  4439                           	
  4440                           l3787:
  4441  0029E0                     	goto	l3791
  4442  0029E0  EFF7  F014         	
  4443                           l443:
  4444  0029E4                     	line	11
  4445                           	
  4446                           l3789:
  4447  0029E4                     	movlb	0	; () banked
  4448  0029E4  0100               	infsnz	((atoi@s))&0ffh
  4449  0029E6  4B66               	incf	((atoi@s+1))&0ffh
  4450  0029E8  2B67               	goto	l3791
  4451  0029EA  EFF7  F014         	
  4452                           l442:; BSR set to: 0
  4453  0029EE                     
  4454                           	line	10
  4455                           	
  4456                           l3791:
  4457  0029EE                     	movff	(atoi@s),fsr2l
  4458  0029EE  C066  FFD9         	movff	(atoi@s+1),fsr2h
  4459  0029F2  C067  FFDA         	movlw	32
  4460  0029F6  0E20               	xorwf	postinc2,w
  4461  0029F8  18DE               	btfsc	status,2
  4462  0029FA  B4D8               	goto	u4671
  4463  0029FC  EF02  F015         	goto	u4670
  4464  002A00  EF04  F015         
  4465                           u4671:
  4466  002A04                     	goto	l3789
  4467  002A04  EFF2  F014         u4670:
  4468  002A08                     	
  4469                           l3793:
  4470  002A08                     	movff	(atoi@s),fsr2l
  4471  002A08  C066  FFD9         	movff	(atoi@s+1),fsr2h
  4472  002A0C  C067  FFDA         	movlw	9
  4473  002A10  0E09               	xorwf	postinc2,w
  4474  002A12  18DE               	btfsc	status,2
  4475  002A14  B4D8               	goto	u4681
  4476  002A16  EF0F  F015         	goto	u4680
  4477  002A1A  EF11  F015         
  4478                           u4681:
  4479  002A1E                     	goto	l3789
  4480  002A1E  EFF2  F014         u4680:
  4481  002A22                     	goto	l3795
  4482  002A22  EF13  F015         	
  4483                           l444:
  4484  002A26                     	line	12
  4485                           	
  4486                           l3795:
  4487  002A26                     	movlw	high(0)
  4488  002A26  0E00               	movlb	0	; () banked
  4489  002A28  0100               	movwf	((atoi@a+1))&0ffh
  4490  002A2A  6F6C               	movlw	low(0)
  4491  002A2C  0E00               	movwf	((atoi@a))&0ffh
  4492  002A2E  6F6B               	line	13
  4493                           	movlw	low(0)
  4494  002A30  0E00               	movwf	((atoi@sign))&0ffh
  4495  002A32  6F6A               	line	14
  4496                           	
  4497                           l3797:; BSR set to: 0
  4498  002A34                     
  4499                           	movff	(atoi@s),fsr2l
  4500  002A34  C066  FFD9         	movff	(atoi@s+1),fsr2h
  4501  002A38  C067  FFDA         	movlw	45
  4502  002A3C  0E2D               	xorwf	postinc2,w
  4503  002A3E  18DE               	btfss	status,2
  4504  002A40  A4D8               	goto	u4691
  4505  002A42  EF25  F015         	goto	u4690
  4506  002A46  EF27  F015         
  4507                           u4691:
  4508  002A4A                     	goto	l3801
  4509  002A4A  EF2C  F015         u4690:
  4510  002A4E                     	line	15
  4511                           	
  4512                           l3799:; BSR set to: 0
  4513  002A4E                     
  4514                           	incf	((atoi@sign))&0ffh
  4515  002A4E  2B6A               	line	16
  4516                           	infsnz	((atoi@s))&0ffh
  4517  002A50  4B66               	incf	((atoi@s+1))&0ffh
  4518  002A52  2B67               	line	17
  4519                           	goto	l3809
  4520  002A54  EF62  F015         	
  4521                           l445:; BSR set to: 0
  4522  002A58                     
  4523                           	
  4524                           l3801:; BSR set to: 0
  4525  002A58                     
  4526                           	movff	(atoi@s),fsr2l
  4527  002A58  C066  FFD9         	movff	(atoi@s+1),fsr2h
  4528  002A5C  C067  FFDA         	movlw	43
  4529  002A60  0E2B               	xorwf	postinc2,w
  4530  002A62  18DE               	btfss	status,2
  4531  002A64  A4D8               	goto	u4701
  4532  002A66  EF37  F015         	goto	u4700
  4533  002A6A  EF39  F015         
  4534                           u4701:
  4535  002A6E                     	goto	l3809
  4536  002A6E  EF62  F015         u4700:
  4537  002A72                     	line	18
  4538                           	
  4539                           l3803:; BSR set to: 0
  4540  002A72                     
  4541                           	infsnz	((atoi@s))&0ffh
  4542  002A72  4B66               	incf	((atoi@s+1))&0ffh
  4543  002A74  2B67               	goto	l3809
  4544  002A76  EF62  F015         	
  4545                           l447:; BSR set to: 0
  4546  002A7A                     
  4547                           	goto	l3809
  4548  002A7A  EF62  F015         	line	19
  4549                           	
  4550                           l446:; BSR set to: 0
  4551  002A7E                     
  4552                           	goto	l3809
  4553  002A7E  EF62  F015         	
  4554                           l449:; BSR set to: 0
  4555  002A82                     
  4556                           	line	20
  4557                           	
  4558                           l3805:
  4559  002A82                     	movff	(atoi@a),(___wmul@multiplier)
  4560  002A82  C06B  F060         	movff	(atoi@a+1),(___wmul@multiplier+1)
  4561  002A86  C06C  F061         	movlw	high(0Ah)
  4562  002A8A  0E00               	movlb	0	; () banked
  4563  002A8C  0100               	movwf	((___wmul@multiplicand+1))&0ffh
  4564  002A8E  6F63               	movlw	low(0Ah)
  4565  002A90  0E0A               	movwf	((___wmul@multiplicand))&0ffh
  4566  002A92  6F62               	call	___wmul	;wreg free
  4567  002A94  EC55  F017         	movff	(atoi@s),fsr2l
  4568  002A98  C066  FFD9         	movff	(atoi@s+1),fsr2h
  4569  002A9C  C067  FFDA         	movf	indf2,w
  4570  002AA0  50DF               	movlb	0	; () banked
  4571  002AA2  0100               	movwf	(??_atoi+0+0)&0ffh
  4572  002AA4  6F68               	clrf	(??_atoi+0+0+1)&0ffh
  4573  002AA6  6B69               
  4574                           	movf	(0+?___wmul)&0ffh,w
  4575  002AA8  5160               	addwf	(??_atoi+0+0)&0ffh
  4576  002AAA  2768               	movf	(1+?___wmul)&0ffh,w
  4577  002AAC  5161               	addwfc	(??_atoi+0+1)&0ffh
  4578  002AAE  2369               	movlw	low(0FFD0h)
  4579  002AB0  0ED0               	addwf	(??_atoi+0+0)&0ffh,w
  4580  002AB2  2568               	movwf	((atoi@a))&0ffh
  4581  002AB4  6F6B               	movlw	high(0FFD0h)
  4582  002AB6  0EFF               	addwfc	(??_atoi+0+1)&0ffh,w
  4583  002AB8  2169               	movwf	1+((atoi@a))&0ffh
  4584  002ABA  6F6C               	
  4585                           l3807:; BSR set to: 0
  4586  002ABC                     
  4587                           	infsnz	((atoi@s))&0ffh
  4588  002ABC  4B66               	incf	((atoi@s+1))&0ffh
  4589  002ABE  2B67               	goto	l3809
  4590  002AC0  EF62  F015         	
  4591                           l448:; BSR set to: 0
  4592  002AC4                     
  4593                           	line	19
  4594                           	
  4595                           l3809:; BSR set to: 0
  4596  002AC4                     
  4597                           	movff	(atoi@s),fsr2l
  4598  002AC4  C066  FFD9         	movff	(atoi@s+1),fsr2h
  4599  002AC8  C067  FFDA         	movf	indf2,w
  4600  002ACC  50DF               	
  4601                           	call	_isdigit
  4602  002ACE  ECFE  F016         	btfsc	status,0
  4603  002AD2  B0D8               	goto	u4711
  4604  002AD4  EF6E  F015         	goto	u4710
  4605  002AD8  EF70  F015         u4711:
  4606  002ADC                     	goto	l3805
  4607  002ADC  EF41  F015         u4710:
  4608  002AE0                     	goto	l3811
  4609  002AE0  EF72  F015         	
  4610                           l450:
  4611  002AE4                     	line	21
  4612                           	
  4613                           l3811:
  4614  002AE4                     	movlb	0	; () banked
  4615  002AE4  0100               	movf	((atoi@sign))&0ffh,w
  4616  002AE6  516A               	btfsc	status,2
  4617  002AE8  B4D8               	goto	u4721
  4618  002AEA  EF79  F015         	goto	u4720
  4619  002AEE  EF7B  F015         u4721:
  4620  002AF2                     	goto	l451
  4621  002AF2  EF89  F015         u4720:
  4622  002AF6                     	line	22
  4623                           	
  4624                           l3813:; BSR set to: 0
  4625  002AF6                     
  4626                           	movff	(atoi@a),??_atoi+0+0
  4627  002AF6  C06B  F068         	movff	(atoi@a+1),??_atoi+0+0+1
  4628  002AFA  C06C  F069         	comf	(??_atoi+0+0)&0ffh
  4629  002AFE  1F68               	comf	(??_atoi+0+1)&0ffh
  4630  002B00  1F69               	infsnz	(??_atoi+0+0)&0ffh
  4631  002B02  4B68               	incf	(??_atoi+0+1)&0ffh
  4632  002B04  2B69               	movff	??_atoi+0+0,(?_atoi)
  4633  002B06  C068  F066         	movff	??_atoi+0+1,(?_atoi+1)
  4634  002B0A  C069  F067         	goto	l452
  4635  002B0E  EF8D  F015         	
  4636                           l451:; BSR set to: 0
  4637  002B12                     
  4638                           	line	23
  4639                           	movff	(atoi@a),(?_atoi)
  4640  002B12  C06B  F066         	movff	(atoi@a+1),(?_atoi+1)
  4641  002B16  C06C  F067         	line	24
  4642                           	
  4643                           l452:; BSR set to: 0
  4644  002B1A                     
  4645                           	return	;funcret
  4646  002B1A  0012               	opt stack 0
  4647                           GLOBAL	__end_of_atoi
  4648                           	__end_of_atoi:
  4649  002B1C                     	signat	_atoi,4218
  4650                           	global	___wmul
  4651                           
  4652 ;; *************** function ___wmul *****************
  4653 ;; Defined at:
  4654 ;;		line 15 in file "/Applications/microchip/xc8/v1.45/sources/common/Umul16.c"
  4655 ;; Parameters:    Size  Location     Type
  4656 ;;  multiplier      2    0[BANK0 ] unsigned int 
  4657 ;;  multiplicand    2    2[BANK0 ] unsigned int 
  4658 ;; Auto vars:     Size  Location     Type
  4659 ;;  product         2    4[BANK0 ] unsigned int 
  4660 ;; Return value:  Size  Location     Type
  4661 ;;                  2    0[BANK0 ] unsigned int 
  4662 ;; Registers used:
  4663 ;;		wreg, status,2, status,0, prodl, prodh
  4664 ;; Tracked objects:
  4665 ;;		On entry : 0/0
  4666 ;;		On exit  : 0/0
  4667 ;;		Unchanged: 0/0
  4668 ;; Data sizes:     COMRAM   BANK0   BANK1   BANK2   BANK3   BANK4   BANK5   BANK6   BANK7
  4669 ;;      Params:         0       4       0       0       0       0       0       0       0
  4670 ;;      Locals:         0       2       0       0       0       0       0       0       0
  4671 ;;      Temps:          0       0       0       0       0       0       0       0       0
  4672 ;;      Totals:         0       6       0       0       0       0       0       0       0
  4673 ;;Total ram usage:        6 bytes
  4674 ;; Hardware stack levels used:    1
  4675 ;; Hardware stack levels required when called:    2
  4676 ;; This function calls:
  4677 ;;		Nothing
  4678 ;; This function is called by:
  4679 ;;		_atoi
  4680 ;; This function uses a non-reentrant model
  4681 ;;
  4682                           psect	text5,class=CODE,space=0,reloc=2,group=1
  4683                           	file	"/Applications/microchip/xc8/v1.45/sources/common/Umul16.c"
  4684                           	line	15
  4685                           global __ptext5
  4686                           __ptext5:
  4687  002EAA                     psect	text5
  4688                           	file	"/Applications/microchip/xc8/v1.45/sources/common/Umul16.c"
  4689                           	line	15
  4690                           	global	__size_of___wmul
  4691                           	__size_of___wmul	equ	__end_of___wmul-___wmul
  4692  0000                     	
  4693                           ___wmul:; BSR set to: 0
  4694  002EAA                     
  4695                           ;incstack = 0
  4696                           	opt	stack 27
  4697                           	line	37
  4698                           	
  4699                           l3517:
  4700  002EAA                     	movlb	0	; () banked
  4701  002EAA  0100               	movf	((___wmul@multiplier))&0ffh,w
  4702  002EAC  5160               	mulwf	((___wmul@multiplicand))&0ffh
  4703  002EAE  0362               	movff	prodl,(___wmul@product)
  4704  002EB0  CFF3 F064          	movff	prodh,(___wmul@product+1)
  4705  002EB4  CFF4 F065          	line	38
  4706                           	movf	((___wmul@multiplier))&0ffh,w
  4707  002EB8  5160               	mulwf	(0+(___wmul@multiplicand+01h))&0ffh
  4708  002EBA  0363               	movf	(prodl),c,w
  4709  002EBC  50F3               	addwf	((___wmul@product+1))&0ffh
  4710  002EBE  2765               
  4711                           	line	39
  4712                           	movf	(0+(___wmul@multiplier+01h))&0ffh,w
  4713  002EC0  5161               	mulwf	((___wmul@multiplicand))&0ffh
  4714  002EC2  0362               	movf	(prodl),c,w
  4715  002EC4  50F3               	addwf	((___wmul@product+1))&0ffh
  4716  002EC6  2765               
  4717                           	line	52
  4718                           	
  4719                           l3519:; BSR set to: 0
  4720  002EC8                     
  4721                           	movff	(___wmul@product),(?___wmul)
  4722  002EC8  C064  F060         	movff	(___wmul@product+1),(?___wmul+1)
  4723  002ECC  C065  F061         	goto	l220
  4724  002ED0  EF6A  F017         	
  4725                           l3521:; BSR set to: 0
  4726  002ED4                     
  4727                           	line	53
  4728                           	
  4729                           l220:; BSR set to: 0
  4730  002ED4                     
  4731                           	return	;funcret
  4732  002ED4  0012               	opt stack 0
  4733                           GLOBAL	__end_of___wmul
  4734                           	__end_of___wmul:
  4735  002ED6                     	signat	___wmul,8314
  4736                           	global	_atof
  4737                           
  4738 ;; *************** function _atof *****************
  4739 ;; Defined at:
  4740 ;;		line 200 in file "/Applications/microchip/xc8/v1.45/sources/common/atof.c"
  4741 ;; Parameters:    Size  Location     Type
  4742 ;;  s               2   86[BANK0 ] PTR const unsigned char 
  4743 ;;		 -> main@du(20), 
  4744 ;; Auto vars:     Size  Location     Type
  4745 ;;		None
  4746 ;; Return value:  Size  Location     Type
  4747 ;;                  4   86[BANK0 ] PTR const unsigned char 
  4748 ;; Registers used:
  4749 ;;		wreg, fsr2l, fsr2h, status,2, status,0, prodl, prodh, cstack
  4750 ;; Tracked objects:
  4751 ;;		On entry : 0/0
  4752 ;;		On exit  : 0/0
  4753 ;;		Unchanged: 0/0
  4754 ;; Data sizes:     COMRAM   BANK0   BANK1   BANK2   BANK3   BANK4   BANK5   BANK6   BANK7
  4755 ;;      Params:         0       4       0       0       0       0       0       0       0
  4756 ;;      Locals:         0       0       0       0       0       0       0       0       0
  4757 ;;      Temps:          0       0       0       0       0       0       0       0       0
  4758 ;;      Totals:         0       4       0       0       0       0       0       0       0
  4759 ;;Total ram usage:        4 bytes
  4760 ;; Hardware stack levels used:    1
  4761 ;; Hardware stack levels required when called:    4
  4762 ;; This function calls:
  4763 ;;		_strtod
  4764 ;; This function is called by:
  4765 ;;		_main
  4766 ;; This function uses a non-reentrant model
  4767 ;;
  4768                           psect	text6,class=CODE,space=0,reloc=2,group=1
  4769                           	file	"/Applications/microchip/xc8/v1.45/sources/common/atof.c"
  4770                           	line	200
  4771                           global __ptext6
  4772                           __ptext6:
  4773  002ED6                     psect	text6
  4774                           	file	"/Applications/microchip/xc8/v1.45/sources/common/atof.c"
  4775                           	line	200
  4776                           	global	__size_of_atof
  4777                           	__size_of_atof	equ	__end_of_atof-_atof
  4778  0000                     	
  4779                           _atof:; BSR set to: 0
  4780  002ED6                     
  4781                           ;incstack = 0
  4782                           	opt	stack 26
  4783                           	line	202
  4784                           	
  4785                           l3815:
  4786  002ED6                     		movff	(atof@s),(strtod@s)
  4787  002ED6  C0B6  F0AA         	movff	(atof@s+1),(strtod@s+1)
  4788  002EDA  C0B7  F0AB         
  4789                           		movlw	low(0)
  4790  002EDE  0E00               	movlb	0	; () banked
  4791  002EE0  0100               	movwf	((strtod@res))&0ffh
  4792  002EE2  6FAC               	movlw	high(0)
  4793  002EE4  0E00               	movwf	((strtod@res+1))&0ffh
  4794  002EE6  6FAD               
  4795                           	call	_strtod	;wreg free
  4796  002EE8  EC08  F004         	movff	0+?_strtod,(?_atof)
  4797  002EEC  C0AA  F0B6         	movff	1+?_strtod,(?_atof+1)
  4798  002EF0  C0AB  F0B7         	movff	2+?_strtod,(?_atof+2)
  4799  002EF4  C0AC  F0B8         	movff	3+?_strtod,(?_atof+3)
  4800  002EF8  C0AD  F0B9         	
  4801                           	goto	l437
  4802  002EFC  EF80  F017         	
  4803                           l3817:
  4804  002F00                     	line	203
  4805                           	
  4806                           l437:
  4807  002F00                     	return	;funcret
  4808  002F00  0012               	opt stack 0
  4809                           GLOBAL	__end_of_atof
  4810                           	__end_of_atof:
  4811  002F02                     	signat	_atof,4220
  4812                           	global	_strtod
  4813                           
  4814 ;; *************** function _strtod *****************
  4815 ;; Defined at:
  4816 ;;		line 35 in file "/Applications/microchip/xc8/v1.45/sources/common/atof.c"
  4817 ;; Parameters:    Size  Location     Type
  4818 ;;  s               2   74[BANK0 ] PTR const unsigned char 
  4819 ;;		 -> main@du(20), 
  4820 ;;  res             2   76[BANK0 ] PTR PTR const unsigned c
  4821 ;;		 -> NULL(0), 
  4822 ;; Auto vars:     Size  Location     Type
  4823 ;;  _u              4   82[BANK0 ] struct .
  4824 ;;  expon           1   81[BANK0 ] char 
  4825 ;;  flags           1   80[BANK0 ] unsigned char 
  4826 ;;  eexp            1   79[BANK0 ] char 
  4827 ;; Return value:  Size  Location     Type
  4828 ;;                  4   74[BANK0 ] char 
  4829 ;; Registers used:
  4830 ;;		wreg, fsr2l, fsr2h, status,2, status,0, prodl, prodh, cstack
  4831 ;; Tracked objects:
  4832 ;;		On entry : 0/0
  4833 ;;		On exit  : 0/0
  4834 ;;		Unchanged: 0/0
  4835 ;; Data sizes:     COMRAM   BANK0   BANK1   BANK2   BANK3   BANK4   BANK5   BANK6   BANK7
  4836 ;;      Params:         0       4       0       0       0       0       0       0       0
  4837 ;;      Locals:         0       7       0       0       0       0       0       0       0
  4838 ;;      Temps:          0       1       0       0       0       0       0       0       0
  4839 ;;      Totals:         0      12       0       0       0       0       0       0       0
  4840 ;;Total ram usage:       12 bytes
  4841 ;; Hardware stack levels used:    1
  4842 ;; Hardware stack levels required when called:    3
  4843 ;; This function calls:
  4844 ;;		___fldiv
  4845 ;;		___flge
  4846 ;;		___flmul
  4847 ;;		___flneg
  4848 ;;		___lmul
  4849 ;;		___xxtofl
  4850 ;;		_isdigit
  4851 ;;		_isspace
  4852 ;; This function is called by:
  4853 ;;		_atof
  4854 ;; This function uses a non-reentrant model
  4855 ;;
  4856                           psect	text7,class=CODE,space=0,reloc=2,group=1
  4857                           	line	35
  4858                           global __ptext7
  4859                           __ptext7:
  4860  000810                     psect	text7
  4861                           	file	"/Applications/microchip/xc8/v1.45/sources/common/atof.c"
  4862                           	line	35
  4863                           	global	__size_of_strtod
  4864                           	__size_of_strtod	equ	__end_of_strtod-_strtod
  4865  0000                     	
  4866                           _strtod:
  4867  000810                     ;incstack = 0
  4868                           	opt	stack 26
  4869                           	line	66
  4870                           	
  4871                           l3523:
  4872  000810                     	movlb	0	; () banked
  4873  000810  0100               	movf	((strtod@res))&0ffh,w
  4874  000812  51AC               iorwf	((strtod@res+1))&0ffh,w
  4875  000814  11AD               	btfsc	status,2
  4876  000816  B4D8               	goto	u4281
  4877  000818  EF10  F004         	goto	u4280
  4878  00081C  EF12  F004         
  4879                           u4281:
  4880  000820                     	goto	l3529
  4881  000820  EF23  F004         u4280:
  4882  000824                     	line	67
  4883                           	
  4884                           l3525:; BSR set to: 0
  4885  000824                     
  4886                           	movff	(strtod@res),fsr2l
  4887  000824  C0AC  FFD9         	movff	(strtod@res+1),fsr2h
  4888  000828  C0AD  FFDA         	movff	(strtod@s),postinc2
  4889  00082C  C0AA  FFDE         	movff	(strtod@s+1),postdec2
  4890  000830  C0AB  FFDD         	goto	l3529
  4891  000834  EF23  F004         	
  4892                           l383:; BSR set to: 0
  4893  000838                     
  4894                           	line	68
  4895                           	goto	l3529
  4896  000838  EF23  F004         	
  4897                           l385:; BSR set to: 0
  4898  00083C                     
  4899                           	line	69
  4900                           	
  4901                           l3527:
  4902  00083C                     	movlb	0	; () banked
  4903  00083C  0100               	infsnz	((strtod@s))&0ffh
  4904  00083E  4BAA               	incf	((strtod@s+1))&0ffh
  4905  000840  2BAB               	goto	l3529
  4906  000842  EF23  F004         	
  4907                           l384:; BSR set to: 0
  4908  000846                     
  4909                           	line	68
  4910                           	
  4911                           l3529:; BSR set to: 0
  4912  000846                     
  4913                           	movff	(strtod@s),fsr2l
  4914  000846  C0AA  FFD9         	movff	(strtod@s+1),fsr2h
  4915  00084A  C0AB  FFDA         	movf	indf2,w
  4916  00084E  50DF               	movwf	((strtod@eexp))&0ffh
  4917  000850  6FAF               	movf	((strtod@eexp))&0ffh,w
  4918  000852  51AF               	
  4919                           	call	_isspace
  4920  000854  EC8A  F016         	btfsc	status,0
  4921  000858  B0D8               	goto	u4291
  4922  00085A  EF31  F004         	goto	u4290
  4923  00085E  EF33  F004         u4291:
  4924  000862                     	goto	l3527
  4925  000862  EF1E  F004         u4290:
  4926  000866                     	goto	l3531
  4927  000866  EF35  F004         	
  4928                           l386:
  4929  00086A                     	line	70
  4930                           	
  4931                           l3531:
  4932  00086A                     	movlw	low(0)
  4933  00086A  0E00               	movlb	0	; () banked
  4934  00086C  0100               	movwf	((strtod@flags))&0ffh
  4935  00086E  6FB0               	line	71
  4936                           	
  4937                           l3533:; BSR set to: 0
  4938  000870                     
  4939                           		movlw	45
  4940  000870  0E2D               	xorwf	((strtod@eexp))&0ffh,w
  4941  000872  19AF               	btfss	status,2
  4942  000874  A4D8               	goto	u4301
  4943  000876  EF3F  F004         	goto	u4300
  4944  00087A  EF41  F004         
  4945                           u4301:
  4946  00087E                     	goto	l3539
  4947  00087E  EF47  F004         u4300:
  4948  000882                     	line	72
  4949                           	
  4950                           l3535:; BSR set to: 0
  4951  000882                     
  4952                           	movlw	low(01h)
  4953  000882  0E01               	movwf	((strtod@flags))&0ffh
  4954  000884  6FB0               	line	73
  4955                           	
  4956                           l3537:; BSR set to: 0
  4957  000886                     
  4958                           	infsnz	((strtod@s))&0ffh
  4959  000886  4BAA               	incf	((strtod@s+1))&0ffh
  4960  000888  2BAB               	line	74
  4961                           	goto	l3543
  4962  00088A  EF56  F004         	
  4963                           l387:; BSR set to: 0
  4964  00088E                     
  4965                           	
  4966                           l3539:; BSR set to: 0
  4967  00088E                     
  4968                           		movlw	43
  4969  00088E  0E2B               	xorwf	((strtod@eexp))&0ffh,w
  4970  000890  19AF               	btfss	status,2
  4971  000892  A4D8               	goto	u4311
  4972  000894  EF4E  F004         	goto	u4310
  4973  000898  EF50  F004         
  4974                           u4311:
  4975  00089C                     	goto	l3543
  4976  00089C  EF56  F004         u4310:
  4977  0008A0                     	line	75
  4978                           	
  4979                           l3541:; BSR set to: 0
  4980  0008A0                     
  4981                           	infsnz	((strtod@s))&0ffh
  4982  0008A0  4BAA               	incf	((strtod@s+1))&0ffh
  4983  0008A2  2BAB               	goto	l3543
  4984  0008A4  EF56  F004         	
  4985                           l389:; BSR set to: 0
  4986  0008A8                     
  4987                           	goto	l3543
  4988  0008A8  EF56  F004         	line	76
  4989                           	
  4990                           l388:; BSR set to: 0
  4991  0008AC                     
  4992                           	
  4993                           l3543:; BSR set to: 0
  4994  0008AC                     
  4995                           	movlw	low(0)
  4996  0008AC  0E00               	movwf	((strtod@eexp))&0ffh
  4997  0008AE  6FAF               	line	77
  4998                           	
  4999                           l3545:; BSR set to: 0
  5000  0008B0                     
  5001                           	movlw	low(0)
  5002  0008B0  0E00               	movwf	((strtod@_u))&0ffh
  5003  0008B2  6FB2               	movlw	high(0)
  5004  0008B4  0E00               	movwf	((strtod@_u+1))&0ffh
  5005  0008B6  6FB3               	movlw	low highword(0)
  5006  0008B8  0E00               	movwf	((strtod@_u+2))&0ffh
  5007  0008BA  6FB4               	movlw	high highword(0)
  5008  0008BC  0E00               	movwf	((strtod@_u+3))&0ffh
  5009  0008BE  6FB5               	line	78
  5010                           	
  5011                           l3547:; BSR set to: 0
  5012  0008C0                     
  5013                           	movlw	low(0)
  5014  0008C0  0E00               	movwf	((strtod@expon))&0ffh
  5015  0008C2  6FB1               	goto	l3549
  5016  0008C4  EF64  F004         	line	80
  5017                           	
  5018                           l390:; BSR set to: 0
  5019  0008C8                     
  5020                           	line	81
  5021                           	
  5022                           l3549:; BSR set to: 0
  5023  0008C8                     
  5024                           	
  5025                           	btfsc	((strtod@flags))&0ffh,(4)&7
  5026  0008C8  B9B0               	goto	u4321
  5027  0008CA  EF69  F004         	goto	u4320
  5028  0008CE  EF6B  F004         u4321:
  5029  0008D2                     	goto	l3555
  5030  0008D2  EF7D  F004         u4320:
  5031  0008D6                     	
  5032                           l3551:; BSR set to: 0
  5033  0008D6                     
  5034                           	movff	(strtod@s),fsr2l
  5035  0008D6  C0AA  FFD9         	movff	(strtod@s+1),fsr2h
  5036  0008DA  C0AB  FFDA         	movlw	46
  5037  0008DE  0E2E               	xorwf	postinc2,w
  5038  0008E0  18DE               	btfss	status,2
  5039  0008E2  A4D8               	goto	u4331
  5040  0008E4  EF76  F004         	goto	u4330
  5041  0008E8  EF78  F004         
  5042                           u4331:
  5043  0008EC                     	goto	l3555
  5044  0008EC  EF7D  F004         u4330:
  5045  0008F0                     	line	82
  5046                           	
  5047                           l3553:; BSR set to: 0
  5048  0008F0                     
  5049                           	bsf	(0+(4/8)+(strtod@flags))&0ffh,(4)&7
  5050  0008F0  89B0               	line	83
  5051                           	infsnz	((strtod@s))&0ffh
  5052  0008F2  4BAA               	incf	((strtod@s+1))&0ffh
  5053  0008F4  2BAB               	line	84
  5054                           	goto	l3549
  5055  0008F6  EF64  F004         	line	85
  5056                           	
  5057                           l391:; BSR set to: 0
  5058  0008FA                     
  5059                           	line	86
  5060                           	
  5061                           l3555:; BSR set to: 0
  5062  0008FA                     
  5063                           	movff	(strtod@s),fsr2l
  5064  0008FA  C0AA  FFD9         	movff	(strtod@s+1),fsr2h
  5065  0008FE  C0AB  FFDA         	movf	indf2,w
  5066  000902  50DF               	
  5067                           	call	_isdigit
  5068  000904  ECFE  F016         	btfsc	status,0
  5069  000908  B0D8               	goto	u4341
  5070  00090A  EF89  F004         	goto	u4340
  5071  00090E  EF8B  F004         u4341:
  5072  000912                     	goto	l3559
  5073  000912  EF8F  F004         u4340:
  5074  000916                     	goto	l3573
  5075  000916  EFDE  F004         	line	87
  5076                           	
  5077                           l3557:
  5078  00091A                     	goto	l3573
  5079  00091A  EFDE  F004         	
  5080                           l393:
  5081  00091E                     	line	88
  5082                           	
  5083                           l3559:
  5084  00091E                     	movlb	0	; () banked
  5085  00091E  0100               	bsf	(0+(1/8)+(strtod@flags))&0ffh,(1)&7
  5086  000920  83B0               	line	89
  5087                           	
  5088                           l3561:; BSR set to: 0
  5089  000922                     
  5090                           		movlw	9
  5091  000922  0E09               	xorwf	((strtod@eexp))&0ffh,w
  5092  000924  19AF               	btfsc	status,2
  5093  000926  B4D8               	goto	u4351
  5094  000928  EF98  F004         	goto	u4350
  5095  00092C  EF9A  F004         
  5096                           u4351:
  5097  000930                     	goto	l395
  5098  000930  EFCE  F004         u4350:
  5099  000934                     	line	90
  5100                           	
  5101                           l3563:; BSR set to: 0
  5102  000934                     
  5103                           	
  5104                           	btfss	((strtod@flags))&0ffh,(4)&7
  5105  000934  A9B0               	goto	u4361
  5106  000936  EF9F  F004         	goto	u4360
  5107  00093A  EFA1  F004         u4361:
  5108  00093E                     	goto	l396
  5109  00093E  EFA2  F004         u4360:
  5110  000942                     	line	91
  5111                           	
  5112                           l3565:; BSR set to: 0
  5113  000942                     
  5114                           	decf	((strtod@expon))&0ffh
  5115  000942  07B1               	
  5116                           l396:; BSR set to: 0
  5117  000944                     
  5118                           	line	92
  5119                           	incf	((strtod@eexp))&0ffh
  5120  000944  2BAF               	line	94
  5121                           	
  5122                           l3567:; BSR set to: 0
  5123  000946                     
  5124                           	movff	(strtod@_u),(___lmul@multiplier)
  5125  000946  C0B2  F060         	movff	(strtod@_u+1),(___lmul@multiplier+1)
  5126  00094A  C0B3  F061         	movff	(strtod@_u+2),(___lmul@multiplier+2)
  5127  00094E  C0B4  F062         	movff	(strtod@_u+3),(___lmul@multiplier+3)
  5128  000952  C0B5  F063         	movlw	low(0Ah)
  5129  000956  0E0A               	movwf	((___lmul@multiplicand))&0ffh
  5130  000958  6F64               	movlw	high(0Ah)
  5131  00095A  0E00               	movwf	((___lmul@multiplicand+1))&0ffh
  5132  00095C  6F65               	movlw	low highword(0Ah)
  5133  00095E  0E00               	movwf	((___lmul@multiplicand+2))&0ffh
  5134  000960  6F66               	movlw	high highword(0Ah)
  5135  000962  0E00               	movwf	((___lmul@multiplicand+3))&0ffh
  5136  000964  6F67               	call	___lmul	;wreg free
  5137  000966  EC50  F016         	movff	0+?___lmul,(strtod@_u)
  5138  00096A  C060  F0B2         	movff	1+?___lmul,(strtod@_u+1)
  5139  00096E  C061  F0B3         	movff	2+?___lmul,(strtod@_u+2)
  5140  000972  C062  F0B4         	movff	3+?___lmul,(strtod@_u+3)
  5141  000976  C063  F0B5         	
  5142                           	line	95
  5143                           	
  5144                           l3569:
  5145  00097A                     	movff	(strtod@s),fsr2l
  5146  00097A  C0AA  FFD9         	movff	(strtod@s+1),fsr2h
  5147  00097E  C0AB  FFDA         	movf	indf2,w
  5148  000982  50DF               	movlb	0	; () banked
  5149  000984  0100               	movwf	(??_strtod+0+0)&0ffh
  5150  000986  6FAE               	movlw	0D0h
  5151  000988  0ED0               	addwf	((??_strtod+0+0))&0ffh
  5152  00098A  27AE               	movf	((??_strtod+0+0))&0ffh,w
  5153  00098C  51AE               	addwf	((strtod@_u))&0ffh
  5154  00098E  27B2               	movlw	0
  5155  000990  0E00               	addwfc	((strtod@_u+1))&0ffh
  5156  000992  23B3               	addwfc	((strtod@_u+2))&0ffh
  5157  000994  23B4               	addwfc	((strtod@_u+3))&0ffh
  5158  000996  23B5               	line	99
  5159                           	goto	l397
  5160  000998  EFD8  F004         	
  5161                           l395:; BSR set to: 0
  5162  00099C                     
  5163                           	
  5164                           	btfsc	((strtod@flags))&0ffh,(4)&7
  5165  00099C  B9B0               	goto	u4371
  5166  00099E  EFD3  F004         	goto	u4370
  5167  0009A2  EFD5  F004         u4371:
  5168  0009A6                     	goto	l397
  5169  0009A6  EFD8  F004         u4370:
  5170  0009AA                     	line	100
  5171                           	
  5172                           l3571:; BSR set to: 0
  5173  0009AA                     
  5174                           	incf	((strtod@expon))&0ffh
  5175  0009AA  2BB1               	goto	l397
  5176  0009AC  EFD8  F004         	
  5177                           l398:; BSR set to: 0
  5178  0009B0                     
  5179                           	line	101
  5180                           	
  5181                           l397:; BSR set to: 0
  5182  0009B0                     
  5183                           	infsnz	((strtod@s))&0ffh
  5184  0009B0  4BAA               	incf	((strtod@s+1))&0ffh
  5185  0009B2  2BAB               	goto	l3549
  5186  0009B4  EF64  F004         	line	102
  5187                           	
  5188                           l392:; BSR set to: 0
  5189  0009B8                     
  5190                           	goto	l3549
  5191  0009B8  EF64  F004         	
  5192                           l394:; BSR set to: 0
  5193  0009BC                     
  5194                           	line	104
  5195                           	
  5196                           l3573:
  5197  0009BC                     	movlw	low(0)
  5198  0009BC  0E00               	movlb	0	; () banked
  5199  0009BE  0100               	movwf	((strtod@eexp))&0ffh
  5200  0009C0  6FAF               	line	105
  5201                           	
  5202                           l3575:; BSR set to: 0
  5203  0009C2                     
  5204                           	movff	(strtod@s),fsr2l
  5205  0009C2  C0AA  FFD9         	movff	(strtod@s+1),fsr2h
  5206  0009C6  C0AB  FFDA         	movlw	101
  5207  0009CA  0E65               	xorwf	postinc2,w
  5208  0009CC  18DE               	btfsc	status,2
  5209  0009CE  B4D8               	goto	u4381
  5210  0009D0  EFEC  F004         	goto	u4380
  5211  0009D4  EFEE  F004         
  5212                           u4381:
  5213  0009D8                     	goto	l3579
  5214  0009D8  EFFD  F004         u4380:
  5215  0009DC                     	
  5216                           l3577:; BSR set to: 0
  5217  0009DC                     
  5218                           	movff	(strtod@s),fsr2l
  5219  0009DC  C0AA  FFD9         	movff	(strtod@s+1),fsr2h
  5220  0009E0  C0AB  FFDA         	movlw	69
  5221  0009E4  0E45               	xorwf	postinc2,w
  5222  0009E6  18DE               	btfss	status,2
  5223  0009E8  A4D8               	goto	u4391
  5224  0009EA  EFF9  F004         	goto	u4390
  5225  0009EE  EFFB  F004         
  5226                           u4391:
  5227  0009F2                     	goto	l3611
  5228  0009F2  EF9C  F005         u4390:
  5229  0009F6                     	goto	l3579
  5230  0009F6  EFFD  F004         	
  5231                           l401:; BSR set to: 0
  5232  0009FA                     
  5233                           	line	106
  5234                           	
  5235                           l3579:; BSR set to: 0
  5236  0009FA                     
  5237                           	infsnz	((strtod@s))&0ffh
  5238  0009FA  4BAA               	incf	((strtod@s+1))&0ffh
  5239  0009FC  2BAB               	movff	(strtod@s),fsr2l
  5240  0009FE  C0AA  FFD9         	movff	(strtod@s+1),fsr2h
  5241  000A02  C0AB  FFDA         	movlw	45
  5242  000A06  0E2D               	xorwf	postinc2,w
  5243  000A08  18DE               	btfss	status,2
  5244  000A0A  A4D8               	goto	u4401
  5245  000A0C  EF0A  F005         	goto	u4400
  5246  000A10  EF0C  F005         
  5247                           u4401:
  5248  000A14                     	goto	l3583
  5249  000A14  EF11  F005         u4400:
  5250  000A18                     	line	107
  5251                           	
  5252                           l3581:; BSR set to: 0
  5253  000A18                     
  5254                           	bsf	(0+(3/8)+(strtod@flags))&0ffh,(3)&7
  5255  000A18  87B0               	line	108
  5256                           	infsnz	((strtod@s))&0ffh
  5257  000A1A  4BAA               	incf	((strtod@s+1))&0ffh
  5258  000A1C  2BAB               	line	109
  5259                           	goto	l3589
  5260  000A1E  EF2A  F005         	
  5261                           l402:; BSR set to: 0
  5262  000A22                     
  5263                           	
  5264                           l3583:; BSR set to: 0
  5265  000A22                     
  5266                           	movff	(strtod@s),fsr2l
  5267  000A22  C0AA  FFD9         	movff	(strtod@s+1),fsr2h
  5268  000A26  C0AB  FFDA         	movlw	43
  5269  000A2A  0E2B               	xorwf	postinc2,w
  5270  000A2C  18DE               	btfss	status,2
  5271  000A2E  A4D8               	goto	u4411
  5272  000A30  EF1C  F005         	goto	u4410
  5273  000A34  EF1E  F005         
  5274                           u4411:
  5275  000A38                     	goto	l3589
  5276  000A38  EF2A  F005         u4410:
  5277  000A3C                     	line	110
  5278                           	
  5279                           l3585:; BSR set to: 0
  5280  000A3C                     
  5281                           	infsnz	((strtod@s))&0ffh
  5282  000A3C  4BAA               	incf	((strtod@s+1))&0ffh
  5283  000A3E  2BAB               	goto	l3589
  5284  000A40  EF2A  F005         	
  5285                           l404:; BSR set to: 0
  5286  000A44                     
  5287                           	goto	l3589
  5288  000A44  EF2A  F005         	line	111
  5289                           	
  5290                           l403:; BSR set to: 0
  5291  000A48                     
  5292                           	goto	l3589
  5293  000A48  EF2A  F005         	
  5294                           l406:; BSR set to: 0
  5295  000A4C                     
  5296                           	
  5297                           l3587:; BSR set to: 0
  5298  000A4C                     
  5299                           	infsnz	((strtod@s))&0ffh
  5300  000A4C  4BAA               	incf	((strtod@s+1))&0ffh
  5301  000A4E  2BAB               	goto	l3589
  5302  000A50  EF2A  F005         	
  5303                           l405:; BSR set to: 0
  5304  000A54                     
  5305                           	
  5306                           l3589:; BSR set to: 0
  5307  000A54                     
  5308                           	movff	(strtod@s),fsr2l
  5309  000A54  C0AA  FFD9         	movff	(strtod@s+1),fsr2h
  5310  000A58  C0AB  FFDA         	movlw	48
  5311  000A5C  0E30               	xorwf	postinc2,w
  5312  000A5E  18DE               	btfsc	status,2
  5313  000A60  B4D8               	goto	u4421
  5314  000A62  EF35  F005         	goto	u4420
  5315  000A66  EF37  F005         
  5316                           u4421:
  5317  000A6A                     	goto	l3587
  5318  000A6A  EF26  F005         u4420:
  5319  000A6E                     	goto	l3591
  5320  000A6E  EF39  F005         	
  5321                           l407:; BSR set to: 0
  5322  000A72                     
  5323                           	line	112
  5324                           	
  5325                           l3591:; BSR set to: 0
  5326  000A72                     
  5327                           	movff	(strtod@s),fsr2l
  5328  000A72  C0AA  FFD9         	movff	(strtod@s+1),fsr2h
  5329  000A76  C0AB  FFDA         	movf	indf2,w
  5330  000A7A  50DF               	
  5331                           	call	_isdigit
  5332  000A7C  ECFE  F016         	btfss	status,0
  5333  000A80  A0D8               	goto	u4431
  5334  000A82  EF45  F005         	goto	u4430
  5335  000A86  EF47  F005         u4431:
  5336  000A8A                     	goto	l3607
  5337  000A8A  EF8F  F005         u4430:
  5338  000A8E                     	line	113
  5339                           	
  5340                           l3593:
  5341  000A8E                     	movff	(strtod@s),fsr2l
  5342  000A8E  C0AA  FFD9         	movff	(strtod@s+1),fsr2h
  5343  000A92  C0AB  FFDA         	movf	indf2,w
  5344  000A96  50DF               	addlw	low(0D0h)
  5345  000A98  0FD0               	movlb	0	; () banked
  5346  000A9A  0100               	movwf	((strtod@eexp))&0ffh
  5347  000A9C  6FAF               	
  5348                           l3595:; BSR set to: 0
  5349  000A9E                     
  5350                           	infsnz	((strtod@s))&0ffh
  5351  000A9E  4BAA               	incf	((strtod@s+1))&0ffh
  5352  000AA0  2BAB               	line	114
  5353                           	
  5354                           l3597:; BSR set to: 0
  5355  000AA2                     
  5356                           	movff	(strtod@s),fsr2l
  5357  000AA2  C0AA  FFD9         	movff	(strtod@s+1),fsr2h
  5358  000AA6  C0AB  FFDA         	movf	indf2,w
  5359  000AAA  50DF               	
  5360                           	call	_isdigit
  5361  000AAC  ECFE  F016         	btfss	status,0
  5362  000AB0  A0D8               	goto	u4441
  5363  000AB2  EF5D  F005         	goto	u4440
  5364  000AB6  EF5F  F005         u4441:
  5365  000ABA                     	goto	l3607
  5366  000ABA  EF8F  F005         u4440:
  5367  000ABE                     	line	115
  5368                           	
  5369                           l3599:
  5370  000ABE                     	movff	(strtod@s),fsr2l
  5371  000ABE  C0AA  FFD9         	movff	(strtod@s+1),fsr2h
  5372  000AC2  C0AB  FFDA         	movf	indf2,w
  5373  000AC6  50DF               	movlb	0	; () banked
  5374  000AC8  0100               	movwf	(??_strtod+0+0)&0ffh
  5375  000ACA  6FAE               	movf	((strtod@eexp))&0ffh,w
  5376  000ACC  51AF               	mullw	0Ah
  5377  000ACE  0D0A               	movf	(prodl),c,w
  5378  000AD0  50F3               	addwf	((??_strtod+0+0))&0ffh,w
  5379  000AD2  25AE               	addlw	low(-48)
  5380  000AD4  0FD0               	movwf	((strtod@eexp))&0ffh
  5381  000AD6  6FAF               	
  5382                           l3601:; BSR set to: 0
  5383  000AD8                     
  5384                           	infsnz	((strtod@s))&0ffh
  5385  000AD8  4BAA               	incf	((strtod@s+1))&0ffh
  5386  000ADA  2BAB               	line	116
  5387                           	
  5388                           l3603:; BSR set to: 0
  5389  000ADC                     
  5390                           	movff	(strtod@s),fsr2l
  5391  000ADC  C0AA  FFD9         	movff	(strtod@s+1),fsr2h
  5392  000AE0  C0AB  FFDA         	movf	indf2,w
  5393  000AE4  50DF               	
  5394                           	call	_isdigit
  5395  000AE6  ECFE  F016         	btfss	status,0
  5396  000AEA  A0D8               	goto	u4451
  5397  000AEC  EF7A  F005         	goto	u4450
  5398  000AF0  EF7C  F005         u4451:
  5399  000AF4                     	goto	l3607
  5400  000AF4  EF8F  F005         u4450:
  5401  000AF8                     	line	117
  5402                           	
  5403                           l3605:
  5404  000AF8                     	movff	(strtod@s),fsr2l
  5405  000AF8  C0AA  FFD9         	movff	(strtod@s+1),fsr2h
  5406  000AFC  C0AB  FFDA         	movf	indf2,w
  5407  000B00  50DF               	movlb	0	; () banked
  5408  000B02  0100               	movwf	(??_strtod+0+0)&0ffh
  5409  000B04  6FAE               	movf	((strtod@eexp))&0ffh,w
  5410  000B06  51AF               	mullw	0Ah
  5411  000B08  0D0A               	movf	(prodl),c,w
  5412  000B0A  50F3               	addwf	((??_strtod+0+0))&0ffh,w
  5413  000B0C  25AE               	addlw	low(-48)
  5414  000B0E  0FD0               	movwf	((strtod@eexp))&0ffh
  5415  000B10  6FAF               	goto	l3607
  5416  000B12  EF8F  F005         	
  5417                           l410:; BSR set to: 0
  5418  000B16                     
  5419                           	goto	l3607
  5420  000B16  EF8F  F005         	line	118
  5421                           	
  5422                           l409:; BSR set to: 0
  5423  000B1A                     
  5424                           	goto	l3607
  5425  000B1A  EF8F  F005         	line	119
  5426                           	
  5427                           l408:; BSR set to: 0
  5428  000B1E                     
  5429                           	line	120
  5430                           	
  5431                           l3607:
  5432  000B1E                     	movlb	0	; () banked
  5433  000B1E  0100               	
  5434                           	btfss	((strtod@flags))&0ffh,(3)&7
  5435  000B20  A7B0               	goto	u4461
  5436  000B22  EF95  F005         	goto	u4460
  5437  000B26  EF97  F005         u4461:
  5438  000B2A                     	goto	l3611
  5439  000B2A  EF9C  F005         u4460:
  5440  000B2E                     	line	121
  5441                           	
  5442                           l3609:; BSR set to: 0
  5443  000B2E                     
  5444                           	negf	((strtod@eexp))&0ffh
  5445  000B2E  6DAF               	goto	l3611
  5446  000B30  EF9C  F005         	
  5447                           l411:; BSR set to: 0
  5448  000B34                     
  5449                           	goto	l3611
  5450  000B34  EF9C  F005         	line	122
  5451                           	
  5452                           l399:; BSR set to: 0
  5453  000B38                     
  5454                           	line	123
  5455                           	
  5456                           l3611:; BSR set to: 0
  5457  000B38                     
  5458                           	movf	((strtod@eexp))&0ffh,w
  5459  000B38  51AF               	addwf	((strtod@expon))&0ffh
  5460  000B3A  27B1               	line	125
  5461                           	
  5462                           l3613:; BSR set to: 0
  5463  000B3C                     
  5464                           	movf	((strtod@res))&0ffh,w
  5465  000B3C  51AC               iorwf	((strtod@res+1))&0ffh,w
  5466  000B3E  11AD               	btfsc	status,2
  5467  000B40  B4D8               	goto	u4471
  5468  000B42  EFA5  F005         	goto	u4470
  5469  000B46  EFA7  F005         
  5470                           u4471:
  5471  000B4A                     	goto	l3619
  5472  000B4A  EFB8  F005         u4470:
  5473  000B4E                     	
  5474                           l3615:; BSR set to: 0
  5475  000B4E                     
  5476                           	
  5477                           	btfss	((strtod@flags))&0ffh,(1)&7
  5478  000B4E  A3B0               	goto	u4481
  5479  000B50  EFAC  F005         	goto	u4480
  5480  000B54  EFAE  F005         u4481:
  5481  000B58                     	goto	l3619
  5482  000B58  EFB8  F005         u4480:
  5483  000B5C                     	line	126
  5484                           	
  5485                           l3617:; BSR set to: 0
  5486  000B5C                     
  5487                           	movff	(strtod@res),fsr2l
  5488  000B5C  C0AC  FFD9         	movff	(strtod@res+1),fsr2h
  5489  000B60  C0AD  FFDA         	movff	(strtod@s),postinc2
  5490  000B64  C0AA  FFDE         	movff	(strtod@s+1),postdec2
  5491  000B68  C0AB  FFDD         	goto	l3619
  5492  000B6C  EFB8  F005         	
  5493                           l412:; BSR set to: 0
  5494  000B70                     
  5495                           	line	130
  5496                           	
  5497                           l3619:; BSR set to: 0
  5498  000B70                     
  5499                           	movff	(strtod@_u),(___xxtofl@val)
  5500  000B70  C0B2  F060         	movff	(strtod@_u+1),(___xxtofl@val+1)
  5501  000B74  C0B3  F061         	movff	(strtod@_u+2),(___xxtofl@val+2)
  5502  000B78  C0B4  F062         	movff	(strtod@_u+3),(___xxtofl@val+3)
  5503  000B7C  C0B5  F063         	movlw	(01h)&0ffh
  5504  000B80  0E01               	
  5505                           	call	___xxtofl
  5506  000B82  ECF0  F011         	movff	0+?___xxtofl,(strtod@_u)
  5507  000B86  C060  F0B2         	movff	1+?___xxtofl,(strtod@_u+1)
  5508  000B8A  C061  F0B3         	movff	2+?___xxtofl,(strtod@_u+2)
  5509  000B8E  C062  F0B4         	movff	3+?___xxtofl,(strtod@_u+3)
  5510  000B92  C063  F0B5         	
  5511                           	line	132
  5512                           	
  5513                           l3621:
  5514  000B96                     	movlb	0	; () banked
  5515  000B96  0100               	movf	((strtod@_u))&0ffh,w
  5516  000B98  51B2               iorwf	((strtod@_u+1))&0ffh,w
  5517  000B9A  11B3               iorwf	((strtod@_u+2))&0ffh,w
  5518  000B9C  11B4               iorwf	((strtod@_u+3))&0ffh,w
  5519  000B9E  11B5               	btfss	status,2
  5520  000BA0  A4D8               	goto	u4491
  5521  000BA2  EFD5  F005         	goto	u4490
  5522  000BA6  EFD7  F005         
  5523                           u4491:
  5524  000BAA                     	goto	l3627
  5525  000BAA  EFE3  F005         u4490:
  5526  000BAE                     	line	133
  5527                           	
  5528                           l3623:; BSR set to: 0
  5529  000BAE                     
  5530                           	movlw	low(normalize32(0.0000000000000000))
  5531  000BAE  0E00               	movwf	((?_strtod))&0ffh
  5532  000BB0  6FAA               	movlw	high(normalize32(0.0000000000000000))
  5533  000BB2  0E00               	movwf	((?_strtod+1))&0ffh
  5534  000BB4  6FAB               	movlw	low highword(normalize32(0.0000000000000000))
  5535  000BB6  0E00               	movwf	((?_strtod+2))&0ffh
  5536  000BB8  6FAC               	movlw	high highword(normalize32(0.0000000000000000))
  5537  000BBA  0E00               	movwf	((?_strtod+3))&0ffh
  5538  000BBC  6FAD               	goto	l414
  5539  000BBE  EF3E  F007         	
  5540                           l3625:; BSR set to: 0
  5541  000BC2                     
  5542                           	goto	l414
  5543  000BC2  EF3E  F007         	
  5544                           l413:; BSR set to: 0
  5545  000BC6                     
  5546                           	line	134
  5547                           	
  5548                           l3627:; BSR set to: 0
  5549  000BC6                     
  5550                           	btfsc	((strtod@expon))&0ffh,7
  5551  000BC6  BFB1               	goto	u4500
  5552  000BC8  EFEA  F005         	goto	u4501
  5553  000BCC  EFE8  F005         
  5554                           u4501:
  5555  000BD0                     	goto	l3655
  5556  000BD0  EF7D  F006         u4500:
  5557  000BD4                     	line	135
  5558                           	
  5559                           l3629:; BSR set to: 0
  5560  000BD4                     
  5561                           	negf	((strtod@expon))&0ffh
  5562  000BD4  6DB1               	line	143
  5563                           	goto	l3635
  5564  000BD6  EF0C  F006         	
  5565                           l417:; BSR set to: 0
  5566  000BDA                     
  5567                           	line	144
  5568                           	
  5569                           l3631:; BSR set to: 0
  5570  000BDA                     
  5571                           	movff	(strtod@_u),(___fldiv@b)
  5572  000BDA  C0B2  F091         	movff	(strtod@_u+1),(___fldiv@b+1)
  5573  000BDE  C0B3  F092         	movff	(strtod@_u+2),(___fldiv@b+2)
  5574  000BE2  C0B4  F093         	movff	(strtod@_u+3),(___fldiv@b+3)
  5575  000BE6  C0B5  F094         	movlw	low(normalize32(10000000000.000000))
  5576  000BEA  0EF9               	movwf	((___fldiv@a))&0ffh
  5577  000BEC  6F95               	movlw	high(normalize32(10000000000.000000))
  5578  000BEE  0E02               	movwf	((___fldiv@a+1))&0ffh
  5579  000BF0  6F96               	movlw	low highword(normalize32(10000000000.000000))
  5580  000BF2  0E15               	movwf	((___fldiv@a+2))&0ffh
  5581  000BF4  6F97               	movlw	high highword(normalize32(10000000000.000000))
  5582  000BF6  0E50               	movwf	((___fldiv@a+3))&0ffh
  5583  000BF8  6F98               	call	___fldiv	;wreg free
  5584  000BFA  ECE1  F00E         	movff	0+?___fldiv,(strtod@_u)
  5585  000BFE  C091  F0B2         	movff	1+?___fldiv,(strtod@_u+1)
  5586  000C02  C092  F0B3         	movff	2+?___fldiv,(strtod@_u+2)
  5587  000C06  C093  F0B4         	movff	3+?___fldiv,(strtod@_u+3)
  5588  000C0A  C094  F0B5         	
  5589                           	line	145
  5590                           	
  5591                           l3633:
  5592  000C0E                     	movlw	(-10)&0ffh
  5593  000C0E  0EF6               	movlb	0	; () banked
  5594  000C10  0100               	addwf	((strtod@expon))&0ffh
  5595  000C12  27B1               	goto	l3635
  5596  000C14  EF0C  F006         	line	146
  5597                           	
  5598                           l416:; BSR set to: 0
  5599  000C18                     
  5600                           	line	143
  5601                           	
  5602                           l3635:; BSR set to: 0
  5603  000C18                     
  5604                           		movf	((strtod@expon))&0ffh,w
  5605  000C18  51B1               	xorlw	80h
  5606  000C1A  0A80               	addlw	-(80h^0Ah)
  5607  000C1C  0F76               	btfsc	status,0
  5608  000C1E  B0D8               	goto	u4511
  5609  000C20  EF14  F006         	goto	u4510
  5610  000C24  EF16  F006         
  5611                           u4511:
  5612  000C28                     	goto	l3631
  5613  000C28  EFED  F005         u4510:
  5614  000C2C                     	goto	l3641
  5615  000C2C  EF38  F006         	
  5616                           l418:; BSR set to: 0
  5617  000C30                     
  5618                           	line	147
  5619                           	goto	l3641
  5620  000C30  EF38  F006         	
  5621                           l420:; BSR set to: 0
  5622  000C34                     
  5623                           	line	148
  5624                           	
  5625                           l3637:; BSR set to: 0
  5626  000C34                     
  5627                           	movff	(strtod@_u),(___fldiv@b)
  5628  000C34  C0B2  F091         	movff	(strtod@_u+1),(___fldiv@b+1)
  5629  000C38  C0B3  F092         	movff	(strtod@_u+2),(___fldiv@b+2)
  5630  000C3C  C0B4  F093         	movff	(strtod@_u+3),(___fldiv@b+3)
  5631  000C40  C0B5  F094         	movlw	low(normalize32(10.000000000000000))
  5632  000C44  0E00               	movwf	((___fldiv@a))&0ffh
  5633  000C46  6F95               	movlw	high(normalize32(10.000000000000000))
  5634  000C48  0E00               	movwf	((___fldiv@a+1))&0ffh
  5635  000C4A  6F96               	movlw	low highword(normalize32(10.000000000000000))
  5636  000C4C  0E20               	movwf	((___fldiv@a+2))&0ffh
  5637  000C4E  6F97               	movlw	high highword(normalize32(10.000000000000000))
  5638  000C50  0E41               	movwf	((___fldiv@a+3))&0ffh
  5639  000C52  6F98               	call	___fldiv	;wreg free
  5640  000C54  ECE1  F00E         	movff	0+?___fldiv,(strtod@_u)
  5641  000C58  C091  F0B2         	movff	1+?___fldiv,(strtod@_u+1)
  5642  000C5C  C092  F0B3         	movff	2+?___fldiv,(strtod@_u+2)
  5643  000C60  C093  F0B4         	movff	3+?___fldiv,(strtod@_u+3)
  5644  000C64  C094  F0B5         	
  5645                           	line	149
  5646                           	
  5647                           l3639:
  5648  000C68                     	movlb	0	; () banked
  5649  000C68  0100               	decf	((strtod@expon))&0ffh
  5650  000C6A  07B1               	goto	l3641
  5651  000C6C  EF38  F006         	line	150
  5652                           	
  5653                           l419:; BSR set to: 0
  5654  000C70                     
  5655                           	line	147
  5656                           	
  5657                           l3641:; BSR set to: 0
  5658  000C70                     
  5659                           	movf	((strtod@expon))&0ffh,w
  5660  000C70  51B1               	btfss	status,2
  5661  000C72  A4D8               	goto	u4521
  5662  000C74  EF3E  F006         	goto	u4520
  5663  000C78  EF40  F006         u4521:
  5664  000C7C                     	goto	l3637
  5665  000C7C  EF1A  F006         u4520:
  5666  000C80                     	goto	l3643
  5667  000C80  EF42  F006         	
  5668                           l421:; BSR set to: 0
  5669  000C84                     
  5670                           	line	159
  5671                           	
  5672                           l3643:; BSR set to: 0
  5673  000C84                     
  5674                           	movff	(strtod@_u),(___flge@ff1)
  5675  000C84  C0B2  F060         	movff	(strtod@_u+1),(___flge@ff1+1)
  5676  000C88  C0B3  F061         	movff	(strtod@_u+2),(___flge@ff1+2)
  5677  000C8C  C0B4  F062         	movff	(strtod@_u+3),(___flge@ff1+3)
  5678  000C90  C0B5  F063         	movlw	low(normalize32(1.1754943500000000e-38))
  5679  000C94  0E00               	movwf	((___flge@ff2))&0ffh
  5680  000C96  6F64               	movlw	high(normalize32(1.1754943500000000e-38))
  5681  000C98  0E00               	movwf	((___flge@ff2+1))&0ffh
  5682  000C9A  6F65               	movlw	low highword(normalize32(1.1754943500000000e-38))
  5683  000C9C  0E80               	movwf	((___flge@ff2+2))&0ffh
  5684  000C9E  6F66               	movlw	high highword(normalize32(1.1754943500000000e-38))
  5685  000CA0  0E00               	movwf	((___flge@ff2+3))&0ffh
  5686  000CA2  6F67               	call	___flge	;wreg free
  5687  000CA4  ECE5  F012         	movlb	0	; () banked
  5688  000CA8  0100               	btfsc	status,0
  5689  000CAA  B0D8               	goto	u4531
  5690  000CAC  EF5A  F006         	goto	u4530
  5691  000CB0  EF5C  F006         u4531:
  5692  000CB4                     	goto	l424
  5693  000CB4  EF19  F007         u4530:
  5694  000CB8                     	line	160
  5695                           	
  5696                           l3645:; BSR set to: 0
  5697  000CB8                     
  5698                           	
  5699                           	btfss	((strtod@flags))&0ffh,(0)&7
  5700  000CB8  A1B0               	goto	u4541
  5701  000CBA  EF61  F006         	goto	u4540
  5702  000CBE  EF63  F006         u4541:
  5703  000CC2                     	goto	l3651
  5704  000CC2  EF6F  F006         u4540:
  5705  000CC6                     	line	161
  5706                           	
  5707                           l3647:; BSR set to: 0
  5708  000CC6                     
  5709                           	movlw	low(normalize32(-1.1754943500000000e-38))
  5710  000CC6  0E00               	movwf	((?_strtod))&0ffh
  5711  000CC8  6FAA               	movlw	high(normalize32(-1.1754943500000000e-38))
  5712  000CCA  0E00               	movwf	((?_strtod+1))&0ffh
  5713  000CCC  6FAB               	movlw	low highword(normalize32(-1.1754943500000000e-38))
  5714  000CCE  0E80               	movwf	((?_strtod+2))&0ffh
  5715  000CD0  6FAC               	movlw	high highword(normalize32(-1.1754943500000000e-38))
  5716  000CD2  0E80               	movwf	((?_strtod+3))&0ffh
  5717  000CD4  6FAD               	goto	l414
  5718  000CD6  EF3E  F007         	
  5719                           l3649:; BSR set to: 0
  5720  000CDA                     
  5721                           	goto	l414
  5722  000CDA  EF3E  F007         	
  5723                           l423:; BSR set to: 0
  5724  000CDE                     
  5725                           	line	162
  5726                           	
  5727                           l3651:; BSR set to: 0
  5728  000CDE                     
  5729                           	movlw	low(normalize32(1.1754943500000000e-38))
  5730  000CDE  0E00               	movwf	((?_strtod))&0ffh
  5731  000CE0  6FAA               	movlw	high(normalize32(1.1754943500000000e-38))
  5732  000CE2  0E00               	movwf	((?_strtod+1))&0ffh
  5733  000CE4  6FAB               	movlw	low highword(normalize32(1.1754943500000000e-38))
  5734  000CE6  0E80               	movwf	((?_strtod+2))&0ffh
  5735  000CE8  6FAC               	movlw	high highword(normalize32(1.1754943500000000e-38))
  5736  000CEA  0E00               	movwf	((?_strtod+3))&0ffh
  5737  000CEC  6FAD               	goto	l414
  5738  000CEE  EF3E  F007         	
  5739                           l3653:; BSR set to: 0
  5740  000CF2                     
  5741                           	goto	l414
  5742  000CF2  EF3E  F007         	line	163
  5743                           	
  5744                           l422:; BSR set to: 0
  5745  000CF6                     
  5746                           	line	164
  5747                           	goto	l424
  5748  000CF6  EF19  F007         	
  5749                           l415:; BSR set to: 0
  5750  000CFA                     
  5751                           	
  5752                           l3655:; BSR set to: 0
  5753  000CFA                     
  5754                           		movf	((strtod@expon))&0ffh,w
  5755  000CFA  51B1               	xorlw	80h
  5756  000CFC  0A80               	addlw	-(80h^01h)
  5757  000CFE  0F7F               	btfss	status,0
  5758  000D00  A0D8               	goto	u4551
  5759  000D02  EF85  F006         	goto	u4550
  5760  000D06  EF87  F006         
  5761                           u4551:
  5762  000D0A                     	goto	l424
  5763  000D0A  EF19  F007         u4550:
  5764  000D0E                     	goto	l3663
  5765  000D0E  EFAA  F006         	line	172
  5766                           	
  5767                           l3657:; BSR set to: 0
  5768  000D12                     
  5769                           	goto	l3663
  5770  000D12  EFAA  F006         	
  5771                           l427:; BSR set to: 0
  5772  000D16                     
  5773                           	line	173
  5774                           	
  5775                           l3659:; BSR set to: 0
  5776  000D16                     
  5777                           	movff	(strtod@_u),(___flmul@b)
  5778  000D16  C0B2  F078         	movff	(strtod@_u+1),(___flmul@b+1)
  5779  000D1A  C0B3  F079         	movff	(strtod@_u+2),(___flmul@b+2)
  5780  000D1E  C0B4  F07A         	movff	(strtod@_u+3),(___flmul@b+3)
  5781  000D22  C0B5  F07B         	movlw	low(normalize32(10000000000.000000))
  5782  000D26  0EF9               	movwf	((___flmul@a))&0ffh
  5783  000D28  6F7C               	movlw	high(normalize32(10000000000.000000))
  5784  000D2A  0E02               	movwf	((___flmul@a+1))&0ffh
  5785  000D2C  6F7D               	movlw	low highword(normalize32(10000000000.000000))
  5786  000D2E  0E15               	movwf	((___flmul@a+2))&0ffh
  5787  000D30  6F7E               	movlw	high highword(normalize32(10000000000.000000))
  5788  000D32  0E50               	movwf	((___flmul@a+3))&0ffh
  5789  000D34  6F7F               	call	___flmul	;wreg free
  5790  000D36  ECA9  F00C         	movff	0+?___flmul,(strtod@_u)
  5791  000D3A  C078  F0B2         	movff	1+?___flmul,(strtod@_u+1)
  5792  000D3E  C079  F0B3         	movff	2+?___flmul,(strtod@_u+2)
  5793  000D42  C07A  F0B4         	movff	3+?___flmul,(strtod@_u+3)
  5794  000D46  C07B  F0B5         	
  5795                           	line	174
  5796                           	
  5797                           l3661:
  5798  000D4A                     	movlw	(-10)&0ffh
  5799  000D4A  0EF6               	movlb	0	; () banked
  5800  000D4C  0100               	addwf	((strtod@expon))&0ffh
  5801  000D4E  27B1               	goto	l3663
  5802  000D50  EFAA  F006         	line	175
  5803                           	
  5804                           l426:; BSR set to: 0
  5805  000D54                     
  5806                           	line	172
  5807                           	
  5808                           l3663:; BSR set to: 0
  5809  000D54                     
  5810                           		movlw	0Ah-0
  5811  000D54  0E0A               	cpfslt	((strtod@expon))&0ffh
  5812  000D56  61B1               	goto	u4561
  5813  000D58  EFB0  F006         	goto	u4560
  5814  000D5C  EFB2  F006         
  5815                           u4561:
  5816  000D60                     	goto	l3659
  5817  000D60  EF8B  F006         u4560:
  5818  000D64                     	goto	l3669
  5819  000D64  EFD4  F006         	
  5820                           l428:; BSR set to: 0
  5821  000D68                     
  5822                           	line	176
  5823                           	goto	l3669
  5824  000D68  EFD4  F006         	
  5825                           l430:; BSR set to: 0
  5826  000D6C                     
  5827                           	line	177
  5828                           	
  5829                           l3665:; BSR set to: 0
  5830  000D6C                     
  5831                           	movff	(strtod@_u),(___flmul@b)
  5832  000D6C  C0B2  F078         	movff	(strtod@_u+1),(___flmul@b+1)
  5833  000D70  C0B3  F079         	movff	(strtod@_u+2),(___flmul@b+2)
  5834  000D74  C0B4  F07A         	movff	(strtod@_u+3),(___flmul@b+3)
  5835  000D78  C0B5  F07B         	movlw	low(normalize32(10.000000000000000))
  5836  000D7C  0E00               	movwf	((___flmul@a))&0ffh
  5837  000D7E  6F7C               	movlw	high(normalize32(10.000000000000000))
  5838  000D80  0E00               	movwf	((___flmul@a+1))&0ffh
  5839  000D82  6F7D               	movlw	low highword(normalize32(10.000000000000000))
  5840  000D84  0E20               	movwf	((___flmul@a+2))&0ffh
  5841  000D86  6F7E               	movlw	high highword(normalize32(10.000000000000000))
  5842  000D88  0E41               	movwf	((___flmul@a+3))&0ffh
  5843  000D8A  6F7F               	call	___flmul	;wreg free
  5844  000D8C  ECA9  F00C         	movff	0+?___flmul,(strtod@_u)
  5845  000D90  C078  F0B2         	movff	1+?___flmul,(strtod@_u+1)
  5846  000D94  C079  F0B3         	movff	2+?___flmul,(strtod@_u+2)
  5847  000D98  C07A  F0B4         	movff	3+?___flmul,(strtod@_u+3)
  5848  000D9C  C07B  F0B5         	
  5849                           	line	178
  5850                           	
  5851                           l3667:
  5852  000DA0                     	movlb	0	; () banked
  5853  000DA0  0100               	decf	((strtod@expon))&0ffh
  5854  000DA2  07B1               	goto	l3669
  5855  000DA4  EFD4  F006         	line	179
  5856                           	
  5857                           l429:; BSR set to: 0
  5858  000DA8                     
  5859                           	line	176
  5860                           	
  5861                           l3669:; BSR set to: 0
  5862  000DA8                     
  5863                           	movf	((strtod@expon))&0ffh,w
  5864  000DA8  51B1               	btfss	status,2
  5865  000DAA  A4D8               	goto	u4571
  5866  000DAC  EFDA  F006         	goto	u4570
  5867  000DB0  EFDC  F006         u4571:
  5868  000DB4                     	goto	l3665
  5869  000DB4  EFB6  F006         u4570:
  5870  000DB8                     	goto	l3671
  5871  000DB8  EFDE  F006         	
  5872                           l431:; BSR set to: 0
  5873  000DBC                     
  5874                           	line	188
  5875                           	
  5876                           l3671:; BSR set to: 0
  5877  000DBC                     
  5878                           	movlw	low(normalize32(3.4028234699999998e+38))
  5879  000DBC  0EFF               	movwf	((___flge@ff1))&0ffh
  5880  000DBE  6F60               	movlw	high(normalize32(3.4028234699999998e+38))
  5881  000DC0  0EFF               	movwf	((___flge@ff1+1))&0ffh
  5882  000DC2  6F61               	movlw	low highword(normalize32(3.4028234699999998e+38))
  5883  000DC4  0E7F               	movwf	((___flge@ff1+2))&0ffh
  5884  000DC6  6F62               	movlw	high highword(normalize32(3.4028234699999998e+38))
  5885  000DC8  0E7F               	movwf	((___flge@ff1+3))&0ffh
  5886  000DCA  6F63               	movff	(strtod@_u),(___flge@ff2)
  5887  000DCC  C0B2  F064         	movff	(strtod@_u+1),(___flge@ff2+1)
  5888  000DD0  C0B3  F065         	movff	(strtod@_u+2),(___flge@ff2+2)
  5889  000DD4  C0B4  F066         	movff	(strtod@_u+3),(___flge@ff2+3)
  5890  000DD8  C0B5  F067         	call	___flge	;wreg free
  5891  000DDC  ECE5  F012         	movlb	0	; () banked
  5892  000DE0  0100               	btfsc	status,0
  5893  000DE2  B0D8               	goto	u4581
  5894  000DE4  EFF6  F006         	goto	u4580
  5895  000DE8  EFF8  F006         u4581:
  5896  000DEC                     	goto	l424
  5897  000DEC  EF19  F007         u4580:
  5898  000DF0                     	line	189
  5899                           	
  5900                           l3673:; BSR set to: 0
  5901  000DF0                     
  5902                           	
  5903                           	btfss	((strtod@flags))&0ffh,(0)&7
  5904  000DF0  A1B0               	goto	u4591
  5905  000DF2  EFFD  F006         	goto	u4590
  5906  000DF6  EFFF  F006         u4591:
  5907  000DFA                     	goto	l3679
  5908  000DFA  EF0B  F007         u4590:
  5909  000DFE                     	line	190
  5910                           	
  5911                           l3675:; BSR set to: 0
  5912  000DFE                     
  5913                           	movlw	low(normalize32(-1.1754943500000000e-38))
  5914  000DFE  0E00               	movwf	((?_strtod))&0ffh
  5915  000E00  6FAA               	movlw	high(normalize32(-1.1754943500000000e-38))
  5916  000E02  0E00               	movwf	((?_strtod+1))&0ffh
  5917  000E04  6FAB               	movlw	low highword(normalize32(-1.1754943500000000e-38))
  5918  000E06  0E80               	movwf	((?_strtod+2))&0ffh
  5919  000E08  6FAC               	movlw	high highword(normalize32(-1.1754943500000000e-38))
  5920  000E0A  0E80               	movwf	((?_strtod+3))&0ffh
  5921  000E0C  6FAD               	goto	l414
  5922  000E0E  EF3E  F007         	
  5923                           l3677:; BSR set to: 0
  5924  000E12                     
  5925                           	goto	l414
  5926  000E12  EF3E  F007         	
  5927                           l433:; BSR set to: 0
  5928  000E16                     
  5929                           	line	191
  5930                           	
  5931                           l3679:; BSR set to: 0
  5932  000E16                     
  5933                           	movlw	low(normalize32(1.1754943500000000e-38))
  5934  000E16  0E00               	movwf	((?_strtod))&0ffh
  5935  000E18  6FAA               	movlw	high(normalize32(1.1754943500000000e-38))
  5936  000E1A  0E00               	movwf	((?_strtod+1))&0ffh
  5937  000E1C  6FAB               	movlw	low highword(normalize32(1.1754943500000000e-38))
  5938  000E1E  0E80               	movwf	((?_strtod+2))&0ffh
  5939  000E20  6FAC               	movlw	high highword(normalize32(1.1754943500000000e-38))
  5940  000E22  0E00               	movwf	((?_strtod+3))&0ffh
  5941  000E24  6FAD               	goto	l414
  5942  000E26  EF3E  F007         	
  5943                           l3681:; BSR set to: 0
  5944  000E2A                     
  5945                           	goto	l414
  5946  000E2A  EF3E  F007         	line	192
  5947                           	
  5948                           l432:; BSR set to: 0
  5949  000E2E                     
  5950                           	goto	l424
  5951  000E2E  EF19  F007         	line	193
  5952                           	
  5953                           l425:; BSR set to: 0
  5954  000E32                     
  5955                           	line	194
  5956                           	
  5957                           l424:; BSR set to: 0
  5958  000E32                     
  5959                           	
  5960                           	btfss	((strtod@flags))&0ffh,(0)&7
  5961  000E32  A1B0               	goto	u4601
  5962  000E34  EF1E  F007         	goto	u4600
  5963  000E38  EF20  F007         u4601:
  5964  000E3C                     	goto	l3685
  5965  000E3C  EF34  F007         u4600:
  5966  000E40                     	line	195
  5967                           	
  5968                           l3683:; BSR set to: 0
  5969  000E40                     
  5970                           	movff	(strtod@_u),(___flneg@f1)
  5971  000E40  C0B2  F060         	movff	(strtod@_u+1),(___flneg@f1+1)
  5972  000E44  C0B3  F061         	movff	(strtod@_u+2),(___flneg@f1+2)
  5973  000E48  C0B4  F062         	movff	(strtod@_u+3),(___flneg@f1+3)
  5974  000E4C  C0B5  F063         	call	___flneg	;wreg free
  5975  000E50  ECDD  F016         	movff	0+?___flneg,(strtod@_u)
  5976  000E54  C060  F0B2         	movff	1+?___flneg,(strtod@_u+1)
  5977  000E58  C061  F0B3         	movff	2+?___flneg,(strtod@_u+2)
  5978  000E5C  C062  F0B4         	movff	3+?___flneg,(strtod@_u+3)
  5979  000E60  C063  F0B5         	
  5980                           	goto	l3685
  5981  000E64  EF34  F007         	
  5982                           l434:
  5983  000E68                     	line	196
  5984                           	
  5985                           l3685:
  5986  000E68                     	movff	(strtod@_u),(?_strtod)
  5987  000E68  C0B2  F0AA         	movff	(strtod@_u+1),(?_strtod+1)
  5988  000E6C  C0B3  F0AB         	movff	(strtod@_u+2),(?_strtod+2)
  5989  000E70  C0B4  F0AC         	movff	(strtod@_u+3),(?_strtod+3)
  5990  000E74  C0B5  F0AD         	goto	l414
  5991  000E78  EF3E  F007         	
  5992                           l3687:
  5993  000E7C                     	line	197
  5994                           	
  5995                           l414:
  5996  000E7C                     	return	;funcret
  5997  000E7C  0012               	opt stack 0
  5998                           GLOBAL	__end_of_strtod
  5999                           	__end_of_strtod:
  6000  000E7E                     	signat	_strtod,8316
  6001                           	global	_isspace
  6002                           
  6003 ;; *************** function _isspace *****************
  6004 ;; Defined at:
  6005 ;;		line 8 in file "/Applications/microchip/xc8/v1.45/sources/common/isspace.c"
  6006 ;; Parameters:    Size  Location     Type
  6007 ;;  c               1    wreg     unsigned char 
  6008 ;; Auto vars:     Size  Location     Type
  6009 ;;  c               1    2[BANK0 ] unsigned char 
  6010 ;; Return value:  Size  Location     Type
  6011 ;;		None               void
  6012 ;; Registers used:
  6013 ;;		wreg, status,2, status,0
  6014 ;; Tracked objects:
  6015 ;;		On entry : 0/0
  6016 ;;		On exit  : 0/0
  6017 ;;		Unchanged: 0/0
  6018 ;; Data sizes:     COMRAM   BANK0   BANK1   BANK2   BANK3   BANK4   BANK5   BANK6   BANK7
  6019 ;;      Params:         0       0       0       0       0       0       0       0       0
  6020 ;;      Locals:         0       2       0       0       0       0       0       0       0
  6021 ;;      Temps:          0       1       0       0       0       0       0       0       0
  6022 ;;      Totals:         0       3       0       0       0       0       0       0       0
  6023 ;;Total ram usage:        3 bytes
  6024 ;; Hardware stack levels used:    1
  6025 ;; Hardware stack levels required when called:    2
  6026 ;; This function calls:
  6027 ;;		Nothing
  6028 ;; This function is called by:
  6029 ;;		_strtod
  6030 ;; This function uses a non-reentrant model
  6031 ;;
  6032                           psect	text8,class=CODE,space=0,reloc=2,group=1
  6033                           	file	"/Applications/microchip/xc8/v1.45/sources/common/isspace.c"
  6034                           	line	8
  6035                           global __ptext8
  6036                           __ptext8:
  6037  002D14                     psect	text8
  6038                           	file	"/Applications/microchip/xc8/v1.45/sources/common/isspace.c"
  6039                           	line	8
  6040                           	global	__size_of_isspace
  6041                           	__size_of_isspace	equ	__end_of_isspace-_isspace
  6042  0000                     	
  6043                           _isspace:
  6044  002D14                     ;incstack = 0
  6045                           	opt	stack 26
  6046                           ;isspace@c stored from wreg
  6047                           	movlb	0	; () banked
  6048  002D14  0100               	movwf	((isspace@c))&0ffh
  6049  002D16  6F62               	line	14
  6050                           	
  6051                           l3417:
  6052  002D18                     	movlw	low(01h)
  6053  002D18  0E01               	movlb	0	; () banked
  6054  002D1A  0100               	movwf	((_isspace$1125))&0ffh
  6055  002D1C  6F61               	
  6056                           l3419:; BSR set to: 0
  6057  002D1E                     
  6058                           		movlw	32
  6059  002D1E  0E20               	xorwf	((isspace@c))&0ffh,w
  6060  002D20  1962               	btfsc	status,2
  6061  002D22  B4D8               	goto	u4051
  6062  002D24  EF96  F016         	goto	u4050
  6063  002D28  EF98  F016         
  6064                           u4051:
  6065  002D2C                     	goto	l3427
  6066  002D2C  EFAE  F016         u4050:
  6067  002D30                     	
  6068                           l3421:; BSR set to: 0
  6069  002D30                     
  6070                           		movlw	0Eh-0
  6071  002D30  0E0E               	cpfslt	((isspace@c))&0ffh
  6072  002D32  6162               	goto	u4061
  6073  002D34  EF9E  F016         	goto	u4060
  6074  002D38  EFA0  F016         
  6075                           u4061:
  6076  002D3C                     	goto	l3425
  6077  002D3C  EFAA  F016         u4060:
  6078  002D40                     	
  6079                           l3423:; BSR set to: 0
  6080  002D40                     
  6081                           		movlw	09h-0
  6082  002D40  0E09               	cpfslt	((isspace@c))&0ffh
  6083  002D42  6162               	goto	u4071
  6084  002D44  EFA6  F016         	goto	u4070
  6085  002D48  EFA8  F016         
  6086                           u4071:
  6087  002D4C                     	goto	l3427
  6088  002D4C  EFAE  F016         u4070:
  6089  002D50                     	goto	l3425
  6090  002D50  EFAA  F016         	
  6091                           l3135:; BSR set to: 0
  6092  002D54                     
  6093                           	
  6094                           l3425:; BSR set to: 0
  6095  002D54                     
  6096                           	movlw	low(0)
  6097  002D54  0E00               	movwf	((_isspace$1125))&0ffh
  6098  002D56  6F61               	goto	l3427
  6099  002D58  EFAE  F016         	
  6100                           l628:; BSR set to: 0
  6101  002D5C                     
  6102                           	
  6103                           l3427:; BSR set to: 0
  6104  002D5C                     
  6105                           	movff	(_isspace$1125),??_isspace+0+0
  6106  002D5C  C061  F060         	rrcf	(??_isspace+0+0)&0ffh,w
  6107  002D60  3160               	goto	l629
  6108  002D62  EFB3  F016         	
  6109                           l3429:; BSR set to: 0
  6110  002D66                     
  6111                           	line	15
  6112                           	
  6113                           l629:; BSR set to: 0
  6114  002D66                     
  6115                           	return	;funcret
  6116  002D66  0012               	opt stack 0
  6117                           GLOBAL	__end_of_isspace
  6118                           	__end_of_isspace:
  6119  002D68                     	signat	_isspace,4216
  6120                           	global	_isdigit
  6121                           
  6122 ;; *************** function _isdigit *****************
  6123 ;; Defined at:
  6124 ;;		line 8 in file "/Applications/microchip/xc8/v1.45/sources/common/isdigit.c"
  6125 ;; Parameters:    Size  Location     Type
  6126 ;;  c               1    wreg     unsigned char 
  6127 ;; Auto vars:     Size  Location     Type
  6128 ;;  c               1    2[BANK0 ] unsigned char 
  6129 ;; Return value:  Size  Location     Type
  6130 ;;		None               void
  6131 ;; Registers used:
  6132 ;;		wreg, status,2, status,0
  6133 ;; Tracked objects:
  6134 ;;		On entry : 0/0
  6135 ;;		On exit  : 0/0
  6136 ;;		Unchanged: 0/0
  6137 ;; Data sizes:     COMRAM   BANK0   BANK1   BANK2   BANK3   BANK4   BANK5   BANK6   BANK7
  6138 ;;      Params:         0       0       0       0       0       0       0       0       0
  6139 ;;      Locals:         0       2       0       0       0       0       0       0       0
  6140 ;;      Temps:          0       1       0       0       0       0       0       0       0
  6141 ;;      Totals:         0       3       0       0       0       0       0       0       0
  6142 ;;Total ram usage:        3 bytes
  6143 ;; Hardware stack levels used:    1
  6144 ;; Hardware stack levels required when called:    2
  6145 ;; This function calls:
  6146 ;;		Nothing
  6147 ;; This function is called by:
  6148 ;;		_strtod
  6149 ;;		_atoi
  6150 ;; This function uses a non-reentrant model
  6151 ;;
  6152                           psect	text9,class=CODE,space=0,reloc=2,group=1
  6153                           	file	"/Applications/microchip/xc8/v1.45/sources/common/isdigit.c"
  6154                           	line	8
  6155                           global __ptext9
  6156                           __ptext9:
  6157  002DFC                     psect	text9
  6158                           	file	"/Applications/microchip/xc8/v1.45/sources/common/isdigit.c"
  6159                           	line	8
  6160                           	global	__size_of_isdigit
  6161                           	__size_of_isdigit	equ	__end_of_isdigit-_isdigit
  6162  0000                     	
  6163                           _isdigit:; BSR set to: 0
  6164  002DFC                     
  6165                           ;incstack = 0
  6166                           	opt	stack 27
  6167                           ;isdigit@c stored from wreg
  6168                           	movlb	0	; () banked
  6169  002DFC  0100               	movwf	((isdigit@c))&0ffh
  6170  002DFE  6F62               	line	14
  6171                           	
  6172                           l3431:
  6173  002E00                     	movlw	low(0)
  6174  002E00  0E00               	movlb	0	; () banked
  6175  002E02  0100               	movwf	((_isdigit$1122))&0ffh
  6176  002E04  6F61               	
  6177                           l3433:; BSR set to: 0
  6178  002E06                     
  6179                           		movlw	03Ah-0
  6180  002E06  0E3A               	cpfslt	((isdigit@c))&0ffh
  6181  002E08  6162               	goto	u4081
  6182  002E0A  EF09  F017         	goto	u4080
  6183  002E0E  EF0B  F017         
  6184                           u4081:
  6185  002E12                     	goto	l3439
  6186  002E12  EF17  F017         u4080:
  6187  002E16                     	
  6188                           l3435:; BSR set to: 0
  6189  002E16                     
  6190                           		movlw	030h-1
  6191  002E16  0E2F               	cpfsgt	((isdigit@c))&0ffh
  6192  002E18  6562               	goto	u4091
  6193  002E1A  EF11  F017         	goto	u4090
  6194  002E1E  EF13  F017         
  6195                           u4091:
  6196  002E22                     	goto	l3439
  6197  002E22  EF17  F017         u4090:
  6198  002E26                     	
  6199                           l3437:; BSR set to: 0
  6200  002E26                     
  6201                           	movlw	low(01h)
  6202  002E26  0E01               	movwf	((_isdigit$1122))&0ffh
  6203  002E28  6F61               	goto	l3439
  6204  002E2A  EF17  F017         	
  6205                           l623:; BSR set to: 0
  6206  002E2E                     
  6207                           	
  6208                           l3439:; BSR set to: 0
  6209  002E2E                     
  6210                           	movff	(_isdigit$1122),??_isdigit+0+0
  6211  002E2E  C061  F060         	rrcf	(??_isdigit+0+0)&0ffh,w
  6212  002E32  3160               	goto	l624
  6213  002E34  EF1C  F017         	
  6214                           l3441:; BSR set to: 0
  6215  002E38                     
  6216                           	line	15
  6217                           	
  6218                           l624:; BSR set to: 0
  6219  002E38                     
  6220                           	return	;funcret
  6221  002E38  0012               	opt stack 0
  6222                           GLOBAL	__end_of_isdigit
  6223                           	__end_of_isdigit:
  6224  002E3A                     	signat	_isdigit,4216
  6225                           	global	___xxtofl
  6226                           
  6227 ;; *************** function ___xxtofl *****************
  6228 ;; Defined at:
  6229 ;;		line 10 in file "/Applications/microchip/xc8/v1.45/sources/common/xxtofl.c"
  6230 ;; Parameters:    Size  Location     Type
  6231 ;;  sign            1    wreg     unsigned char 
  6232 ;;  val             4    0[BANK0 ] long 
  6233 ;; Auto vars:     Size  Location     Type
  6234 ;;  sign            1    8[BANK0 ] unsigned char 
  6235 ;;  arg             4   10[BANK0 ] unsigned long 
  6236 ;;  exp             1    9[BANK0 ] unsigned char 
  6237 ;; Return value:  Size  Location     Type
  6238 ;;                  4    0[BANK0 ] unsigned char 
  6239 ;; Registers used:
  6240 ;;		wreg, status,2, status,0
  6241 ;; Tracked objects:
  6242 ;;		On entry : 0/0
  6243 ;;		On exit  : 0/0
  6244 ;;		Unchanged: 0/0
  6245 ;; Data sizes:     COMRAM   BANK0   BANK1   BANK2   BANK3   BANK4   BANK5   BANK6   BANK7
  6246 ;;      Params:         0       4       0       0       0       0       0       0       0
  6247 ;;      Locals:         0       6       0       0       0       0       0       0       0
  6248 ;;      Temps:          0       4       0       0       0       0       0       0       0
  6249 ;;      Totals:         0      14       0       0       0       0       0       0       0
  6250 ;;Total ram usage:       14 bytes
  6251 ;; Hardware stack levels used:    1
  6252 ;; Hardware stack levels required when called:    2
  6253 ;; This function calls:
  6254 ;;		Nothing
  6255 ;; This function is called by:
  6256 ;;		_main
  6257 ;;		_strtod
  6258 ;; This function uses a non-reentrant model
  6259 ;;
  6260                           psect	text10,class=CODE,space=0,reloc=2,group=1
  6261                           	file	"/Applications/microchip/xc8/v1.45/sources/common/xxtofl.c"
  6262                           	line	10
  6263                           global __ptext10
  6264                           __ptext10:
  6265  0023E0                     psect	text10
  6266                           	file	"/Applications/microchip/xc8/v1.45/sources/common/xxtofl.c"
  6267                           	line	10
  6268                           	global	__size_of___xxtofl
  6269                           	__size_of___xxtofl	equ	__end_of___xxtofl-___xxtofl
  6270  0000                     	
  6271                           ___xxtofl:; BSR set to: 0
  6272  0023E0                     
  6273                           ;incstack = 0
  6274                           	opt	stack 26
  6275                           ;___xxtofl@sign stored from wreg
  6276                           	movlb	0	; () banked
  6277  0023E0  0100               	movwf	((___xxtofl@sign))&0ffh
  6278  0023E2  6F68               	line	15
  6279                           	
  6280                           l3473:
  6281  0023E4                     	movlb	0	; () banked
  6282  0023E4  0100               	movf	((___xxtofl@sign))&0ffh,w
  6283  0023E6  5168               	btfsc	status,2
  6284  0023E8  B4D8               	goto	u4161
  6285  0023EA  EFF9  F011         	goto	u4160
  6286  0023EE  EFFB  F011         u4161:
  6287  0023F2                     	goto	l851
  6288  0023F2  EF1D  F012         u4160:
  6289  0023F6                     	
  6290                           l3475:; BSR set to: 0
  6291  0023F6                     
  6292                           	btfsc	((___xxtofl@val+3))&0ffh,7
  6293  0023F6  BF63               	goto	u4170
  6294  0023F8  EF02  F012         	goto	u4171
  6295  0023FC  EF00  F012         
  6296                           u4171:
  6297  002400                     	goto	l851
  6298  002400  EF1D  F012         u4170:
  6299  002404                     	line	16
  6300                           	
  6301                           l3477:; BSR set to: 0
  6302  002404                     
  6303                           	movff	(___xxtofl@val),??___xxtofl+0+0
  6304  002404  C060  F064         	movff	(___xxtofl@val+1),??___xxtofl+0+0+1
  6305  002408  C061  F065         	movff	(___xxtofl@val+2),??___xxtofl+0+0+2
  6306  00240C  C062  F066         	movff	(___xxtofl@val+3),??___xxtofl+0+0+3
  6307  002410  C063  F067         	comf	(??___xxtofl+0+0)&0ffh
  6308  002414  1F64               	comf	(??___xxtofl+0+1)&0ffh
  6309  002416  1F65               	comf	(??___xxtofl+0+2)&0ffh
  6310  002418  1F66               	comf	(??___xxtofl+0+3)&0ffh
  6311  00241A  1F67               	incf	(??___xxtofl+0+0)&0ffh
  6312  00241C  2B64               	movlw	0
  6313  00241E  0E00               	addwfc	(??___xxtofl+0+1)&0ffh
  6314  002420  2365               	addwfc	(??___xxtofl+0+2)&0ffh
  6315  002422  2366               	addwfc	(??___xxtofl+0+3)&0ffh
  6316  002424  2367               	movff	??___xxtofl+0+0,(___xxtofl@arg)
  6317  002426  C064  F06A         	movff	??___xxtofl+0+1,(___xxtofl@arg+1)
  6318  00242A  C065  F06B         	movff	??___xxtofl+0+2,(___xxtofl@arg+2)
  6319  00242E  C066  F06C         	movff	??___xxtofl+0+3,(___xxtofl@arg+3)
  6320  002432  C067  F06D         	line	17
  6321                           	goto	l3479
  6322  002436  EF27  F012         	line	18
  6323                           	
  6324                           l851:; BSR set to: 0
  6325  00243A                     
  6326                           	line	19
  6327                           	movff	(___xxtofl@val),(___xxtofl@arg)
  6328  00243A  C060  F06A         	movff	(___xxtofl@val+1),(___xxtofl@arg+1)
  6329  00243E  C061  F06B         	movff	(___xxtofl@val+2),(___xxtofl@arg+2)
  6330  002442  C062  F06C         	movff	(___xxtofl@val+3),(___xxtofl@arg+3)
  6331  002446  C063  F06D         	goto	l3479
  6332  00244A  EF27  F012         	line	20
  6333                           	
  6334                           l852:; BSR set to: 0
  6335  00244E                     
  6336                           	line	21
  6337                           	
  6338                           l3479:; BSR set to: 0
  6339  00244E                     
  6340                           	movf	((___xxtofl@val))&0ffh,w
  6341  00244E  5160               iorwf	((___xxtofl@val+1))&0ffh,w
  6342  002450  1161               iorwf	((___xxtofl@val+2))&0ffh,w
  6343  002452  1162               iorwf	((___xxtofl@val+3))&0ffh,w
  6344  002454  1163               	btfss	status,2
  6345  002456  A4D8               	goto	u4181
  6346  002458  EF30  F012         	goto	u4180
  6347  00245C  EF32  F012         
  6348                           u4181:
  6349  002460                     	goto	l3485
  6350  002460  EF3E  F012         u4180:
  6351  002464                     	line	22
  6352                           	
  6353                           l3481:; BSR set to: 0
  6354  002464                     
  6355                           	movlw	low(normalize32(0.0000000000000000))
  6356  002464  0E00               	movwf	((?___xxtofl))&0ffh
  6357  002466  6F60               	movlw	high(normalize32(0.0000000000000000))
  6358  002468  0E00               	movwf	((?___xxtofl+1))&0ffh
  6359  00246A  6F61               	movlw	low highword(normalize32(0.0000000000000000))
  6360  00246C  0E00               	movwf	((?___xxtofl+2))&0ffh
  6361  00246E  6F62               	movlw	high highword(normalize32(0.0000000000000000))
  6362  002470  0E00               	movwf	((?___xxtofl+3))&0ffh
  6363  002472  6F63               	goto	l854
  6364  002474  EFE4  F012         	
  6365                           l3483:; BSR set to: 0
  6366  002478                     
  6367                           	goto	l854
  6368  002478  EFE4  F012         	
  6369                           l853:; BSR set to: 0
  6370  00247C                     
  6371                           	line	23
  6372                           	
  6373                           l3485:; BSR set to: 0
  6374  00247C                     
  6375                           	movlw	low(096h)
  6376  00247C  0E96               	movwf	((___xxtofl@exp))&0ffh
  6377  00247E  6F69               	line	24
  6378                           	goto	l3489
  6379  002480  EF4A  F012         	
  6380                           l856:; BSR set to: 0
  6381  002484                     
  6382                           	line	25
  6383                           	
  6384                           l3487:; BSR set to: 0
  6385  002484                     
  6386                           	incf	((___xxtofl@exp))&0ffh
  6387  002484  2B69               	line	26
  6388                           	bcf	status,0
  6389  002486  90D8               	rrcf	((___xxtofl@arg+3))&0ffh
  6390  002488  336D               	rrcf	((___xxtofl@arg+2))&0ffh
  6391  00248A  336C               	rrcf	((___xxtofl@arg+1))&0ffh
  6392  00248C  336B               	rrcf	((___xxtofl@arg))&0ffh
  6393  00248E  336A               	goto	l3489
  6394  002490  EF4A  F012         	line	27
  6395                           	
  6396                           l855:; BSR set to: 0
  6397  002494                     
  6398                           	line	24
  6399                           	
  6400                           l3489:; BSR set to: 0
  6401  002494                     
  6402                           	movlw	0
  6403  002494  0E00               	andwf	((___xxtofl@arg))&0ffh,w
  6404  002496  156A               	movwf	(??___xxtofl+0+0)&0ffh
  6405  002498  6F64               	movlw	0
  6406  00249A  0E00               	andwf	((___xxtofl@arg+1))&0ffh,w
  6407  00249C  156B               	movwf	1+(??___xxtofl+0+0)&0ffh
  6408  00249E  6F65               	
  6409                           	movlw	0
  6410  0024A0  0E00               	andwf	((___xxtofl@arg+2))&0ffh,w
  6411  0024A2  156C               	movwf	2+(??___xxtofl+0+0)&0ffh
  6412  0024A4  6F66               	
  6413                           	movlw	0FEh
  6414  0024A6  0EFE               	andwf	((___xxtofl@arg+3))&0ffh,w
  6415  0024A8  156D               	movwf	3+(??___xxtofl+0+0)&0ffh
  6416  0024AA  6F67               	movf	(??___xxtofl+0+0)&0ffh,w
  6417  0024AC  5164               iorwf	(??___xxtofl+0+1)&0ffh,w
  6418  0024AE  1165               iorwf	(??___xxtofl+0+2)&0ffh,w
  6419  0024B0  1166               iorwf	(??___xxtofl+0+3)&0ffh,w
  6420  0024B2  1167               	btfss	status,2
  6421  0024B4  A4D8               	goto	u4191
  6422  0024B6  EF5F  F012         	goto	u4190
  6423  0024BA  EF61  F012         
  6424                           u4191:
  6425  0024BE                     	goto	l3487
  6426  0024BE  EF42  F012         u4190:
  6427  0024C2                     	goto	l858
  6428  0024C2  EF71  F012         	
  6429                           l857:; BSR set to: 0
  6430  0024C6                     
  6431                           	line	28
  6432                           	goto	l858
  6433  0024C6  EF71  F012         	
  6434                           l859:; BSR set to: 0
  6435  0024CA                     
  6436                           	line	29
  6437                           	
  6438                           l3491:; BSR set to: 0
  6439  0024CA                     
  6440                           	incf	((___xxtofl@exp))&0ffh
  6441  0024CA  2B69               	line	30
  6442                           	
  6443                           l3493:; BSR set to: 0
  6444  0024CC                     
  6445                           	movlw	low(01h)
  6446  0024CC  0E01               	addwf	((___xxtofl@arg))&0ffh
  6447  0024CE  276A               	movlw	0
  6448  0024D0  0E00               	addwfc	((___xxtofl@arg+1))&0ffh
  6449  0024D2  236B               	addwfc	((___xxtofl@arg+2))&0ffh
  6450  0024D4  236C               	addwfc	((___xxtofl@arg+3))&0ffh
  6451  0024D6  236D               	line	31
  6452                           	
  6453                           l3495:; BSR set to: 0
  6454  0024D8                     
  6455                           	bcf	status,0
  6456  0024D8  90D8               	rrcf	((___xxtofl@arg+3))&0ffh
  6457  0024DA  336D               	rrcf	((___xxtofl@arg+2))&0ffh
  6458  0024DC  336C               	rrcf	((___xxtofl@arg+1))&0ffh
  6459  0024DE  336B               	rrcf	((___xxtofl@arg))&0ffh
  6460  0024E0  336A               	line	32
  6461                           	
  6462                           l858:; BSR set to: 0
  6463  0024E2                     
  6464                           	line	28
  6465                           	movlw	0
  6466  0024E2  0E00               	andwf	((___xxtofl@arg))&0ffh,w
  6467  0024E4  156A               	movwf	(??___xxtofl+0+0)&0ffh
  6468  0024E6  6F64               	movlw	0
  6469  0024E8  0E00               	andwf	((___xxtofl@arg+1))&0ffh,w
  6470  0024EA  156B               	movwf	1+(??___xxtofl+0+0)&0ffh
  6471  0024EC  6F65               	
  6472                           	movlw	0
  6473  0024EE  0E00               	andwf	((___xxtofl@arg+2))&0ffh,w
  6474  0024F0  156C               	movwf	2+(??___xxtofl+0+0)&0ffh
  6475  0024F2  6F66               	
  6476                           	movlw	0FFh
  6477  0024F4  0EFF               	andwf	((___xxtofl@arg+3))&0ffh,w
  6478  0024F6  156D               	movwf	3+(??___xxtofl+0+0)&0ffh
  6479  0024F8  6F67               	movf	(??___xxtofl+0+0)&0ffh,w
  6480  0024FA  5164               iorwf	(??___xxtofl+0+1)&0ffh,w
  6481  0024FC  1165               iorwf	(??___xxtofl+0+2)&0ffh,w
  6482  0024FE  1166               iorwf	(??___xxtofl+0+3)&0ffh,w
  6483  002500  1167               	btfss	status,2
  6484  002502  A4D8               	goto	u4201
  6485  002504  EF86  F012         	goto	u4200
  6486  002508  EF88  F012         
  6487                           u4201:
  6488  00250C                     	goto	l3491
  6489  00250C  EF65  F012         u4200:
  6490  002510                     	goto	l3499
  6491  002510  EF94  F012         	
  6492                           l860:; BSR set to: 0
  6493  002514                     
  6494                           	line	33
  6495                           	goto	l3499
  6496  002514  EF94  F012         	
  6497                           l862:; BSR set to: 0
  6498  002518                     
  6499                           	line	34
  6500                           	
  6501                           l3497:; BSR set to: 0
  6502  002518                     
  6503                           	decf	((___xxtofl@exp))&0ffh
  6504  002518  0769               	line	35
  6505                           	bcf	status,0
  6506  00251A  90D8               	rlcf	((___xxtofl@arg))&0ffh
  6507  00251C  376A               	rlcf	((___xxtofl@arg+1))&0ffh
  6508  00251E  376B               	rlcf	((___xxtofl@arg+2))&0ffh
  6509  002520  376C               	rlcf	((___xxtofl@arg+3))&0ffh
  6510  002522  376D               	goto	l3499
  6511  002524  EF94  F012         	line	36
  6512                           	
  6513                           l861:; BSR set to: 0
  6514  002528                     
  6515                           	line	33
  6516                           	
  6517                           l3499:; BSR set to: 0
  6518  002528                     
  6519                           	
  6520                           	btfsc	((___xxtofl@arg+2))&0ffh,(23)&7
  6521  002528  BF6C               	goto	u4211
  6522  00252A  EF99  F012         	goto	u4210
  6523  00252E  EF9B  F012         u4211:
  6524  002532                     	goto	l865
  6525  002532  EFA5  F012         u4210:
  6526  002536                     	
  6527                           l3501:; BSR set to: 0
  6528  002536                     
  6529                           		movlw	02h-0
  6530  002536  0E02               	cpfslt	((___xxtofl@exp))&0ffh
  6531  002538  6169               	goto	u4221
  6532  00253A  EFA1  F012         	goto	u4220
  6533  00253E  EFA3  F012         
  6534                           u4221:
  6535  002542                     	goto	l3497
  6536  002542  EF8C  F012         u4220:
  6537  002546                     	goto	l865
  6538  002546  EFA5  F012         	
  6539                           l864:; BSR set to: 0
  6540  00254A                     
  6541                           	
  6542                           l865:; BSR set to: 0
  6543  00254A                     
  6544                           	line	37
  6545                           	
  6546                           	btfsc	((___xxtofl@exp))&0ffh,(0)&7
  6547  00254A  B169               	goto	u4231
  6548  00254C  EFAA  F012         	goto	u4230
  6549  002550  EFAC  F012         u4231:
  6550  002554                     	goto	l866
  6551  002554  EFB4  F012         u4230:
  6552  002558                     	line	38
  6553                           	
  6554                           l3503:; BSR set to: 0
  6555  002558                     
  6556                           	movlw	0FFh
  6557  002558  0EFF               	andwf	((___xxtofl@arg))&0ffh
  6558  00255A  176A               	movlw	0FFh
  6559  00255C  0EFF               	andwf	((___xxtofl@arg+1))&0ffh
  6560  00255E  176B               	movlw	07Fh
  6561  002560  0E7F               	andwf	((___xxtofl@arg+2))&0ffh
  6562  002562  176C               	movlw	0FFh
  6563  002564  0EFF               	andwf	((___xxtofl@arg+3))&0ffh
  6564  002566  176D               	
  6565                           l866:; BSR set to: 0
  6566  002568                     
  6567                           	line	39
  6568                           	bcf status,0
  6569  002568  90D8               	rrcf	((___xxtofl@exp))&0ffh
  6570  00256A  3369               
  6571                           	line	40
  6572                           	movff	(___xxtofl@exp),??___xxtofl+0+0
  6573  00256C  C069  F064         	clrf	(??___xxtofl+0+0+1)&0ffh
  6574  002570  6B65               	clrf	(??___xxtofl+0+0+2)&0ffh
  6575  002572  6B66               	clrf	(??___xxtofl+0+0+3)&0ffh
  6576  002574  6B67               	movff	??___xxtofl+0+0,??___xxtofl+0+3
  6577  002576  C064  F067         	clrf	(??___xxtofl+0+2)&0ffh
  6578  00257A  6B66               	clrf	(??___xxtofl+0+1)&0ffh
  6579  00257C  6B65               	clrf	(??___xxtofl+0+0)&0ffh
  6580  00257E  6B64               	movf	(??___xxtofl+0+0)&0ffh,w
  6581  002580  5164               	iorwf	((___xxtofl@arg))&0ffh
  6582  002582  136A               	movf	(??___xxtofl+0+1)&0ffh,w
  6583  002584  5165               	iorwf	((___xxtofl@arg+1))&0ffh
  6584  002586  136B               	movf	(??___xxtofl+0+2)&0ffh,w
  6585  002588  5166               	iorwf	((___xxtofl@arg+2))&0ffh
  6586  00258A  136C               	movf	(??___xxtofl+0+3)&0ffh,w
  6587  00258C  5167               	iorwf	((___xxtofl@arg+3))&0ffh
  6588  00258E  136D               
  6589                           	line	41
  6590                           	
  6591                           l3505:; BSR set to: 0
  6592  002590                     
  6593                           	movf	((___xxtofl@sign))&0ffh,w
  6594  002590  5168               	btfsc	status,2
  6595  002592  B4D8               	goto	u4241
  6596  002594  EFCE  F012         	goto	u4240
  6597  002598  EFD0  F012         u4241:
  6598  00259C                     	goto	l3511
  6599  00259C  EFDA  F012         u4240:
  6600  0025A0                     	
  6601                           l3507:; BSR set to: 0
  6602  0025A0                     
  6603                           	btfsc	((___xxtofl@val+3))&0ffh,7
  6604  0025A0  BF63               	goto	u4250
  6605  0025A2  EFD7  F012         	goto	u4251
  6606  0025A6  EFD5  F012         
  6607                           u4251:
  6608  0025AA                     	goto	l3511
  6609  0025AA  EFDA  F012         u4250:
  6610  0025AE                     	line	42
  6611                           	
  6612                           l3509:; BSR set to: 0
  6613  0025AE                     
  6614                           	bsf	(0+(31/8)+(___xxtofl@arg))&0ffh,(31)&7
  6615  0025AE  8F6D               	goto	l3511
  6616  0025B0  EFDA  F012         	
  6617                           l867:; BSR set to: 0
  6618  0025B4                     
  6619                           	line	43
  6620                           	
  6621                           l3511:; BSR set to: 0
  6622  0025B4                     
  6623                           	movff	(___xxtofl@arg),(?___xxtofl)
  6624  0025B4  C06A  F060         	movff	(___xxtofl@arg+1),(?___xxtofl+1)
  6625  0025B8  C06B  F061         	movff	(___xxtofl@arg+2),(?___xxtofl+2)
  6626  0025BC  C06C  F062         	movff	(___xxtofl@arg+3),(?___xxtofl+3)
  6627  0025C0  C06D  F063         	goto	l854
  6628  0025C4  EFE4  F012         	
  6629                           l3513:; BSR set to: 0
  6630  0025C8                     
  6631                           	line	44
  6632                           	
  6633                           l854:; BSR set to: 0
  6634  0025C8                     
  6635                           	return	;funcret
  6636  0025C8  0012               	opt stack 0
  6637                           GLOBAL	__end_of___xxtofl
  6638                           	__end_of___xxtofl:
  6639  0025CA                     	signat	___xxtofl,8316
  6640                           	global	___lmul
  6641                           
  6642 ;; *************** function ___lmul *****************
  6643 ;; Defined at:
  6644 ;;		line 15 in file "/Applications/microchip/xc8/v1.45/sources/common/Umul32.c"
  6645 ;; Parameters:    Size  Location     Type
  6646 ;;  multiplier      4    0[BANK0 ] unsigned long 
  6647 ;;  multiplicand    4    4[BANK0 ] unsigned long 
  6648 ;; Auto vars:     Size  Location     Type
  6649 ;;  product         4    8[BANK0 ] unsigned long 
  6650 ;; Return value:  Size  Location     Type
  6651 ;;                  4    0[BANK0 ] unsigned long 
  6652 ;; Registers used:
  6653 ;;		wreg, status,2, status,0
  6654 ;; Tracked objects:
  6655 ;;		On entry : 0/0
  6656 ;;		On exit  : 0/0
  6657 ;;		Unchanged: 0/0
  6658 ;; Data sizes:     COMRAM   BANK0   BANK1   BANK2   BANK3   BANK4   BANK5   BANK6   BANK7
  6659 ;;      Params:         0       8       0       0       0       0       0       0       0
  6660 ;;      Locals:         0       4       0       0       0       0       0       0       0
  6661 ;;      Temps:          0       0       0       0       0       0       0       0       0
  6662 ;;      Totals:         0      12       0       0       0       0       0       0       0
  6663 ;;Total ram usage:       12 bytes
  6664 ;; Hardware stack levels used:    1
  6665 ;; Hardware stack levels required when called:    2
  6666 ;; This function calls:
  6667 ;;		Nothing
  6668 ;; This function is called by:
  6669 ;;		_strtod
  6670 ;; This function uses a non-reentrant model
  6671 ;;
  6672                           psect	text11,class=CODE,space=0,reloc=2,group=1
  6673                           	file	"/Applications/microchip/xc8/v1.45/sources/common/Umul32.c"
  6674                           	line	15
  6675                           global __ptext11
  6676                           __ptext11:
  6677  002CA0                     psect	text11
  6678                           	file	"/Applications/microchip/xc8/v1.45/sources/common/Umul32.c"
  6679                           	line	15
  6680                           	global	__size_of___lmul
  6681                           	__size_of___lmul	equ	__end_of___lmul-___lmul
  6682  0000                     	
  6683                           ___lmul:; BSR set to: 0
  6684  002CA0                     
  6685                           ;incstack = 0
  6686                           	opt	stack 26
  6687                           	line	119
  6688                           	
  6689                           l3141:
  6690  002CA0                     	movlw	low(0)
  6691  002CA0  0E00               	movlb	0	; () banked
  6692  002CA2  0100               	movwf	((___lmul@product))&0ffh
  6693  002CA4  6F68               	movlw	high(0)
  6694  002CA6  0E00               	movwf	((___lmul@product+1))&0ffh
  6695  002CA8  6F69               	movlw	low highword(0)
  6696  002CAA  0E00               	movwf	((___lmul@product+2))&0ffh
  6697  002CAC  6F6A               	movlw	high highword(0)
  6698  002CAE  0E00               	movwf	((___lmul@product+3))&0ffh
  6699  002CB0  6F6B               	goto	l3143
  6700  002CB2  EF5B  F016         	line	120
  6701                           	
  6702                           l229:; BSR set to: 0
  6703  002CB6                     
  6704                           	line	121
  6705                           	
  6706                           l3143:; BSR set to: 0
  6707  002CB6                     
  6708                           	
  6709                           	btfss	((___lmul@multiplier))&0ffh,(0)&7
  6710  002CB6  A160               	goto	u3611
  6711  002CB8  EF60  F016         	goto	u3610
  6712  002CBC  EF62  F016         u3611:
  6713  002CC0                     	goto	l3147
  6714  002CC0  EF6C  F016         u3610:
  6715  002CC4                     	line	122
  6716                           	
  6717                           l3145:; BSR set to: 0
  6718  002CC4                     
  6719                           	movf	((___lmul@multiplicand))&0ffh,w
  6720  002CC4  5164               	addwf	((___lmul@product))&0ffh
  6721  002CC6  2768               	movf	((___lmul@multiplicand+1))&0ffh,w
  6722  002CC8  5165               	addwfc	((___lmul@product+1))&0ffh
  6723  002CCA  2369               	movf	((___lmul@multiplicand+2))&0ffh,w
  6724  002CCC  5166               	addwfc	((___lmul@product+2))&0ffh
  6725  002CCE  236A               	movf	((___lmul@multiplicand+3))&0ffh,w
  6726  002CD0  5167               	addwfc	((___lmul@product+3))&0ffh
  6727  002CD2  236B               	goto	l3147
  6728  002CD4  EF6C  F016         	
  6729                           l230:; BSR set to: 0
  6730  002CD8                     
  6731                           	line	123
  6732                           	
  6733                           l3147:; BSR set to: 0
  6734  002CD8                     
  6735                           	bcf	status,0
  6736  002CD8  90D8               	rlcf	((___lmul@multiplicand))&0ffh
  6737  002CDA  3764               	rlcf	((___lmul@multiplicand+1))&0ffh
  6738  002CDC  3765               	rlcf	((___lmul@multiplicand+2))&0ffh
  6739  002CDE  3766               	rlcf	((___lmul@multiplicand+3))&0ffh
  6740  002CE0  3767               	line	124
  6741                           	
  6742                           l3149:; BSR set to: 0
  6743  002CE2                     
  6744                           	bcf	status,0
  6745  002CE2  90D8               	rrcf	((___lmul@multiplier+3))&0ffh
  6746  002CE4  3363               	rrcf	((___lmul@multiplier+2))&0ffh
  6747  002CE6  3362               	rrcf	((___lmul@multiplier+1))&0ffh
  6748  002CE8  3361               	rrcf	((___lmul@multiplier))&0ffh
  6749  002CEA  3360               	line	125
  6750                           	movf	((___lmul@multiplier))&0ffh,w
  6751  002CEC  5160               iorwf	((___lmul@multiplier+1))&0ffh,w
  6752  002CEE  1161               iorwf	((___lmul@multiplier+2))&0ffh,w
  6753  002CF0  1162               iorwf	((___lmul@multiplier+3))&0ffh,w
  6754  002CF2  1163               	btfss	status,2
  6755  002CF4  A4D8               	goto	u3621
  6756  002CF6  EF7F  F016         	goto	u3620
  6757  002CFA  EF81  F016         
  6758                           u3621:
  6759  002CFE                     	goto	l3143
  6760  002CFE  EF5B  F016         u3620:
  6761  002D02                     	
  6762                           l231:; BSR set to: 0
  6763  002D02                     
  6764                           	line	128
  6765                           	movff	(___lmul@product),(?___lmul)
  6766  002D02  C068  F060         	movff	(___lmul@product+1),(?___lmul+1)
  6767  002D06  C069  F061         	movff	(___lmul@product+2),(?___lmul+2)
  6768  002D0A  C06A  F062         	movff	(___lmul@product+3),(?___lmul+3)
  6769  002D0E  C06B  F063         	line	129
  6770                           	
  6771                           l232:; BSR set to: 0
  6772  002D12                     
  6773                           	return	;funcret
  6774  002D12  0012               	opt stack 0
  6775                           GLOBAL	__end_of___lmul
  6776                           	__end_of___lmul:
  6777  002D14                     	signat	___lmul,8316
  6778                           	global	___flneg
  6779                           
  6780 ;; *************** function ___flneg *****************
  6781 ;; Defined at:
  6782 ;;		line 15 in file "/Applications/microchip/xc8/v1.45/sources/common/flneg.c"
  6783 ;; Parameters:    Size  Location     Type
  6784 ;;  f1              4    0[BANK0 ] unsigned long 
  6785 ;; Auto vars:     Size  Location     Type
  6786 ;;		None
  6787 ;; Return value:  Size  Location     Type
  6788 ;;                  4    0[BANK0 ] unsigned long 
  6789 ;; Registers used:
  6790 ;;		wreg, status,2, status,0
  6791 ;; Tracked objects:
  6792 ;;		On entry : 0/0
  6793 ;;		On exit  : 0/0
  6794 ;;		Unchanged: 0/0
  6795 ;; Data sizes:     COMRAM   BANK0   BANK1   BANK2   BANK3   BANK4   BANK5   BANK6   BANK7
  6796 ;;      Params:         0       4       0       0       0       0       0       0       0
  6797 ;;      Locals:         0       0       0       0       0       0       0       0       0
  6798 ;;      Temps:          0       0       0       0       0       0       0       0       0
  6799 ;;      Totals:         0       4       0       0       0       0       0       0       0
  6800 ;;Total ram usage:        4 bytes
  6801 ;; Hardware stack levels used:    1
  6802 ;; Hardware stack levels required when called:    2
  6803 ;; This function calls:
  6804 ;;		Nothing
  6805 ;; This function is called by:
  6806 ;;		_main
  6807 ;;		_strtod
  6808 ;; This function uses a non-reentrant model
  6809 ;;
  6810                           psect	text12,class=CODE,space=0,reloc=2,group=1
  6811                           	file	"/Applications/microchip/xc8/v1.45/sources/common/flneg.c"
  6812                           	line	15
  6813                           global __ptext12
  6814                           __ptext12:
  6815  002DBA                     psect	text12
  6816                           	file	"/Applications/microchip/xc8/v1.45/sources/common/flneg.c"
  6817                           	line	15
  6818                           	global	__size_of___flneg
  6819                           	__size_of___flneg	equ	__end_of___flneg-___flneg
  6820  0000                     	
  6821                           ___flneg:; BSR set to: 0
  6822  002DBA                     
  6823                           ;incstack = 0
  6824                           	opt	stack 26
  6825                           	line	17
  6826                           	
  6827                           l3465:
  6828  002DBA                     	movlb	0	; () banked
  6829  002DBA  0100               	movf	((___flneg@f1))&0ffh,w
  6830  002DBC  5160               iorwf	((___flneg@f1+1))&0ffh,w
  6831  002DBE  1161               iorwf	((___flneg@f1+2))&0ffh,w
  6832  002DC0  1162               iorwf	((___flneg@f1+3))&0ffh,w
  6833  002DC2  1163               	btfsc	status,2
  6834  002DC4  B4D8               	goto	u4151
  6835  002DC6  EFE7  F016         	goto	u4150
  6836  002DCA  EFE9  F016         
  6837                           u4151:
  6838  002DCE                     	goto	l3469
  6839  002DCE  EFF3  F016         u4150:
  6840  002DD2                     	line	18
  6841                           	
  6842                           l3467:; BSR set to: 0
  6843  002DD2                     
  6844                           	movlw	0
  6845  002DD2  0E00               	xorwf	((___flneg@f1))&0ffh
  6846  002DD4  1B60               	movlw	0
  6847  002DD6  0E00               	xorwf	((___flneg@f1+1))&0ffh
  6848  002DD8  1B61               	movlw	0
  6849  002DDA  0E00               	xorwf	((___flneg@f1+2))&0ffh
  6850  002DDC  1B62               	movlw	080h
  6851  002DDE  0E80               	xorwf	((___flneg@f1+3))&0ffh
  6852  002DE0  1B63               	goto	l3469
  6853  002DE2  EFF3  F016         	
  6854                           l500:; BSR set to: 0
  6855  002DE6                     
  6856                           	line	19
  6857                           	
  6858                           l3469:; BSR set to: 0
  6859  002DE6                     
  6860                           	movff	(___flneg@f1),(?___flneg)
  6861  002DE6  C060  F060         	movff	(___flneg@f1+1),(?___flneg+1)
  6862  002DEA  C061  F061         	movff	(___flneg@f1+2),(?___flneg+2)
  6863  002DEE  C062  F062         	movff	(___flneg@f1+3),(?___flneg+3)
  6864  002DF2  C063  F063         	goto	l501
  6865  002DF6  EFFD  F016         	
  6866                           l3471:; BSR set to: 0
  6867  002DFA                     
  6868                           	line	20
  6869                           	
  6870                           l501:; BSR set to: 0
  6871  002DFA                     
  6872                           	return	;funcret
  6873  002DFA  0012               	opt stack 0
  6874                           GLOBAL	__end_of___flneg
  6875                           	__end_of___flneg:
  6876  002DFC                     	signat	___flneg,4220
  6877                           	global	___flmul
  6878                           
  6879 ;; *************** function ___flmul *****************
  6880 ;; Defined at:
  6881 ;;		line 8 in file "/Applications/microchip/xc8/v1.45/sources/common/sprcmul.c"
  6882 ;; Parameters:    Size  Location     Type
  6883 ;;  b               4   24[BANK0 ] unsigned long 
  6884 ;;  a               4   28[BANK0 ] unsigned long 
  6885 ;; Auto vars:     Size  Location     Type
  6886 ;;  prod            4   43[BANK0 ] struct .
  6887 ;;  grs             4   38[BANK0 ] unsigned long 
  6888 ;;  temp            2   47[BANK0 ] struct .
  6889 ;;  bexp            1   42[BANK0 ] unsigned char 
  6890 ;;  aexp            1   37[BANK0 ] unsigned char 
  6891 ;;  sign            1   36[BANK0 ] unsigned char 
  6892 ;; Return value:  Size  Location     Type
  6893 ;;                  4   24[BANK0 ] unsigned char 
  6894 ;; Registers used:
  6895 ;;		wreg, status,2, status,0, prodl, prodh
  6896 ;; Tracked objects:
  6897 ;;		On entry : 0/0
  6898 ;;		On exit  : 0/0
  6899 ;;		Unchanged: 0/0
  6900 ;; Data sizes:     COMRAM   BANK0   BANK1   BANK2   BANK3   BANK4   BANK5   BANK6   BANK7
  6901 ;;      Params:         0       8       0       0       0       0       0       0       0
  6902 ;;      Locals:         0      13       0       0       0       0       0       0       0
  6903 ;;      Temps:          0       4       0       0       0       0       0       0       0
  6904 ;;      Totals:         0      25       0       0       0       0       0       0       0
  6905 ;;Total ram usage:       25 bytes
  6906 ;; Hardware stack levels used:    1
  6907 ;; Hardware stack levels required when called:    2
  6908 ;; This function calls:
  6909 ;;		Nothing
  6910 ;; This function is called by:
  6911 ;;		_main
  6912 ;;		_strtod
  6913 ;; This function uses a non-reentrant model
  6914 ;;
  6915                           psect	text13,class=CODE,space=0,reloc=2,group=1
  6916                           	file	"/Applications/microchip/xc8/v1.45/sources/common/sprcmul.c"
  6917                           	line	8
  6918                           global __ptext13
  6919                           __ptext13:
  6920  001952                     psect	text13
  6921                           	file	"/Applications/microchip/xc8/v1.45/sources/common/sprcmul.c"
  6922                           	line	8
  6923                           	global	__size_of___flmul
  6924                           	__size_of___flmul	equ	__end_of___flmul-___flmul
  6925  0000                     	
  6926                           ___flmul:; BSR set to: 0
  6927  001952                     
  6928                           ;incstack = 0
  6929                           	opt	stack 26
  6930                           	line	17
  6931                           	
  6932                           l3287:
  6933  001952                     	movlb	0	; () banked
  6934  001952  0100               	movf	(0+(___flmul@b+03h))&0ffh,w
  6935  001954  517B               	andlw	low(080h)
  6936  001956  0B80               	movwf	((___flmul@sign))&0ffh
  6937  001958  6F84               	line	18
  6938                           	movf	(0+(___flmul@b+03h))&0ffh,w
  6939  00195A  517B               	addwf	(0+(___flmul@b+03h))&0ffh,w
  6940  00195C  257B               	movwf	((___flmul@bexp))&0ffh
  6941  00195E  6F8A               	line	19
  6942                           	
  6943                           l3289:; BSR set to: 0
  6944  001960                     
  6945                           	
  6946                           	btfss	(0+(___flmul@b+02h))&0ffh,(7)&7
  6947  001960  AF7A               	goto	u3861
  6948  001962  EFB5  F00C         	goto	u3860
  6949  001966  EFB7  F00C         u3861:
  6950  00196A                     	goto	l3293
  6951  00196A  EFBA  F00C         u3860:
  6952  00196E                     	line	20
  6953                           	
  6954                           l3291:; BSR set to: 0
  6955  00196E                     
  6956                           	bsf	(0+(0/8)+(___flmul@bexp))&0ffh,(0)&7
  6957  00196E  818A               	goto	l3293
  6958  001970  EFBA  F00C         	line	21
  6959                           	
  6960                           l822:; BSR set to: 0
  6961  001974                     
  6962                           	line	24
  6963                           	
  6964                           l3293:; BSR set to: 0
  6965  001974                     
  6966                           	movf	((___flmul@bexp))&0ffh,w
  6967  001974  518A               	btfsc	status,2
  6968  001976  B4D8               	goto	u3871
  6969  001978  EFC0  F00C         	goto	u3870
  6970  00197C  EFC2  F00C         u3871:
  6971  001980                     	goto	l3301
  6972  001980  EFD7  F00C         u3870:
  6973  001984                     	line	26
  6974                           	
  6975                           l3295:; BSR set to: 0
  6976  001984                     
  6977                           		incf	((___flmul@bexp))&0ffh,w
  6978  001984  298A               	btfss	status,2
  6979  001986  A4D8               	goto	u3881
  6980  001988  EFC8  F00C         	goto	u3880
  6981  00198C  EFCA  F00C         
  6982                           u3881:
  6983  001990                     	goto	l3299
  6984  001990  EFD4  F00C         u3880:
  6985  001994                     	line	28
  6986                           	
  6987                           l3297:; BSR set to: 0
  6988  001994                     
  6989                           	movlw	low(normalize32(0.0000000000000000))
  6990  001994  0E00               	movwf	((___flmul@b))&0ffh
  6991  001996  6F78               	movlw	high(normalize32(0.0000000000000000))
  6992  001998  0E00               	movwf	((___flmul@b+1))&0ffh
  6993  00199A  6F79               	movlw	low highword(normalize32(0.0000000000000000))
  6994  00199C  0E00               	movwf	((___flmul@b+2))&0ffh
  6995  00199E  6F7A               	movlw	high highword(normalize32(0.0000000000000000))
  6996  0019A0  0E00               	movwf	((___flmul@b+3))&0ffh
  6997  0019A2  6F7B               	goto	l3299
  6998  0019A4  EFD4  F00C         	line	29
  6999                           	
  7000                           l824:; BSR set to: 0
  7001  0019A8                     
  7002                           	line	31
  7003                           	
  7004                           l3299:; BSR set to: 0
  7005  0019A8                     
  7006                           	bsf	(0+(23/8)+(___flmul@b))&0ffh,(23)&7
  7007  0019A8  8F7A               	line	33
  7008                           	goto	l3303
  7009  0019AA  EFE1  F00C         	line	34
  7010                           	
  7011                           l823:; BSR set to: 0
  7012  0019AE                     
  7013                           	line	36
  7014                           	
  7015                           l3301:; BSR set to: 0
  7016  0019AE                     
  7017                           	movlw	low(normalize32(0.0000000000000000))
  7018  0019AE  0E00               	movwf	((___flmul@b))&0ffh
  7019  0019B0  6F78               	movlw	high(normalize32(0.0000000000000000))
  7020  0019B2  0E00               	movwf	((___flmul@b+1))&0ffh
  7021  0019B4  6F79               	movlw	low highword(normalize32(0.0000000000000000))
  7022  0019B6  0E00               	movwf	((___flmul@b+2))&0ffh
  7023  0019B8  6F7A               	movlw	high highword(normalize32(0.0000000000000000))
  7024  0019BA  0E00               	movwf	((___flmul@b+3))&0ffh
  7025  0019BC  6F7B               	goto	l3303
  7026  0019BE  EFE1  F00C         	line	37
  7027                           	
  7028                           l825:; BSR set to: 0
  7029  0019C2                     
  7030                           	line	39
  7031                           	
  7032                           l3303:; BSR set to: 0
  7033  0019C2                     
  7034                           	movf	(0+(___flmul@a+03h))&0ffh,w
  7035  0019C2  517F               	andlw	low(080h)
  7036  0019C4  0B80               	xorwf	((___flmul@sign))&0ffh
  7037  0019C6  1B84               	line	40
  7038                           	
  7039                           l3305:; BSR set to: 0
  7040  0019C8                     
  7041                           	movf	(0+(___flmul@a+03h))&0ffh,w
  7042  0019C8  517F               	addwf	(0+(___flmul@a+03h))&0ffh,w
  7043  0019CA  257F               	movwf	((___flmul@aexp))&0ffh
  7044  0019CC  6F85               	line	41
  7045                           	
  7046                           l3307:; BSR set to: 0
  7047  0019CE                     
  7048                           	
  7049                           	btfss	(0+(___flmul@a+02h))&0ffh,(7)&7
  7050  0019CE  AF7E               	goto	u3891
  7051  0019D0  EFEC  F00C         	goto	u3890
  7052  0019D4  EFEE  F00C         u3891:
  7053  0019D8                     	goto	l3311
  7054  0019D8  EFF1  F00C         u3890:
  7055  0019DC                     	line	42
  7056                           	
  7057                           l3309:; BSR set to: 0
  7058  0019DC                     
  7059                           	bsf	(0+(0/8)+(___flmul@aexp))&0ffh,(0)&7
  7060  0019DC  8185               	goto	l3311
  7061  0019DE  EFF1  F00C         	line	43
  7062                           	
  7063                           l826:; BSR set to: 0
  7064  0019E2                     
  7065                           	line	45
  7066                           	
  7067                           l3311:; BSR set to: 0
  7068  0019E2                     
  7069                           	movf	((___flmul@aexp))&0ffh,w
  7070  0019E2  5185               	btfsc	status,2
  7071  0019E4  B4D8               	goto	u3901
  7072  0019E6  EFF7  F00C         	goto	u3900
  7073  0019EA  EFF9  F00C         u3901:
  7074  0019EE                     	goto	l3319
  7075  0019EE  EF0E  F00D         u3900:
  7076  0019F2                     	line	48
  7077                           	
  7078                           l3313:; BSR set to: 0
  7079  0019F2                     
  7080                           		incf	((___flmul@aexp))&0ffh,w
  7081  0019F2  2985               	btfss	status,2
  7082  0019F4  A4D8               	goto	u3911
  7083  0019F6  EFFF  F00C         	goto	u3910
  7084  0019FA  EF01  F00D         
  7085                           u3911:
  7086  0019FE                     	goto	l3317
  7087  0019FE  EF0B  F00D         u3910:
  7088  001A02                     	line	50
  7089                           	
  7090                           l3315:; BSR set to: 0
  7091  001A02                     
  7092                           	movlw	low(normalize32(0.0000000000000000))
  7093  001A02  0E00               	movwf	((___flmul@a))&0ffh
  7094  001A04  6F7C               	movlw	high(normalize32(0.0000000000000000))
  7095  001A06  0E00               	movwf	((___flmul@a+1))&0ffh
  7096  001A08  6F7D               	movlw	low highword(normalize32(0.0000000000000000))
  7097  001A0A  0E00               	movwf	((___flmul@a+2))&0ffh
  7098  001A0C  6F7E               	movlw	high highword(normalize32(0.0000000000000000))
  7099  001A0E  0E00               	movwf	((___flmul@a+3))&0ffh
  7100  001A10  6F7F               	goto	l3317
  7101  001A12  EF0B  F00D         	line	51
  7102                           	
  7103                           l828:; BSR set to: 0
  7104  001A16                     
  7105                           	line	53
  7106                           	
  7107                           l3317:; BSR set to: 0
  7108  001A16                     
  7109                           	bsf	(0+(23/8)+(___flmul@a))&0ffh,(23)&7
  7110  001A16  8F7E               	line	54
  7111                           	goto	l829
  7112  001A18  EF16  F00D         	line	55
  7113                           	
  7114                           l827:; BSR set to: 0
  7115  001A1C                     
  7116                           	line	57
  7117                           	
  7118                           l3319:; BSR set to: 0
  7119  001A1C                     
  7120                           	movlw	low(normalize32(0.0000000000000000))
  7121  001A1C  0E00               	movwf	((___flmul@a))&0ffh
  7122  001A1E  6F7C               	movlw	high(normalize32(0.0000000000000000))
  7123  001A20  0E00               	movwf	((___flmul@a+1))&0ffh
  7124  001A22  6F7D               	movlw	low highword(normalize32(0.0000000000000000))
  7125  001A24  0E00               	movwf	((___flmul@a+2))&0ffh
  7126  001A26  6F7E               	movlw	high highword(normalize32(0.0000000000000000))
  7127  001A28  0E00               	movwf	((___flmul@a+3))&0ffh
  7128  001A2A  6F7F               	line	58
  7129                           	
  7130                           l829:; BSR set to: 0
  7131  001A2C                     
  7132                           	line	65
  7133                           	movf	((___flmul@aexp))&0ffh,w
  7134  001A2C  5185               	btfsc	status,2
  7135  001A2E  B4D8               	goto	u3921
  7136  001A30  EF1C  F00D         	goto	u3920
  7137  001A34  EF1E  F00D         u3921:
  7138  001A38                     	goto	l3323
  7139  001A38  EF28  F00D         u3920:
  7140  001A3C                     	
  7141                           l3321:; BSR set to: 0
  7142  001A3C                     
  7143                           	movf	((___flmul@bexp))&0ffh,w
  7144  001A3C  518A               	btfss	status,2
  7145  001A3E  A4D8               	goto	u3931
  7146  001A40  EF24  F00D         	goto	u3930
  7147  001A44  EF26  F00D         u3931:
  7148  001A48                     	goto	l3327
  7149  001A48  EF34  F00D         u3930:
  7150  001A4C                     	goto	l3323
  7151  001A4C  EF28  F00D         	
  7152                           l832:; BSR set to: 0
  7153  001A50                     
  7154                           	line	66
  7155                           	
  7156                           l3323:; BSR set to: 0
  7157  001A50                     
  7158                           	movlw	low(normalize32(0.0000000000000000))
  7159  001A50  0E00               	movwf	((?___flmul))&0ffh
  7160  001A52  6F78               	movlw	high(normalize32(0.0000000000000000))
  7161  001A54  0E00               	movwf	((?___flmul+1))&0ffh
  7162  001A56  6F79               	movlw	low highword(normalize32(0.0000000000000000))
  7163  001A58  0E00               	movwf	((?___flmul+2))&0ffh
  7164  001A5A  6F7A               	movlw	high highword(normalize32(0.0000000000000000))
  7165  001A5C  0E00               	movwf	((?___flmul+3))&0ffh
  7166  001A5E  6F7B               	goto	l833
  7167  001A60  EFE0  F00E         	
  7168                           l3325:; BSR set to: 0
  7169  001A64                     
  7170                           	goto	l833
  7171  001A64  EFE0  F00E         	line	67
  7172                           	
  7173                           l830:; BSR set to: 0
  7174  001A68                     
  7175                           	line	95
  7176                           	
  7177                           l3327:; BSR set to: 0
  7178  001A68                     
  7179                           	movf	(0+(___flmul@a+02h))&0ffh,w
  7180  001A68  517E               	mulwf	((___flmul@b))&0ffh
  7181  001A6A  0378               	movff	prodl,(___flmul@temp)
  7182  001A6C  CFF3 F08F          	movff	prodh,(___flmul@temp+1)
  7183  001A70  CFF4 F090          	line	96
  7184                           	
  7185                           l3329:; BSR set to: 0
  7186  001A74                     
  7187                           	movf	((___flmul@temp))&0ffh,w
  7188  001A74  518F               	movwf	((___flmul@grs))&0ffh
  7189  001A76  6F86               	clrf	((___flmul@grs+1))&0ffh
  7190  001A78  6B87               	clrf	((___flmul@grs+2))&0ffh
  7191  001A7A  6B88               	clrf	((___flmul@grs+3))&0ffh
  7192  001A7C  6B89               
  7193                           	line	97
  7194                           	
  7195                           l3331:; BSR set to: 0
  7196  001A7E                     
  7197                           	movf	(0+(___flmul@temp+01h))&0ffh,w
  7198  001A7E  5190               	movwf	((___flmul@prod))&0ffh
  7199  001A80  6F8B               	clrf	((___flmul@prod+1))&0ffh
  7200  001A82  6B8C               	clrf	((___flmul@prod+2))&0ffh
  7201  001A84  6B8D               	clrf	((___flmul@prod+3))&0ffh
  7202  001A86  6B8E               
  7203                           	line	98
  7204                           	movf	(0+(___flmul@a+01h))&0ffh,w
  7205  001A88  517D               	mulwf	(0+(___flmul@b+01h))&0ffh
  7206  001A8A  0379               	movff	prodl,(___flmul@temp)
  7207  001A8C  CFF3 F08F          	movff	prodh,(___flmul@temp+1)
  7208  001A90  CFF4 F090          	line	99
  7209                           	
  7210                           l3333:; BSR set to: 0
  7211  001A94                     
  7212                           	movf	((___flmul@temp))&0ffh,w
  7213  001A94  518F               	addwf	((___flmul@grs))&0ffh
  7214  001A96  2786               	movlw	0
  7215  001A98  0E00               	addwfc	((___flmul@grs+1))&0ffh
  7216  001A9A  2387               	addwfc	((___flmul@grs+2))&0ffh
  7217  001A9C  2388               	addwfc	((___flmul@grs+3))&0ffh
  7218  001A9E  2389               	line	100
  7219                           	
  7220                           l3335:; BSR set to: 0
  7221  001AA0                     
  7222                           	movf	(0+(___flmul@temp+01h))&0ffh,w
  7223  001AA0  5190               	addwf	((___flmul@prod))&0ffh
  7224  001AA2  278B               	movlw	0
  7225  001AA4  0E00               	addwfc	((___flmul@prod+1))&0ffh
  7226  001AA6  238C               	addwfc	((___flmul@prod+2))&0ffh
  7227  001AA8  238D               	addwfc	((___flmul@prod+3))&0ffh
  7228  001AAA  238E               	line	101
  7229                           	movf	((___flmul@a))&0ffh,w
  7230  001AAC  517C               	mulwf	(0+(___flmul@b+02h))&0ffh
  7231  001AAE  037A               	movff	prodl,(___flmul@temp)
  7232  001AB0  CFF3 F08F          	movff	prodh,(___flmul@temp+1)
  7233  001AB4  CFF4 F090          	line	102
  7234                           	
  7235                           l3337:; BSR set to: 0
  7236  001AB8                     
  7237                           	movf	((___flmul@temp))&0ffh,w
  7238  001AB8  518F               	addwf	((___flmul@grs))&0ffh
  7239  001ABA  2786               	movlw	0
  7240  001ABC  0E00               	addwfc	((___flmul@grs+1))&0ffh
  7241  001ABE  2387               	addwfc	((___flmul@grs+2))&0ffh
  7242  001AC0  2388               	addwfc	((___flmul@grs+3))&0ffh
  7243  001AC2  2389               	line	103
  7244                           	
  7245                           l3339:; BSR set to: 0
  7246  001AC4                     
  7247                           	movf	(0+(___flmul@temp+01h))&0ffh,w
  7248  001AC4  5190               	addwf	((___flmul@prod))&0ffh
  7249  001AC6  278B               	movlw	0
  7250  001AC8  0E00               	addwfc	((___flmul@prod+1))&0ffh
  7251  001ACA  238C               	addwfc	((___flmul@prod+2))&0ffh
  7252  001ACC  238D               	addwfc	((___flmul@prod+3))&0ffh
  7253  001ACE  238E               	line	104
  7254                           	
  7255                           l3341:; BSR set to: 0
  7256  001AD0                     
  7257                           	movff	(___flmul@grs+2),(___flmul@grs+3)
  7258  001AD0  C088  F089         	movff	(___flmul@grs+1),(___flmul@grs+2)
  7259  001AD4  C087  F088         	movff	(___flmul@grs),(___flmul@grs+1)
  7260  001AD8  C086  F087         	clrf	((___flmul@grs))&0ffh
  7261  001ADC  6B86               	line	105
  7262                           	
  7263                           l3343:; BSR set to: 0
  7264  001ADE                     
  7265                           	movf	((___flmul@a))&0ffh,w
  7266  001ADE  517C               	mulwf	(0+(___flmul@b+01h))&0ffh
  7267  001AE0  0379               	movff	prodl,(___flmul@temp)
  7268  001AE2  CFF3 F08F          	movff	prodh,(___flmul@temp+1)
  7269  001AE6  CFF4 F090          	line	106
  7270                           	
  7271                           l3345:; BSR set to: 0
  7272  001AEA                     
  7273                           	movf	((___flmul@temp))&0ffh,w
  7274  001AEA  518F               	addwf	((___flmul@grs))&0ffh
  7275  001AEC  2786               	movf	((___flmul@temp+1))&0ffh,w
  7276  001AEE  5190               	addwfc	((___flmul@grs+1))&0ffh
  7277  001AF0  2387               	movlw	0
  7278  001AF2  0E00               	addwfc	((___flmul@grs+2))&0ffh
  7279  001AF4  2388               	movlw	0
  7280  001AF6  0E00               	addwfc	((___flmul@grs+3))&0ffh
  7281  001AF8  2389               
  7282                           	line	107
  7283                           	
  7284                           l3347:; BSR set to: 0
  7285  001AFA                     
  7286                           	movf	(0+(___flmul@a+01h))&0ffh,w
  7287  001AFA  517D               	mulwf	((___flmul@b))&0ffh
  7288  001AFC  0378               	movff	prodl,(___flmul@temp)
  7289  001AFE  CFF3 F08F          	movff	prodh,(___flmul@temp+1)
  7290  001B02  CFF4 F090          	line	108
  7291                           	
  7292                           l3349:; BSR set to: 0
  7293  001B06                     
  7294                           	movf	((___flmul@temp))&0ffh,w
  7295  001B06  518F               	addwf	((___flmul@grs))&0ffh
  7296  001B08  2786               	movf	((___flmul@temp+1))&0ffh,w
  7297  001B0A  5190               	addwfc	((___flmul@grs+1))&0ffh
  7298  001B0C  2387               	movlw	0
  7299  001B0E  0E00               	addwfc	((___flmul@grs+2))&0ffh
  7300  001B10  2388               	movlw	0
  7301  001B12  0E00               	addwfc	((___flmul@grs+3))&0ffh
  7302  001B14  2389               
  7303                           	line	109
  7304                           	
  7305                           l3351:; BSR set to: 0
  7306  001B16                     
  7307                           	movff	(___flmul@grs+2),(___flmul@grs+3)
  7308  001B16  C088  F089         	movff	(___flmul@grs+1),(___flmul@grs+2)
  7309  001B1A  C087  F088         	movff	(___flmul@grs),(___flmul@grs+1)
  7310  001B1E  C086  F087         	clrf	((___flmul@grs))&0ffh
  7311  001B22  6B86               	line	110
  7312                           	movf	((___flmul@a))&0ffh,w
  7313  001B24  517C               	mulwf	((___flmul@b))&0ffh
  7314  001B26  0378               	movff	prodl,(___flmul@temp)
  7315  001B28  CFF3 F08F          	movff	prodh,(___flmul@temp+1)
  7316  001B2C  CFF4 F090          	line	111
  7317                           	
  7318                           l3353:; BSR set to: 0
  7319  001B30                     
  7320                           	movf	((___flmul@temp))&0ffh,w
  7321  001B30  518F               	addwf	((___flmul@grs))&0ffh
  7322  001B32  2786               	movf	((___flmul@temp+1))&0ffh,w
  7323  001B34  5190               	addwfc	((___flmul@grs+1))&0ffh
  7324  001B36  2387               	movlw	0
  7325  001B38  0E00               	addwfc	((___flmul@grs+2))&0ffh
  7326  001B3A  2388               	movlw	0
  7327  001B3C  0E00               	addwfc	((___flmul@grs+3))&0ffh
  7328  001B3E  2389               
  7329                           	line	112
  7330                           	
  7331                           l3355:; BSR set to: 0
  7332  001B40                     
  7333                           	movf	(0+(___flmul@a+02h))&0ffh,w
  7334  001B40  517E               	mulwf	(0+(___flmul@b+01h))&0ffh
  7335  001B42  0379               	movff	prodl,(___flmul@temp)
  7336  001B44  CFF3 F08F          	movff	prodh,(___flmul@temp+1)
  7337  001B48  CFF4 F090          	line	113
  7338                           	movf	((___flmul@temp))&0ffh,w
  7339  001B4C  518F               	addwf	((___flmul@prod))&0ffh
  7340  001B4E  278B               	movf	((___flmul@temp+1))&0ffh,w
  7341  001B50  5190               	addwfc	((___flmul@prod+1))&0ffh
  7342  001B52  238C               	movlw	0
  7343  001B54  0E00               	addwfc	((___flmul@prod+2))&0ffh
  7344  001B56  238D               	movlw	0
  7345  001B58  0E00               	addwfc	((___flmul@prod+3))&0ffh
  7346  001B5A  238E               
  7347                           	line	114
  7348                           	
  7349                           l3357:; BSR set to: 0
  7350  001B5C                     
  7351                           	movf	(0+(___flmul@a+01h))&0ffh,w
  7352  001B5C  517D               	mulwf	(0+(___flmul@b+02h))&0ffh
  7353  001B5E  037A               	movff	prodl,(___flmul@temp)
  7354  001B60  CFF3 F08F          	movff	prodh,(___flmul@temp+1)
  7355  001B64  CFF4 F090          	line	115
  7356                           	
  7357                           l3359:; BSR set to: 0
  7358  001B68                     
  7359                           	movf	((___flmul@temp))&0ffh,w
  7360  001B68  518F               	addwf	((___flmul@prod))&0ffh
  7361  001B6A  278B               	movf	((___flmul@temp+1))&0ffh,w
  7362  001B6C  5190               	addwfc	((___flmul@prod+1))&0ffh
  7363  001B6E  238C               	movlw	0
  7364  001B70  0E00               	addwfc	((___flmul@prod+2))&0ffh
  7365  001B72  238D               	movlw	0
  7366  001B74  0E00               	addwfc	((___flmul@prod+3))&0ffh
  7367  001B76  238E               
  7368                           	line	116
  7369                           	movf	(0+(___flmul@a+02h))&0ffh,w
  7370  001B78  517E               	mulwf	(0+(___flmul@b+02h))&0ffh
  7371  001B7A  037A               	movff	prodl,(___flmul@temp)
  7372  001B7C  CFF3 F08F          	movff	prodh,(___flmul@temp+1)
  7373  001B80  CFF4 F090          	line	117
  7374                           	
  7375                           l3361:; BSR set to: 0
  7376  001B84                     
  7377                           	movf	((___flmul@temp))&0ffh,w
  7378  001B84  518F               	movwf	(??___flmul+0+0)&0ffh
  7379  001B86  6F80               	movf	((___flmul@temp+1))&0ffh,w
  7380  001B88  5190               	movwf	1+(??___flmul+0+0)&0ffh
  7381  001B8A  6F81               	
  7382                           	clrf	2+(??___flmul+0+0)&0ffh
  7383  001B8C  6B82               	
  7384                           	clrf	3+(??___flmul+0+0)&0ffh
  7385  001B8E  6B83               	movff	??___flmul+0+2,??___flmul+0+3
  7386  001B90  C082  F083         	movff	??___flmul+0+1,??___flmul+0+2
  7387  001B94  C081  F082         	movff	??___flmul+0+0,??___flmul+0+1
  7388  001B98  C080  F081         	clrf	(??___flmul+0+0)&0ffh
  7389  001B9C  6B80               	movf	(??___flmul+0+0)&0ffh,w
  7390  001B9E  5180               	addwf	((___flmul@prod))&0ffh
  7391  001BA0  278B               	movf	(??___flmul+0+1)&0ffh,w
  7392  001BA2  5181               	addwfc	((___flmul@prod+1))&0ffh
  7393  001BA4  238C               	movf	(??___flmul+0+2)&0ffh,w
  7394  001BA6  5182               	addwfc	((___flmul@prod+2))&0ffh
  7395  001BA8  238D               	movf	(??___flmul+0+3)&0ffh,w
  7396  001BAA  5183               	addwfc	((___flmul@prod+3))&0ffh
  7397  001BAC  238E               
  7398                           	line	145
  7399                           	
  7400                           l3363:; BSR set to: 0
  7401  001BAE                     
  7402                           	movff	(___flmul@grs),??___flmul+0+0
  7403  001BAE  C086  F080         	movff	(___flmul@grs+1),??___flmul+0+0+1
  7404  001BB2  C087  F081         	movff	(___flmul@grs+2),??___flmul+0+0+2
  7405  001BB6  C088  F082         	movff	(___flmul@grs+3),??___flmul+0+0+3
  7406  001BBA  C089  F083         	movlw	018h+1
  7407  001BBE  0E19               	goto	u3940
  7408  001BC0  EFE7  F00D         u3945:
  7409  001BC4                     	bcf	status,0
  7410  001BC4  90D8               	rrcf	(??___flmul+0+3)&0ffh
  7411  001BC6  3383               	rrcf	(??___flmul+0+2)&0ffh
  7412  001BC8  3382               	rrcf	(??___flmul+0+1)&0ffh
  7413  001BCA  3381               	rrcf	(??___flmul+0+0)&0ffh
  7414  001BCC  3380               u3940:
  7415  001BCE                     	decfsz	wreg
  7416  001BCE  2EE8               	goto	u3945
  7417  001BD0  EFE2  F00D         	movf	(??___flmul+0+0)&0ffh,w
  7418  001BD4  5180               	addwf	((___flmul@prod))&0ffh
  7419  001BD6  278B               	movf	(??___flmul+0+1)&0ffh,w
  7420  001BD8  5181               	addwfc	((___flmul@prod+1))&0ffh
  7421  001BDA  238C               	movf	(??___flmul+0+2)&0ffh,w
  7422  001BDC  5182               	addwfc	((___flmul@prod+2))&0ffh
  7423  001BDE  238D               	movf	(??___flmul+0+3)&0ffh,w
  7424  001BE0  5183               	addwfc	((___flmul@prod+3))&0ffh
  7425  001BE2  238E               
  7426                           	line	146
  7427                           	
  7428                           l3365:; BSR set to: 0
  7429  001BE4                     
  7430                           	movff	(___flmul@grs+2),(___flmul@grs+3)
  7431  001BE4  C088  F089         	movff	(___flmul@grs+1),(___flmul@grs+2)
  7432  001BE8  C087  F088         	movff	(___flmul@grs),(___flmul@grs+1)
  7433  001BEC  C086  F087         	clrf	((___flmul@grs))&0ffh
  7434  001BF0  6B86               	line	149
  7435                           	
  7436                           l3367:; BSR set to: 0
  7437  001BF2                     
  7438                           	movf	((___flmul@aexp))&0ffh,w
  7439  001BF2  5185               	movff	(___flmul@bexp),??___flmul+0+0
  7440  001BF4  C08A  F080         	clrf	(??___flmul+0+0+1)&0ffh
  7441  001BF8  6B81               	addwf	(??___flmul+0+0)&0ffh
  7442  001BFA  2780               	movlw	0
  7443  001BFC  0E00               	addwfc	(??___flmul+0+1)&0ffh
  7444  001BFE  2381               	movlw	low(-126)
  7445  001C00  0E82               	addwf	(??___flmul+0+0)&0ffh,w
  7446  001C02  2580               	movwf	((___flmul@temp))&0ffh
  7447  001C04  6F8F               	movlw	high(-126)
  7448  001C06  0EFF               	addwfc	(??___flmul+0+1)&0ffh,w
  7449  001C08  2181               	movwf	1+((___flmul@temp))&0ffh
  7450  001C0A  6F90               	line	152
  7451                           	goto	l3375
  7452  001C0C  EF1F  F00E         	
  7453                           l835:; BSR set to: 0
  7454  001C10                     
  7455                           	line	153
  7456                           	
  7457                           l3369:; BSR set to: 0
  7458  001C10                     
  7459                           	bcf	status,0
  7460  001C10  90D8               	rlcf	((___flmul@prod))&0ffh
  7461  001C12  378B               	rlcf	((___flmul@prod+1))&0ffh
  7462  001C14  378C               	rlcf	((___flmul@prod+2))&0ffh
  7463  001C16  378D               	rlcf	((___flmul@prod+3))&0ffh
  7464  001C18  378E               	line	154
  7465                           	
  7466                           l3371:; BSR set to: 0
  7467  001C1A                     
  7468                           	
  7469                           	btfss	((___flmul@grs+3))&0ffh,(31)&7
  7470  001C1A  AF89               	goto	u3951
  7471  001C1C  EF12  F00E         	goto	u3950
  7472  001C20  EF14  F00E         u3951:
  7473  001C24                     	goto	l836
  7474  001C24  EF15  F00E         u3950:
  7475  001C28                     	line	155
  7476                           	
  7477                           l3373:; BSR set to: 0
  7478  001C28                     
  7479                           	bsf	(0+(0/8)+(___flmul@prod))&0ffh,(0)&7
  7480  001C28  818B               	line	156
  7481                           	
  7482                           l836:; BSR set to: 0
  7483  001C2A                     
  7484                           	line	157
  7485                           	bcf	status,0
  7486  001C2A  90D8               	rlcf	((___flmul@grs))&0ffh
  7487  001C2C  3786               	rlcf	((___flmul@grs+1))&0ffh
  7488  001C2E  3787               	rlcf	((___flmul@grs+2))&0ffh
  7489  001C30  3788               	rlcf	((___flmul@grs+3))&0ffh
  7490  001C32  3789               	line	158
  7491                           	decf	((___flmul@temp))&0ffh
  7492  001C34  078F               	btfss	status,0
  7493  001C36  A0D8               	decf	((___flmul@temp+1))&0ffh
  7494  001C38  0790               	goto	l3375
  7495  001C3A  EF1F  F00E         	line	159
  7496                           	
  7497                           l834:; BSR set to: 0
  7498  001C3E                     
  7499                           	line	152
  7500                           	
  7501                           l3375:; BSR set to: 0
  7502  001C3E                     
  7503                           	
  7504                           	btfss	((___flmul@prod+2))&0ffh,(23)&7
  7505  001C3E  AF8D               	goto	u3961
  7506  001C40  EF24  F00E         	goto	u3960
  7507  001C44  EF26  F00E         u3961:
  7508  001C48                     	goto	l3369
  7509  001C48  EF08  F00E         u3960:
  7510  001C4C                     	goto	l3377
  7511  001C4C  EF28  F00E         	
  7512                           l837:; BSR set to: 0
  7513  001C50                     
  7514                           	line	163
  7515                           	
  7516                           l3377:; BSR set to: 0
  7517  001C50                     
  7518                           	movlw	low(0)
  7519  001C50  0E00               	movwf	((___flmul@aexp))&0ffh
  7520  001C52  6F85               	line	164
  7521                           	
  7522                           l3379:; BSR set to: 0
  7523  001C54                     
  7524                           	
  7525                           	btfss	((___flmul@grs+3))&0ffh,(31)&7
  7526  001C54  AF89               	goto	u3971
  7527  001C56  EF2F  F00E         	goto	u3970
  7528  001C5A  EF31  F00E         u3971:
  7529  001C5E                     	goto	l838
  7530  001C5E  EF59  F00E         u3970:
  7531  001C62                     	line	165
  7532                           	
  7533                           l3381:; BSR set to: 0
  7534  001C62                     
  7535                           	movlw	0FFh
  7536  001C62  0EFF               	andwf	((___flmul@grs))&0ffh,w
  7537  001C64  1586               	movwf	(??___flmul+0+0)&0ffh
  7538  001C66  6F80               	movlw	0FFh
  7539  001C68  0EFF               	andwf	((___flmul@grs+1))&0ffh,w
  7540  001C6A  1587               	movwf	1+(??___flmul+0+0)&0ffh
  7541  001C6C  6F81               	
  7542                           	movlw	0FFh
  7543  001C6E  0EFF               	andwf	((___flmul@grs+2))&0ffh,w
  7544  001C70  1588               	movwf	2+(??___flmul+0+0)&0ffh
  7545  001C72  6F82               	
  7546                           	movlw	07Fh
  7547  001C74  0E7F               	andwf	((___flmul@grs+3))&0ffh,w
  7548  001C76  1589               	movwf	3+(??___flmul+0+0)&0ffh
  7549  001C78  6F83               	movf	(??___flmul+0+0)&0ffh,w
  7550  001C7A  5180               iorwf	(??___flmul+0+1)&0ffh,w
  7551  001C7C  1181               iorwf	(??___flmul+0+2)&0ffh,w
  7552  001C7E  1182               iorwf	(??___flmul+0+3)&0ffh,w
  7553  001C80  1183               	btfsc	status,2
  7554  001C82  B4D8               	goto	u3981
  7555  001C84  EF46  F00E         	goto	u3980
  7556  001C88  EF48  F00E         
  7557                           u3981:
  7558  001C8C                     	goto	l839
  7559  001C8C  EF4C  F00E         u3980:
  7560  001C90                     	line	166
  7561                           	
  7562                           l3383:; BSR set to: 0
  7563  001C90                     
  7564                           	movlw	low(01h)
  7565  001C90  0E01               	movwf	((___flmul@aexp))&0ffh
  7566  001C92  6F85               	line	167
  7567                           	goto	l838
  7568  001C94  EF59  F00E         	line	168
  7569                           	
  7570                           l839:; BSR set to: 0
  7571  001C98                     
  7572                           	line	169
  7573                           	
  7574                           	btfss	((___flmul@prod))&0ffh,(0)&7
  7575  001C98  A18B               	goto	u3991
  7576  001C9A  EF51  F00E         	goto	u3990
  7577  001C9E  EF53  F00E         u3991:
  7578  001CA2                     	goto	l838
  7579  001CA2  EF59  F00E         u3990:
  7580  001CA6                     	line	170
  7581                           	
  7582                           l3385:; BSR set to: 0
  7583  001CA6                     
  7584                           	movlw	low(01h)
  7585  001CA6  0E01               	movwf	((___flmul@aexp))&0ffh
  7586  001CA8  6F85               	goto	l838
  7587  001CAA  EF59  F00E         	line	171
  7588                           	
  7589                           l841:; BSR set to: 0
  7590  001CAE                     
  7591                           	goto	l838
  7592  001CAE  EF59  F00E         	line	172
  7593                           	
  7594                           l840:; BSR set to: 0
  7595  001CB2                     
  7596                           	line	173
  7597                           	
  7598                           l838:; BSR set to: 0
  7599  001CB2                     
  7600                           	line	174
  7601                           	movf	((___flmul@aexp))&0ffh,w
  7602  001CB2  5185               	btfsc	status,2
  7603  001CB4  B4D8               	goto	u4001
  7604  001CB6  EF5F  F00E         	goto	u4000
  7605  001CBA  EF61  F00E         u4001:
  7606  001CBE                     	goto	l3395
  7607  001CBE  EF89  F00E         u4000:
  7608  001CC2                     	line	175
  7609                           	
  7610                           l3387:; BSR set to: 0
  7611  001CC2                     
  7612                           	movlw	low(01h)
  7613  001CC2  0E01               	addwf	((___flmul@prod))&0ffh
  7614  001CC4  278B               	movlw	0
  7615  001CC6  0E00               	addwfc	((___flmul@prod+1))&0ffh
  7616  001CC8  238C               	addwfc	((___flmul@prod+2))&0ffh
  7617  001CCA  238D               	addwfc	((___flmul@prod+3))&0ffh
  7618  001CCC  238E               	line	176
  7619                           	
  7620                           l3389:; BSR set to: 0
  7621  001CCE                     
  7622                           	
  7623                           	btfss	((___flmul@prod+3))&0ffh,(24)&7
  7624  001CCE  A18E               	goto	u4011
  7625  001CD0  EF6C  F00E         	goto	u4010
  7626  001CD4  EF6E  F00E         u4011:
  7627  001CD8                     	goto	l3395
  7628  001CD8  EF89  F00E         u4010:
  7629  001CDC                     	line	177
  7630                           	
  7631                           l3391:; BSR set to: 0
  7632  001CDC                     
  7633                           	movff	(___flmul@prod),??___flmul+0+0
  7634  001CDC  C08B  F080         	movff	(___flmul@prod+1),??___flmul+0+0+1
  7635  001CE0  C08C  F081         	movff	(___flmul@prod+2),??___flmul+0+0+2
  7636  001CE4  C08D  F082         	movff	(___flmul@prod+3),??___flmul+0+0+3
  7637  001CE8  C08E  F083         	rlcf	(??___flmul+0+3)&0ffh,w
  7638  001CEC  3583               	rrcf	(??___flmul+0+3)&0ffh
  7639  001CEE  3383               	rrcf	(??___flmul+0+2)&0ffh
  7640  001CF0  3382               	rrcf	(??___flmul+0+1)&0ffh
  7641  001CF2  3381               	rrcf	(??___flmul+0+0)&0ffh
  7642  001CF4  3380               	movff	??___flmul+0+0,(___flmul@prod)
  7643  001CF6  C080  F08B         	movff	??___flmul+0+1,(___flmul@prod+1)
  7644  001CFA  C081  F08C         	movff	??___flmul+0+2,(___flmul@prod+2)
  7645  001CFE  C082  F08D         	movff	??___flmul+0+3,(___flmul@prod+3)
  7646  001D02  C083  F08E         	line	178
  7647                           	
  7648                           l3393:; BSR set to: 0
  7649  001D06                     
  7650                           	infsnz	((___flmul@temp))&0ffh
  7651  001D06  4B8F               	incf	((___flmul@temp+1))&0ffh
  7652  001D08  2B90               	goto	l3395
  7653  001D0A  EF89  F00E         	line	179
  7654                           	
  7655                           l843:; BSR set to: 0
  7656  001D0E                     
  7657                           	goto	l3395
  7658  001D0E  EF89  F00E         	line	180
  7659                           	
  7660                           l842:; BSR set to: 0
  7661  001D12                     
  7662                           	line	183
  7663                           	
  7664                           l3395:; BSR set to: 0
  7665  001D12                     
  7666                           	btfsc	((___flmul@temp+1))&0ffh,7
  7667  001D12  BF90               	goto	u4021
  7668  001D14  EF94  F00E         	movf	((___flmul@temp+1))&0ffh,w
  7669  001D18  5190               	bnz	u4020
  7670  001D1A  E108               	incf	((___flmul@temp))&0ffh,w
  7671  001D1C  298F               	btfss	status,0
  7672  001D1E  A0D8               	goto	u4021
  7673  001D20  EF94  F00E         	goto	u4020
  7674  001D24  EF96  F00E         
  7675                           u4021:
  7676  001D28                     	goto	l3399
  7677  001D28  EFA0  F00E         u4020:
  7678  001D2C                     	line	184
  7679                           	
  7680                           l3397:; BSR set to: 0
  7681  001D2C                     
  7682                           	movlw	low(07F800000h)
  7683  001D2C  0E00               	movwf	((___flmul@prod))&0ffh
  7684  001D2E  6F8B               	movlw	high(07F800000h)
  7685  001D30  0E00               	movwf	((___flmul@prod+1))&0ffh
  7686  001D32  6F8C               	movlw	low highword(07F800000h)
  7687  001D34  0E80               	movwf	((___flmul@prod+2))&0ffh
  7688  001D36  6F8D               	movlw	high highword(07F800000h)
  7689  001D38  0E7F               	movwf	((___flmul@prod+3))&0ffh
  7690  001D3A  6F8E               	line	185
  7691                           	goto	l3411
  7692  001D3C  EFD4  F00E         	line	187
  7693                           	
  7694                           l844:; BSR set to: 0
  7695  001D40                     
  7696                           	
  7697                           l3399:; BSR set to: 0
  7698  001D40                     
  7699                           	btfsc	((___flmul@temp+1))&0ffh,7
  7700  001D40  BF90               	goto	u4030
  7701  001D42  EFAD  F00E         	movf	((___flmul@temp+1))&0ffh,w
  7702  001D46  5190               	bnz	u4031
  7703  001D48  E106               	decf	((___flmul@temp))&0ffh,w
  7704  001D4A  058F               	btfsc	status,0
  7705  001D4C  B0D8               	goto	u4031
  7706  001D4E  EFAB  F00E         	goto	u4030
  7707  001D52  EFAD  F00E         
  7708                           u4031:
  7709  001D56                     	goto	l846
  7710  001D56  EFB9  F00E         u4030:
  7711  001D5A                     	line	188
  7712                           	
  7713                           l3401:; BSR set to: 0
  7714  001D5A                     
  7715                           	movlw	low(0)
  7716  001D5A  0E00               	movwf	((___flmul@prod))&0ffh
  7717  001D5C  6F8B               	movlw	high(0)
  7718  001D5E  0E00               	movwf	((___flmul@prod+1))&0ffh
  7719  001D60  6F8C               	movlw	low highword(0)
  7720  001D62  0E00               	movwf	((___flmul@prod+2))&0ffh
  7721  001D64  6F8D               	movlw	high highword(0)
  7722  001D66  0E00               	movwf	((___flmul@prod+3))&0ffh
  7723  001D68  6F8E               	line	190
  7724                           	movlw	low(0)
  7725  001D6A  0E00               	movwf	((___flmul@sign))&0ffh
  7726  001D6C  6F84               	line	191
  7727                           	goto	l3411
  7728  001D6E  EFD4  F00E         	line	192
  7729                           	
  7730                           l846:; BSR set to: 0
  7731  001D72                     
  7732                           	line	194
  7733                           	movff	(___flmul@temp),(___flmul@bexp)
  7734  001D72  C08F  F08A         	line	195
  7735                           	
  7736                           l3403:; BSR set to: 0
  7737  001D76                     
  7738                           	movlw	0FFh
  7739  001D76  0EFF               	andwf	((___flmul@prod))&0ffh
  7740  001D78  178B               	movlw	0FFh
  7741  001D7A  0EFF               	andwf	((___flmul@prod+1))&0ffh
  7742  001D7C  178C               	movlw	07Fh
  7743  001D7E  0E7F               	andwf	((___flmul@prod+2))&0ffh
  7744  001D80  178D               	movlw	0
  7745  001D82  0E00               	andwf	((___flmul@prod+3))&0ffh
  7746  001D84  178E               	line	196
  7747                           	
  7748                           l3405:; BSR set to: 0
  7749  001D86                     
  7750                           	
  7751                           	btfss	((___flmul@bexp))&0ffh,(0)&7
  7752  001D86  A18A               	goto	u4041
  7753  001D88  EFC8  F00E         	goto	u4040
  7754  001D8C  EFCA  F00E         u4041:
  7755  001D90                     	goto	l3409
  7756  001D90  EFCD  F00E         u4040:
  7757  001D94                     	line	197
  7758                           	
  7759                           l3407:; BSR set to: 0
  7760  001D94                     
  7761                           	bsf	(0+(7/8)+0+(___flmul@prod+02h))&0ffh,(7)&7
  7762  001D94  8F8D               	goto	l3409
  7763  001D96  EFCD  F00E         	line	198
  7764                           	
  7765                           l848:; BSR set to: 0
  7766  001D9A                     
  7767                           	line	199
  7768                           	
  7769                           l3409:; BSR set to: 0
  7770  001D9A                     
  7771                           	bcf	status,0
  7772  001D9A  90D8               	rrcf	((___flmul@bexp))&0ffh,w
  7773  001D9C  318A               	movwf	(0+(___flmul@prod+03h))&0ffh
  7774  001D9E  6F8E               	goto	l3411
  7775  001DA0  EFD4  F00E         	line	200
  7776                           	
  7777                           l847:; BSR set to: 0
  7778  001DA4                     
  7779                           	goto	l3411
  7780  001DA4  EFD4  F00E         	
  7781                           l845:; BSR set to: 0
  7782  001DA8                     
  7783                           	line	201
  7784                           	
  7785                           l3411:; BSR set to: 0
  7786  001DA8                     
  7787                           	movf	((___flmul@sign))&0ffh,w
  7788  001DA8  5184               	iorwf	(0+(___flmul@prod+03h))&0ffh
  7789  001DAA  138E               	line	203
  7790                           	
  7791                           l3413:; BSR set to: 0
  7792  001DAC                     
  7793                           	movff	(___flmul@prod),(?___flmul)
  7794  001DAC  C08B  F078         	movff	(___flmul@prod+1),(?___flmul+1)
  7795  001DB0  C08C  F079         	movff	(___flmul@prod+2),(?___flmul+2)
  7796  001DB4  C08D  F07A         	movff	(___flmul@prod+3),(?___flmul+3)
  7797  001DB8  C08E  F07B         	goto	l833
  7798  001DBC  EFE0  F00E         	
  7799                           l3415:; BSR set to: 0
  7800  001DC0                     
  7801                           	line	205
  7802                           	
  7803                           l833:; BSR set to: 0
  7804  001DC0                     
  7805                           	return	;funcret
  7806  001DC0  0012               	opt stack 0
  7807                           GLOBAL	__end_of___flmul
  7808                           	__end_of___flmul:
  7809  001DC2                     	signat	___flmul,8316
  7810                           	global	___flge
  7811                           
  7812 ;; *************** function ___flge *****************
  7813 ;; Defined at:
  7814 ;;		line 4 in file "/Applications/microchip/xc8/v1.45/sources/common/flge.c"
  7815 ;; Parameters:    Size  Location     Type
  7816 ;;  ff1             4    0[BANK0 ] unsigned char 
  7817 ;;  ff2             4    4[BANK0 ] unsigned char 
  7818 ;; Auto vars:     Size  Location     Type
  7819 ;;		None
  7820 ;; Return value:  Size  Location     Type
  7821 ;;		None               void
  7822 ;; Registers used:
  7823 ;;		wreg, status,2, status,0
  7824 ;; Tracked objects:
  7825 ;;		On entry : 0/0
  7826 ;;		On exit  : 0/0
  7827 ;;		Unchanged: 0/0
  7828 ;; Data sizes:     COMRAM   BANK0   BANK1   BANK2   BANK3   BANK4   BANK5   BANK6   BANK7
  7829 ;;      Params:         0       8       0       0       0       0       0       0       0
  7830 ;;      Locals:         0       0       0       0       0       0       0       0       0
  7831 ;;      Temps:          0       4       0       0       0       0       0       0       0
  7832 ;;      Totals:         0      12       0       0       0       0       0       0       0
  7833 ;;Total ram usage:       12 bytes
  7834 ;; Hardware stack levels used:    1
  7835 ;; Hardware stack levels required when called:    2
  7836 ;; This function calls:
  7837 ;;		Nothing
  7838 ;; This function is called by:
  7839 ;;		_strtod
  7840 ;; This function uses a non-reentrant model
  7841 ;;
  7842                           psect	text14,class=CODE,space=0,reloc=2,group=1
  7843                           	file	"/Applications/microchip/xc8/v1.45/sources/common/flge.c"
  7844                           	line	4
  7845                           global __ptext14
  7846                           __ptext14:
  7847  0025CA                     psect	text14
  7848                           	file	"/Applications/microchip/xc8/v1.45/sources/common/flge.c"
  7849                           	line	4
  7850                           	global	__size_of___flge
  7851                           	__size_of___flge	equ	__end_of___flge-___flge
  7852  0000                     	
  7853                           ___flge:; BSR set to: 0
  7854  0025CA                     
  7855                           ;incstack = 0
  7856                           	opt	stack 26
  7857                           	line	7
  7858                           	
  7859                           l3443:
  7860  0025CA                     	movlw	0
  7861  0025CA  0E00               	movlb	0	; () banked
  7862  0025CC  0100               	andwf	((___flge@ff1))&0ffh,w
  7863  0025CE  1560               	movwf	(??___flge+0+0)&0ffh
  7864  0025D0  6F68               	movlw	0
  7865  0025D2  0E00               	andwf	((___flge@ff1+1))&0ffh,w
  7866  0025D4  1561               	movwf	1+(??___flge+0+0)&0ffh
  7867  0025D6  6F69               	
  7868                           	movlw	080h
  7869  0025D8  0E80               	andwf	((___flge@ff1+2))&0ffh,w
  7870  0025DA  1562               	movwf	2+(??___flge+0+0)&0ffh
  7871  0025DC  6F6A               	
  7872                           	movlw	07Fh
  7873  0025DE  0E7F               	andwf	((___flge@ff1+3))&0ffh,w
  7874  0025E0  1563               	movwf	3+(??___flge+0+0)&0ffh
  7875  0025E2  6F6B               	movf	(??___flge+0+0)&0ffh,w
  7876  0025E4  5168               iorwf	(??___flge+0+1)&0ffh,w
  7877  0025E6  1169               iorwf	(??___flge+0+2)&0ffh,w
  7878  0025E8  116A               iorwf	(??___flge+0+3)&0ffh,w
  7879  0025EA  116B               	btfss	status,2
  7880  0025EC  A4D8               	goto	u4101
  7881  0025EE  EFFB  F012         	goto	u4100
  7882  0025F2  EFFD  F012         
  7883                           u4101:
  7884  0025F6                     	goto	l3447
  7885  0025F6  EF07  F013         u4100:
  7886  0025FA                     	line	8
  7887                           	
  7888                           l3445:; BSR set to: 0
  7889  0025FA                     
  7890                           	movlw	low(0)
  7891  0025FA  0E00               	movwf	((___flge@ff1))&0ffh
  7892  0025FC  6F60               	movlw	high(0)
  7893  0025FE  0E00               	movwf	((___flge@ff1+1))&0ffh
  7894  002600  6F61               	movlw	low highword(0)
  7895  002602  0E00               	movwf	((___flge@ff1+2))&0ffh
  7896  002604  6F62               	movlw	high highword(0)
  7897  002606  0E00               	movwf	((___flge@ff1+3))&0ffh
  7898  002608  6F63               	goto	l3447
  7899  00260A  EF07  F013         	
  7900                           l493:; BSR set to: 0
  7901  00260E                     
  7902                           	line	9
  7903                           	
  7904                           l3447:; BSR set to: 0
  7905  00260E                     
  7906                           	movlw	0
  7907  00260E  0E00               	andwf	((___flge@ff2))&0ffh,w
  7908  002610  1564               	movwf	(??___flge+0+0)&0ffh
  7909  002612  6F68               	movlw	0
  7910  002614  0E00               	andwf	((___flge@ff2+1))&0ffh,w
  7911  002616  1565               	movwf	1+(??___flge+0+0)&0ffh
  7912  002618  6F69               	
  7913                           	movlw	080h
  7914  00261A  0E80               	andwf	((___flge@ff2+2))&0ffh,w
  7915  00261C  1566               	movwf	2+(??___flge+0+0)&0ffh
  7916  00261E  6F6A               	
  7917                           	movlw	07Fh
  7918  002620  0E7F               	andwf	((___flge@ff2+3))&0ffh,w
  7919  002622  1567               	movwf	3+(??___flge+0+0)&0ffh
  7920  002624  6F6B               	movf	(??___flge+0+0)&0ffh,w
  7921  002626  5168               iorwf	(??___flge+0+1)&0ffh,w
  7922  002628  1169               iorwf	(??___flge+0+2)&0ffh,w
  7923  00262A  116A               iorwf	(??___flge+0+3)&0ffh,w
  7924  00262C  116B               	btfss	status,2
  7925  00262E  A4D8               	goto	u4111
  7926  002630  EF1C  F013         	goto	u4110
  7927  002634  EF1E  F013         
  7928                           u4111:
  7929  002638                     	goto	l3451
  7930  002638  EF28  F013         u4110:
  7931  00263C                     	line	10
  7932                           	
  7933                           l3449:; BSR set to: 0
  7934  00263C                     
  7935                           	movlw	low(0)
  7936  00263C  0E00               	movwf	((___flge@ff2))&0ffh
  7937  00263E  6F64               	movlw	high(0)
  7938  002640  0E00               	movwf	((___flge@ff2+1))&0ffh
  7939  002642  6F65               	movlw	low highword(0)
  7940  002644  0E00               	movwf	((___flge@ff2+2))&0ffh
  7941  002646  6F66               	movlw	high highword(0)
  7942  002648  0E00               	movwf	((___flge@ff2+3))&0ffh
  7943  00264A  6F67               	goto	l3451
  7944  00264C  EF28  F013         	
  7945                           l494:; BSR set to: 0
  7946  002650                     
  7947                           	line	12
  7948                           	
  7949                           l3451:; BSR set to: 0
  7950  002650                     
  7951                           	
  7952                           	btfss	((___flge@ff1+3))&0ffh,(31)&7
  7953  002650  AF63               	goto	u4121
  7954  002652  EF2D  F013         	goto	u4120
  7955  002656  EF2F  F013         u4121:
  7956  00265A                     	goto	l3455
  7957  00265A  EF4E  F013         u4120:
  7958  00265E                     	line	13
  7959                           	
  7960                           l3453:; BSR set to: 0
  7961  00265E                     
  7962                           	movff	(___flge@ff1),??___flge+0+0
  7963  00265E  C060  F068         	movff	(___flge@ff1+1),??___flge+0+0+1
  7964  002662  C061  F069         	movff	(___flge@ff1+2),??___flge+0+0+2
  7965  002666  C062  F06A         	movff	(___flge@ff1+3),??___flge+0+0+3
  7966  00266A  C063  F06B         	comf	(??___flge+0+0)&0ffh
  7967  00266E  1F68               	comf	(??___flge+0+1)&0ffh
  7968  002670  1F69               	comf	(??___flge+0+2)&0ffh
  7969  002672  1F6A               	comf	(??___flge+0+3)&0ffh
  7970  002674  1F6B               	incf	(??___flge+0+0)&0ffh
  7971  002676  2B68               	movlw	0
  7972  002678  0E00               	addwfc	(??___flge+0+1)&0ffh
  7973  00267A  2369               	addwfc	(??___flge+0+2)&0ffh
  7974  00267C  236A               	addwfc	(??___flge+0+3)&0ffh
  7975  00267E  236B               	movlw	0
  7976  002680  0E00               	addwf	(??___flge+0+0)&0ffh,w
  7977  002682  2568               	movwf	((___flge@ff1))&0ffh
  7978  002684  6F60               	movlw	0
  7979  002686  0E00               	addwfc	(??___flge+0+1)&0ffh,w
  7980  002688  2169               	movwf	1+((___flge@ff1))&0ffh
  7981  00268A  6F61               	
  7982                           	movlw	0
  7983  00268C  0E00               	addwfc	(??___flge+0+2)&0ffh,w
  7984  00268E  216A               	movwf	2+((___flge@ff1))&0ffh
  7985  002690  6F62               	
  7986                           	movlw	080h
  7987  002692  0E80               	addwfc	(??___flge+0+3)&0ffh,w
  7988  002694  216B               	movwf	3+((___flge@ff1))&0ffh
  7989  002696  6F63               	goto	l3455
  7990  002698  EF4E  F013         	
  7991                           l495:; BSR set to: 0
  7992  00269C                     
  7993                           	line	14
  7994                           	
  7995                           l3455:; BSR set to: 0
  7996  00269C                     
  7997                           	
  7998                           	btfss	((___flge@ff2+3))&0ffh,(31)&7
  7999  00269C  AF67               	goto	u4131
  8000  00269E  EF53  F013         	goto	u4130
  8001  0026A2  EF55  F013         u4131:
  8002  0026A6                     	goto	l496
  8003  0026A6  EF72  F013         u4130:
  8004  0026AA                     	line	15
  8005                           	
  8006                           l3457:; BSR set to: 0
  8007  0026AA                     
  8008                           	movff	(___flge@ff2),??___flge+0+0
  8009  0026AA  C064  F068         	movff	(___flge@ff2+1),??___flge+0+0+1
  8010  0026AE  C065  F069         	movff	(___flge@ff2+2),??___flge+0+0+2
  8011  0026B2  C066  F06A         	movff	(___flge@ff2+3),??___flge+0+0+3
  8012  0026B6  C067  F06B         	comf	(??___flge+0+0)&0ffh
  8013  0026BA  1F68               	comf	(??___flge+0+1)&0ffh
  8014  0026BC  1F69               	comf	(??___flge+0+2)&0ffh
  8015  0026BE  1F6A               	comf	(??___flge+0+3)&0ffh
  8016  0026C0  1F6B               	incf	(??___flge+0+0)&0ffh
  8017  0026C2  2B68               	movlw	0
  8018  0026C4  0E00               	addwfc	(??___flge+0+1)&0ffh
  8019  0026C6  2369               	addwfc	(??___flge+0+2)&0ffh
  8020  0026C8  236A               	addwfc	(??___flge+0+3)&0ffh
  8021  0026CA  236B               	movlw	0
  8022  0026CC  0E00               	addwf	(??___flge+0+0)&0ffh,w
  8023  0026CE  2568               	movwf	((___flge@ff2))&0ffh
  8024  0026D0  6F64               	movlw	0
  8025  0026D2  0E00               	addwfc	(??___flge+0+1)&0ffh,w
  8026  0026D4  2169               	movwf	1+((___flge@ff2))&0ffh
  8027  0026D6  6F65               	
  8028                           	movlw	0
  8029  0026D8  0E00               	addwfc	(??___flge+0+2)&0ffh,w
  8030  0026DA  216A               	movwf	2+((___flge@ff2))&0ffh
  8031  0026DC  6F66               	
  8032                           	movlw	080h
  8033  0026DE  0E80               	addwfc	(??___flge+0+3)&0ffh,w
  8034  0026E0  216B               	movwf	3+((___flge@ff2))&0ffh
  8035  0026E2  6F67               	
  8036                           l496:; BSR set to: 0
  8037  0026E4                     
  8038                           	line	16
  8039                           	movlw	0
  8040  0026E4  0E00               	xorwf	((___flge@ff1))&0ffh
  8041  0026E6  1B60               	movlw	0
  8042  0026E8  0E00               	xorwf	((___flge@ff1+1))&0ffh
  8043  0026EA  1B61               	movlw	0
  8044  0026EC  0E00               	xorwf	((___flge@ff1+2))&0ffh
  8045  0026EE  1B62               	movlw	080h
  8046  0026F0  0E80               	xorwf	((___flge@ff1+3))&0ffh
  8047  0026F2  1B63               	line	17
  8048                           	movlw	0
  8049  0026F4  0E00               	xorwf	((___flge@ff2))&0ffh
  8050  0026F6  1B64               	movlw	0
  8051  0026F8  0E00               	xorwf	((___flge@ff2+1))&0ffh
  8052  0026FA  1B65               	movlw	0
  8053  0026FC  0E00               	xorwf	((___flge@ff2+2))&0ffh
  8054  0026FE  1B66               	movlw	080h
  8055  002700  0E80               	xorwf	((___flge@ff2+3))&0ffh
  8056  002702  1B67               	line	18
  8057                           		movf	((___flge@ff2))&0ffh,w
  8058  002704  5164               	subwf	((___flge@ff1))&0ffh,w
  8059  002706  5D60               	movf	((___flge@ff2+1))&0ffh,w
  8060  002708  5165               	subwfb	((___flge@ff1+1))&0ffh,w
  8061  00270A  5961               	movf	((___flge@ff2+2))&0ffh,w
  8062  00270C  5166               	subwfb	((___flge@ff1+2))&0ffh,w
  8063  00270E  5962               	movf	((___flge@ff2+3))&0ffh,w
  8064  002710  5167               	subwfb	((___flge@ff1+3))&0ffh,w
  8065  002712  5963               	btfsc	status,0
  8066  002714  B0D8               	goto	u4141
  8067  002716  EF8F  F013         	goto	u4140
  8068  00271A  EF91  F013         
  8069                           u4141:
  8070  00271E                     	goto	l3461
  8071  00271E  EF94  F013         u4140:
  8072  002722                     	
  8073                           l3459:; BSR set to: 0
  8074  002722                     
  8075                           	bcf	status,0
  8076  002722  90D8               	goto	l497
  8077  002724  EF99  F013         	
  8078                           l3137:; BSR set to: 0
  8079  002728                     
  8080                           	
  8081                           l3461:; BSR set to: 0
  8082  002728                     
  8083                           	bsf	status,0
  8084  002728  80D8               	goto	l497
  8085  00272A  EF99  F013         	
  8086                           l3139:; BSR set to: 0
  8087  00272E                     
  8088                           	goto	l497
  8089  00272E  EF99  F013         	
  8090                           l3463:; BSR set to: 0
  8091  002732                     
  8092                           	line	19
  8093                           	
  8094                           l497:; BSR set to: 0
  8095  002732                     
  8096                           	return	;funcret
  8097  002732  0012               	opt stack 0
  8098                           GLOBAL	__end_of___flge
  8099                           	__end_of___flge:
  8100  002734                     	signat	___flge,8312
  8101                           	global	___fldiv
  8102                           
  8103 ;; *************** function ___fldiv *****************
  8104 ;; Defined at:
  8105 ;;		line 11 in file "/Applications/microchip/xc8/v1.45/sources/common/sprcdiv.c"
  8106 ;; Parameters:    Size  Location     Type
  8107 ;;  b               4   49[BANK0 ] unsigned char 
  8108 ;;  a               4   53[BANK0 ] unsigned char 
  8109 ;; Auto vars:     Size  Location     Type
  8110 ;;  grs             4   68[BANK0 ] unsigned long 
  8111 ;;  rem             4   62[BANK0 ] unsigned long 
  8112 ;;  new_exp         2   66[BANK0 ] int 
  8113 ;;  aexp            1   73[BANK0 ] unsigned char 
  8114 ;;  bexp            1   72[BANK0 ] unsigned char 
  8115 ;;  sign            1   61[BANK0 ] unsigned char 
  8116 ;; Return value:  Size  Location     Type
  8117 ;;                  4   49[BANK0 ] unsigned char 
  8118 ;; Registers used:
  8119 ;;		wreg, status,2, status,0
  8120 ;; Tracked objects:
  8121 ;;		On entry : 0/0
  8122 ;;		On exit  : 0/0
  8123 ;;		Unchanged: 0/0
  8124 ;; Data sizes:     COMRAM   BANK0   BANK1   BANK2   BANK3   BANK4   BANK5   BANK6   BANK7
  8125 ;;      Params:         0       8       0       0       0       0       0       0       0
  8126 ;;      Locals:         0      13       0       0       0       0       0       0       0
  8127 ;;      Temps:          0       4       0       0       0       0       0       0       0
  8128 ;;      Totals:         0      25       0       0       0       0       0       0       0
  8129 ;;Total ram usage:       25 bytes
  8130 ;; Hardware stack levels used:    1
  8131 ;; Hardware stack levels required when called:    2
  8132 ;; This function calls:
  8133 ;;		Nothing
  8134 ;; This function is called by:
  8135 ;;		_main
  8136 ;;		_strtod
  8137 ;; This function uses a non-reentrant model
  8138 ;;
  8139                           psect	text15,class=CODE,space=0,reloc=2,group=1
  8140                           	file	"/Applications/microchip/xc8/v1.45/sources/common/sprcdiv.c"
  8141                           	line	11
  8142                           global __ptext15
  8143                           __ptext15:
  8144  001DC2                     psect	text15
  8145                           	file	"/Applications/microchip/xc8/v1.45/sources/common/sprcdiv.c"
  8146                           	line	11
  8147                           	global	__size_of___fldiv
  8148                           	__size_of___fldiv	equ	__end_of___fldiv-___fldiv
  8149  0000                     	
  8150                           ___fldiv:; BSR set to: 0
  8151  001DC2                     
  8152                           ;incstack = 0
  8153                           	opt	stack 26
  8154                           	line	26
  8155                           	
  8156                           l3151:
  8157  001DC2                     	movlb	0	; () banked
  8158  001DC2  0100               	movf	(0+(___fldiv@b+03h))&0ffh,w
  8159  001DC4  5194               	andlw	low(080h)
  8160  001DC6  0B80               	movwf	((___fldiv@sign))&0ffh
  8161  001DC8  6F9D               	line	27
  8162                           	movf	(0+(___fldiv@b+03h))&0ffh,w
  8163  001DCA  5194               	addwf	(0+(___fldiv@b+03h))&0ffh,w
  8164  001DCC  2594               	movwf	((___fldiv@bexp))&0ffh
  8165  001DCE  6FA8               	line	28
  8166                           	
  8167                           l3153:; BSR set to: 0
  8168  001DD0                     
  8169                           	
  8170                           	btfss	(0+(___fldiv@b+02h))&0ffh,(7)&7
  8171  001DD0  AF93               	goto	u3631
  8172  001DD2  EFED  F00E         	goto	u3630
  8173  001DD6  EFEF  F00E         u3631:
  8174  001DDA                     	goto	l3157
  8175  001DDA  EFF2  F00E         u3630:
  8176  001DDE                     	line	29
  8177                           	
  8178                           l3155:; BSR set to: 0
  8179  001DDE                     
  8180                           	bsf	(0+(0/8)+(___fldiv@bexp))&0ffh,(0)&7
  8181  001DDE  81A8               	goto	l3157
  8182  001DE0  EFF2  F00E         	line	30
  8183                           	
  8184                           l788:; BSR set to: 0
  8185  001DE4                     
  8186                           	line	33
  8187                           	
  8188                           l3157:; BSR set to: 0
  8189  001DE4                     
  8190                           	movf	((___fldiv@bexp))&0ffh,w
  8191  001DE4  51A8               	btfsc	status,2
  8192  001DE6  B4D8               	goto	u3641
  8193  001DE8  EFF8  F00E         	goto	u3640
  8194  001DEC  EFFA  F00E         u3641:
  8195  001DF0                     	goto	l3167
  8196  001DF0  EF11  F00F         u3640:
  8197  001DF4                     	line	35
  8198                           	
  8199                           l3159:; BSR set to: 0
  8200  001DF4                     
  8201                           		incf	((___fldiv@bexp))&0ffh,w
  8202  001DF4  29A8               	btfss	status,2
  8203  001DF6  A4D8               	goto	u3651
  8204  001DF8  EF00  F00F         	goto	u3650
  8205  001DFC  EF02  F00F         
  8206                           u3651:
  8207  001E00                     	goto	l3163
  8208  001E00  EF0C  F00F         u3650:
  8209  001E04                     	line	37
  8210                           	
  8211                           l3161:; BSR set to: 0
  8212  001E04                     
  8213                           	movlw	low(normalize32(0.0000000000000000))
  8214  001E04  0E00               	movwf	((___fldiv@b))&0ffh
  8215  001E06  6F91               	movlw	high(normalize32(0.0000000000000000))
  8216  001E08  0E00               	movwf	((___fldiv@b+1))&0ffh
  8217  001E0A  6F92               	movlw	low highword(normalize32(0.0000000000000000))
  8218  001E0C  0E00               	movwf	((___fldiv@b+2))&0ffh
  8219  001E0E  6F93               	movlw	high highword(normalize32(0.0000000000000000))
  8220  001E10  0E00               	movwf	((___fldiv@b+3))&0ffh
  8221  001E12  6F94               	goto	l3163
  8222  001E14  EF0C  F00F         	line	38
  8223                           	
  8224                           l790:; BSR set to: 0
  8225  001E18                     
  8226                           	line	40
  8227                           	
  8228                           l3163:; BSR set to: 0
  8229  001E18                     
  8230                           	bsf	(0+(23/8)+(___fldiv@b))&0ffh,(23)&7
  8231  001E18  8F93               	line	42
  8232                           	
  8233                           l3165:; BSR set to: 0
  8234  001E1A                     
  8235                           	movlw	low(0)
  8236  001E1A  0E00               	movwf	(0+(___fldiv@b+03h))&0ffh
  8237  001E1C  6F94               	line	43
  8238                           	goto	l3169
  8239  001E1E  EF1B  F00F         	line	44
  8240                           	
  8241                           l789:; BSR set to: 0
  8242  001E22                     
  8243                           	line	46
  8244                           	
  8245                           l3167:; BSR set to: 0
  8246  001E22                     
  8247                           	movlw	low(normalize32(0.0000000000000000))
  8248  001E22  0E00               	movwf	((___fldiv@b))&0ffh
  8249  001E24  6F91               	movlw	high(normalize32(0.0000000000000000))
  8250  001E26  0E00               	movwf	((___fldiv@b+1))&0ffh
  8251  001E28  6F92               	movlw	low highword(normalize32(0.0000000000000000))
  8252  001E2A  0E00               	movwf	((___fldiv@b+2))&0ffh
  8253  001E2C  6F93               	movlw	high highword(normalize32(0.0000000000000000))
  8254  001E2E  0E00               	movwf	((___fldiv@b+3))&0ffh
  8255  001E30  6F94               	goto	l3169
  8256  001E32  EF1B  F00F         	line	47
  8257                           	
  8258                           l791:; BSR set to: 0
  8259  001E36                     
  8260                           	line	49
  8261                           	
  8262                           l3169:; BSR set to: 0
  8263  001E36                     
  8264                           	movf	(0+(___fldiv@a+03h))&0ffh,w
  8265  001E36  5198               	andlw	low(080h)
  8266  001E38  0B80               	xorwf	((___fldiv@sign))&0ffh
  8267  001E3A  1B9D               	line	50
  8268                           	
  8269                           l3171:; BSR set to: 0
  8270  001E3C                     
  8271                           	movf	(0+(___fldiv@a+03h))&0ffh,w
  8272  001E3C  5198               	addwf	(0+(___fldiv@a+03h))&0ffh,w
  8273  001E3E  2598               	movwf	((___fldiv@aexp))&0ffh
  8274  001E40  6FA9               	line	51
  8275                           	
  8276                           l3173:; BSR set to: 0
  8277  001E42                     
  8278                           	
  8279                           	btfss	(0+(___fldiv@a+02h))&0ffh,(7)&7
  8280  001E42  AF97               	goto	u3661
  8281  001E44  EF26  F00F         	goto	u3660
  8282  001E48  EF28  F00F         u3661:
  8283  001E4C                     	goto	l3177
  8284  001E4C  EF2B  F00F         u3660:
  8285  001E50                     	line	52
  8286                           	
  8287                           l3175:; BSR set to: 0
  8288  001E50                     
  8289                           	bsf	(0+(0/8)+(___fldiv@aexp))&0ffh,(0)&7
  8290  001E50  81A9               	goto	l3177
  8291  001E52  EF2B  F00F         	line	53
  8292                           	
  8293                           l792:; BSR set to: 0
  8294  001E56                     
  8295                           	line	56
  8296                           	
  8297                           l3177:; BSR set to: 0
  8298  001E56                     
  8299                           	movf	((___fldiv@aexp))&0ffh,w
  8300  001E56  51A9               	btfsc	status,2
  8301  001E58  B4D8               	goto	u3671
  8302  001E5A  EF31  F00F         	goto	u3670
  8303  001E5E  EF33  F00F         u3671:
  8304  001E62                     	goto	l3187
  8305  001E62  EF4A  F00F         u3670:
  8306  001E66                     	line	58
  8307                           	
  8308                           l3179:; BSR set to: 0
  8309  001E66                     
  8310                           		incf	((___fldiv@aexp))&0ffh,w
  8311  001E66  29A9               	btfss	status,2
  8312  001E68  A4D8               	goto	u3681
  8313  001E6A  EF39  F00F         	goto	u3680
  8314  001E6E  EF3B  F00F         
  8315                           u3681:
  8316  001E72                     	goto	l3183
  8317  001E72  EF45  F00F         u3680:
  8318  001E76                     	line	60
  8319                           	
  8320                           l3181:; BSR set to: 0
  8321  001E76                     
  8322                           	movlw	low(normalize32(0.0000000000000000))
  8323  001E76  0E00               	movwf	((___fldiv@a))&0ffh
  8324  001E78  6F95               	movlw	high(normalize32(0.0000000000000000))
  8325  001E7A  0E00               	movwf	((___fldiv@a+1))&0ffh
  8326  001E7C  6F96               	movlw	low highword(normalize32(0.0000000000000000))
  8327  001E7E  0E00               	movwf	((___fldiv@a+2))&0ffh
  8328  001E80  6F97               	movlw	high highword(normalize32(0.0000000000000000))
  8329  001E82  0E00               	movwf	((___fldiv@a+3))&0ffh
  8330  001E84  6F98               	goto	l3183
  8331  001E86  EF45  F00F         	line	61
  8332                           	
  8333                           l794:; BSR set to: 0
  8334  001E8A                     
  8335                           	line	63
  8336                           	
  8337                           l3183:; BSR set to: 0
  8338  001E8A                     
  8339                           	bsf	(0+(23/8)+(___fldiv@a))&0ffh,(23)&7
  8340  001E8A  8F97               	line	65
  8341                           	
  8342                           l3185:; BSR set to: 0
  8343  001E8C                     
  8344                           	movlw	low(0)
  8345  001E8C  0E00               	movwf	(0+(___fldiv@a+03h))&0ffh
  8346  001E8E  6F98               	line	66
  8347                           	goto	l3189
  8348  001E90  EF54  F00F         	line	67
  8349                           	
  8350                           l793:; BSR set to: 0
  8351  001E94                     
  8352                           	line	69
  8353                           	
  8354                           l3187:; BSR set to: 0
  8355  001E94                     
  8356                           	movlw	low(normalize32(0.0000000000000000))
  8357  001E94  0E00               	movwf	((___fldiv@a))&0ffh
  8358  001E96  6F95               	movlw	high(normalize32(0.0000000000000000))
  8359  001E98  0E00               	movwf	((___fldiv@a+1))&0ffh
  8360  001E9A  6F96               	movlw	low highword(normalize32(0.0000000000000000))
  8361  001E9C  0E00               	movwf	((___fldiv@a+2))&0ffh
  8362  001E9E  6F97               	movlw	high highword(normalize32(0.0000000000000000))
  8363  001EA0  0E00               	movwf	((___fldiv@a+3))&0ffh
  8364  001EA2  6F98               	goto	l3189
  8365  001EA4  EF54  F00F         	line	70
  8366                           	
  8367                           l795:; BSR set to: 0
  8368  001EA8                     
  8369                           	line	75
  8370                           	
  8371                           l3189:; BSR set to: 0
  8372  001EA8                     
  8373                           	movf	((___fldiv@a))&0ffh,w
  8374  001EA8  5195               iorwf	((___fldiv@a+1))&0ffh,w
  8375  001EAA  1196               iorwf	((___fldiv@a+2))&0ffh,w
  8376  001EAC  1197               iorwf	((___fldiv@a+3))&0ffh,w
  8377  001EAE  1198               	btfss	status,2
  8378  001EB0  A4D8               	goto	u3691
  8379  001EB2  EF5D  F00F         	goto	u3690
  8380  001EB6  EF5F  F00F         
  8381                           u3691:
  8382  001EBA                     	goto	l3199
  8383  001EBA  EF77  F00F         u3690:
  8384  001EBE                     	line	76
  8385                           	
  8386                           l3191:; BSR set to: 0
  8387  001EBE                     
  8388                           	movlw	low(0)
  8389  001EBE  0E00               	movwf	((___fldiv@b))&0ffh
  8390  001EC0  6F91               	movlw	high(0)
  8391  001EC2  0E00               	movwf	((___fldiv@b+1))&0ffh
  8392  001EC4  6F92               	movlw	low highword(0)
  8393  001EC6  0E00               	movwf	((___fldiv@b+2))&0ffh
  8394  001EC8  6F93               	movlw	high highword(0)
  8395  001ECA  0E00               	movwf	((___fldiv@b+3))&0ffh
  8396  001ECC  6F94               	line	77
  8397                           	
  8398                           l3193:; BSR set to: 0
  8399  001ECE                     
  8400                           	movlw	low(07F80h)
  8401  001ECE  0E80               	iorwf	(0+(___fldiv@b+02h))&0ffh
  8402  001ED0  1393               	movlw	high(07F80h)
  8403  001ED2  0E7F               	iorwf	(1+(___fldiv@b+02h))&0ffh
  8404  001ED4  1394               	line	78
  8405                           	
  8406                           l3195:; BSR set to: 0
  8407  001ED6                     
  8408                           	movff	(___fldiv@b),(?___fldiv)
  8409  001ED6  C091  F091         	movff	(___fldiv@b+1),(?___fldiv+1)
  8410  001EDA  C092  F092         	movff	(___fldiv@b+2),(?___fldiv+2)
  8411  001EDE  C093  F093         	movff	(___fldiv@b+3),(?___fldiv+3)
  8412  001EE2  C094  F094         	goto	l797
  8413  001EE6  EFEF  F010         	
  8414                           l3197:; BSR set to: 0
  8415  001EEA                     
  8416                           	goto	l797
  8417  001EEA  EFEF  F010         	line	79
  8418                           	
  8419                           l796:; BSR set to: 0
  8420  001EEE                     
  8421                           	line	82
  8422                           	
  8423                           l3199:; BSR set to: 0
  8424  001EEE                     
  8425                           	movf	((___fldiv@bexp))&0ffh,w
  8426  001EEE  51A8               	btfss	status,2
  8427  001EF0  A4D8               	goto	u3701
  8428  001EF2  EF7D  F00F         	goto	u3700
  8429  001EF6  EF7F  F00F         u3701:
  8430  001EFA                     	goto	l3207
  8431  001EFA  EF93  F00F         u3700:
  8432  001EFE                     	line	83
  8433                           	
  8434                           l3201:; BSR set to: 0
  8435  001EFE                     
  8436                           	movlw	low(0)
  8437  001EFE  0E00               	movwf	((___fldiv@b))&0ffh
  8438  001F00  6F91               	movlw	high(0)
  8439  001F02  0E00               	movwf	((___fldiv@b+1))&0ffh
  8440  001F04  6F92               	movlw	low highword(0)
  8441  001F06  0E00               	movwf	((___fldiv@b+2))&0ffh
  8442  001F08  6F93               	movlw	high highword(0)
  8443  001F0A  0E00               	movwf	((___fldiv@b+3))&0ffh
  8444  001F0C  6F94               	line	84
  8445                           	
  8446                           l3203:; BSR set to: 0
  8447  001F0E                     
  8448                           	movff	(___fldiv@b),(?___fldiv)
  8449  001F0E  C091  F091         	movff	(___fldiv@b+1),(?___fldiv+1)
  8450  001F12  C092  F092         	movff	(___fldiv@b+2),(?___fldiv+2)
  8451  001F16  C093  F093         	movff	(___fldiv@b+3),(?___fldiv+3)
  8452  001F1A  C094  F094         	goto	l797
  8453  001F1E  EFEF  F010         	
  8454                           l3205:; BSR set to: 0
  8455  001F22                     
  8456                           	goto	l797
  8457  001F22  EFEF  F010         	line	85
  8458                           	
  8459                           l798:; BSR set to: 0
  8460  001F26                     
  8461                           	line	88
  8462                           	
  8463                           l3207:; BSR set to: 0
  8464  001F26                     
  8465                           	movf	((___fldiv@aexp))&0ffh,w
  8466  001F26  51A9               	movwf	(??___fldiv+0+0)&0ffh
  8467  001F28  6F99               	clrf	(??___fldiv+0+0+1)&0ffh
  8468  001F2A  6B9A               
  8469                           	comf	(??___fldiv+0+0)&0ffh
  8470  001F2C  1F99               	comf	(??___fldiv+0+1)&0ffh
  8471  001F2E  1F9A               	infsnz	(??___fldiv+0+0)&0ffh
  8472  001F30  4B99               	incf	(??___fldiv+0+1)&0ffh
  8473  001F32  2B9A               	movf	((___fldiv@bexp))&0ffh,w
  8474  001F34  51A8               	movwf	(??___fldiv+2+0)&0ffh
  8475  001F36  6F9B               	clrf	(??___fldiv+2+0+1)&0ffh
  8476  001F38  6B9C               
  8477                           	movf	(??___fldiv+0+0)&0ffh,w
  8478  001F3A  5199               	addwf	(??___fldiv+2+0)&0ffh
  8479  001F3C  279B               	movf	(??___fldiv+0+1)&0ffh,w
  8480  001F3E  519A               	addwfc	(??___fldiv+2+1)&0ffh
  8481  001F40  239C               	movlw	low(07Fh)
  8482  001F42  0E7F               	addwf	(??___fldiv+2+0)&0ffh,w
  8483  001F44  259B               	movwf	((___fldiv@new_exp))&0ffh
  8484  001F46  6FA2               	movlw	high(07Fh)
  8485  001F48  0E00               	addwfc	(??___fldiv+2+1)&0ffh,w
  8486  001F4A  219C               	movwf	1+((___fldiv@new_exp))&0ffh
  8487  001F4C  6FA3               	line	91
  8488                           	
  8489                           l3209:; BSR set to: 0
  8490  001F4E                     
  8491                           	movff	(___fldiv@b),(___fldiv@rem)
  8492  001F4E  C091  F09E         	movff	(___fldiv@b+1),(___fldiv@rem+1)
  8493  001F52  C092  F09F         	movff	(___fldiv@b+2),(___fldiv@rem+2)
  8494  001F56  C093  F0A0         	movff	(___fldiv@b+3),(___fldiv@rem+3)
  8495  001F5A  C094  F0A1         	line	92
  8496                           	
  8497                           l3211:; BSR set to: 0
  8498  001F5E                     
  8499                           	movlw	low(0)
  8500  001F5E  0E00               	movwf	((___fldiv@b))&0ffh
  8501  001F60  6F91               	movlw	high(0)
  8502  001F62  0E00               	movwf	((___fldiv@b+1))&0ffh
  8503  001F64  6F92               	movlw	low highword(0)
  8504  001F66  0E00               	movwf	((___fldiv@b+2))&0ffh
  8505  001F68  6F93               	movlw	high highword(0)
  8506  001F6A  0E00               	movwf	((___fldiv@b+3))&0ffh
  8507  001F6C  6F94               	line	93
  8508                           	
  8509                           l3213:; BSR set to: 0
  8510  001F6E                     
  8511                           	movlw	low(0)
  8512  001F6E  0E00               	movwf	((___fldiv@grs))&0ffh
  8513  001F70  6FA4               	movlw	high(0)
  8514  001F72  0E00               	movwf	((___fldiv@grs+1))&0ffh
  8515  001F74  6FA5               	movlw	low highword(0)
  8516  001F76  0E00               	movwf	((___fldiv@grs+2))&0ffh
  8517  001F78  6FA6               	movlw	high highword(0)
  8518  001F7A  0E00               	movwf	((___fldiv@grs+3))&0ffh
  8519  001F7C  6FA7               	line	95
  8520                           	
  8521                           l3215:; BSR set to: 0
  8522  001F7E                     
  8523                           	movlw	low(0)
  8524  001F7E  0E00               	movwf	((___fldiv@aexp))&0ffh
  8525  001F80  6FA9               	line	96
  8526                           	goto	l799
  8527  001F82  EFFF  F00F         	
  8528                           l800:; BSR set to: 0
  8529  001F86                     
  8530                           	line	99
  8531                           	
  8532                           l3217:; BSR set to: 0
  8533  001F86                     
  8534                           	movf	((___fldiv@aexp))&0ffh,w
  8535  001F86  51A9               	btfsc	status,2
  8536  001F88  B4D8               	goto	u3711
  8537  001F8A  EFC9  F00F         	goto	u3710
  8538  001F8E  EFCB  F00F         u3711:
  8539  001F92                     	goto	l3225
  8540  001F92  EFE4  F00F         u3710:
  8541  001F96                     	line	100
  8542                           	
  8543                           l3219:; BSR set to: 0
  8544  001F96                     
  8545                           	bcf	status,0
  8546  001F96  90D8               	rlcf	((___fldiv@rem))&0ffh
  8547  001F98  379E               	rlcf	((___fldiv@rem+1))&0ffh
  8548  001F9A  379F               	rlcf	((___fldiv@rem+2))&0ffh
  8549  001F9C  37A0               	rlcf	((___fldiv@rem+3))&0ffh
  8550  001F9E  37A1               	line	101
  8551                           	bcf	status,0
  8552  001FA0  90D8               	rlcf	((___fldiv@b))&0ffh
  8553  001FA2  3791               	rlcf	((___fldiv@b+1))&0ffh
  8554  001FA4  3792               	rlcf	((___fldiv@b+2))&0ffh
  8555  001FA6  3793               	rlcf	((___fldiv@b+3))&0ffh
  8556  001FA8  3794               	line	102
  8557                           	
  8558                           l3221:; BSR set to: 0
  8559  001FAA                     
  8560                           	
  8561                           	btfss	((___fldiv@grs+3))&0ffh,(31)&7
  8562  001FAA  AFA7               	goto	u3721
  8563  001FAC  EFDA  F00F         	goto	u3720
  8564  001FB0  EFDC  F00F         u3721:
  8565  001FB4                     	goto	l802
  8566  001FB4  EFDD  F00F         u3720:
  8567  001FB8                     	line	103
  8568                           	
  8569                           l3223:; BSR set to: 0
  8570  001FB8                     
  8571                           	bsf	(0+(0/8)+(___fldiv@b))&0ffh,(0)&7
  8572  001FB8  8191               	line	104
  8573                           	
  8574                           l802:; BSR set to: 0
  8575  001FBA                     
  8576                           	line	105
  8577                           	bcf	status,0
  8578  001FBA  90D8               	rlcf	((___fldiv@grs))&0ffh
  8579  001FBC  37A4               	rlcf	((___fldiv@grs+1))&0ffh
  8580  001FBE  37A5               	rlcf	((___fldiv@grs+2))&0ffh
  8581  001FC0  37A6               	rlcf	((___fldiv@grs+3))&0ffh
  8582  001FC2  37A7               	goto	l3225
  8583  001FC4  EFE4  F00F         	line	106
  8584                           	
  8585                           l801:; BSR set to: 0
  8586  001FC8                     
  8587                           	line	111
  8588                           	
  8589                           l3225:; BSR set to: 0
  8590  001FC8                     
  8591                           		movf	((___fldiv@a))&0ffh,w
  8592  001FC8  5195               	subwf	((___fldiv@rem))&0ffh,w
  8593  001FCA  5D9E               	movf	((___fldiv@a+1))&0ffh,w
  8594  001FCC  5196               	subwfb	((___fldiv@rem+1))&0ffh,w
  8595  001FCE  599F               	movf	((___fldiv@a+2))&0ffh,w
  8596  001FD0  5197               	subwfb	((___fldiv@rem+2))&0ffh,w
  8597  001FD2  59A0               	movf	((___fldiv@a+3))&0ffh,w
  8598  001FD4  5198               	subwfb	((___fldiv@rem+3))&0ffh,w
  8599  001FD6  59A1               	btfss	status,0
  8600  001FD8  A0D8               	goto	u3731
  8601  001FDA  EFF1  F00F         	goto	u3730
  8602  001FDE  EFF3  F00F         
  8603                           u3731:
  8604  001FE2                     	goto	l3231
  8605  001FE2  EFFE  F00F         u3730:
  8606  001FE6                     	line	114
  8607                           	
  8608                           l3227:; BSR set to: 0
  8609  001FE6                     
  8610                           	bsf	(0+(30/8)+(___fldiv@grs))&0ffh,(30)&7
  8611  001FE6  8DA7               	line	115
  8612                           	
  8613                           l3229:; BSR set to: 0
  8614  001FE8                     
  8615                           	movf	((___fldiv@a))&0ffh,w
  8616  001FE8  5195               	subwf	((___fldiv@rem))&0ffh
  8617  001FEA  5F9E               	movf	((___fldiv@a+1))&0ffh,w
  8618  001FEC  5196               	subwfb	((___fldiv@rem+1))&0ffh
  8619  001FEE  5B9F               	movf	((___fldiv@a+2))&0ffh,w
  8620  001FF0  5197               	subwfb	((___fldiv@rem+2))&0ffh
  8621  001FF2  5BA0               	movf	((___fldiv@a+3))&0ffh,w
  8622  001FF4  5198               	subwfb	((___fldiv@rem+3))&0ffh
  8623  001FF6  5BA1               	goto	l3231
  8624  001FF8  EFFE  F00F         	line	116
  8625                           	
  8626                           l803:; BSR set to: 0
  8627  001FFC                     
  8628                           	line	117
  8629                           	
  8630                           l3231:; BSR set to: 0
  8631  001FFC                     
  8632                           	incf	((___fldiv@aexp))&0ffh
  8633  001FFC  2BA9               	line	118
  8634                           	
  8635                           l799:; BSR set to: 0
  8636  001FFE                     
  8637                           	line	96
  8638                           		movlw	01Ah-1
  8639  001FFE  0E19               	cpfsgt	((___fldiv@aexp))&0ffh
  8640  002000  65A9               	goto	u3741
  8641  002002  EF05  F010         	goto	u3740
  8642  002006  EF07  F010         
  8643                           u3741:
  8644  00200A                     	goto	l3217
  8645  00200A  EFC3  F00F         u3740:
  8646  00200E                     	goto	l3233
  8647  00200E  EF09  F010         	
  8648                           l804:; BSR set to: 0
  8649  002012                     
  8650                           	line	121
  8651                           	
  8652                           l3233:; BSR set to: 0
  8653  002012                     
  8654                           	movf	((___fldiv@rem))&0ffh,w
  8655  002012  519E               iorwf	((___fldiv@rem+1))&0ffh,w
  8656  002014  119F               iorwf	((___fldiv@rem+2))&0ffh,w
  8657  002016  11A0               iorwf	((___fldiv@rem+3))&0ffh,w
  8658  002018  11A1               	btfsc	status,2
  8659  00201A  B4D8               	goto	u3751
  8660  00201C  EF12  F010         	goto	u3750
  8661  002020  EF14  F010         
  8662                           u3751:
  8663  002024                     	goto	l3243
  8664  002024  EF30  F010         u3750:
  8665  002028                     	line	122
  8666                           	
  8667                           l3235:; BSR set to: 0
  8668  002028                     
  8669                           	bsf	(0+(0/8)+(___fldiv@grs))&0ffh,(0)&7
  8670  002028  81A4               	goto	l3243
  8671  00202A  EF30  F010         	line	123
  8672                           	
  8673                           l805:; BSR set to: 0
  8674  00202E                     
  8675                           	line	126
  8676                           	goto	l3243
  8677  00202E  EF30  F010         	
  8678                           l807:; BSR set to: 0
  8679  002032                     
  8680                           	line	127
  8681                           	
  8682                           l3237:; BSR set to: 0
  8683  002032                     
  8684                           	bcf	status,0
  8685  002032  90D8               	rlcf	((___fldiv@b))&0ffh
  8686  002034  3791               	rlcf	((___fldiv@b+1))&0ffh
  8687  002036  3792               	rlcf	((___fldiv@b+2))&0ffh
  8688  002038  3793               	rlcf	((___fldiv@b+3))&0ffh
  8689  00203A  3794               	line	128
  8690                           	
  8691                           l3239:; BSR set to: 0
  8692  00203C                     
  8693                           	
  8694                           	btfss	((___fldiv@grs+3))&0ffh,(31)&7
  8695  00203C  AFA7               	goto	u3761
  8696  00203E  EF23  F010         	goto	u3760
  8697  002042  EF25  F010         u3761:
  8698  002046                     	goto	l808
  8699  002046  EF26  F010         u3760:
  8700  00204A                     	line	129
  8701                           	
  8702                           l3241:; BSR set to: 0
  8703  00204A                     
  8704                           	bsf	(0+(0/8)+(___fldiv@b))&0ffh,(0)&7
  8705  00204A  8191               	line	130
  8706                           	
  8707                           l808:; BSR set to: 0
  8708  00204C                     
  8709                           	line	131
  8710                           	bcf	status,0
  8711  00204C  90D8               	rlcf	((___fldiv@grs))&0ffh
  8712  00204E  37A4               	rlcf	((___fldiv@grs+1))&0ffh
  8713  002050  37A5               	rlcf	((___fldiv@grs+2))&0ffh
  8714  002052  37A6               	rlcf	((___fldiv@grs+3))&0ffh
  8715  002054  37A7               	line	132
  8716                           	decf	((___fldiv@new_exp))&0ffh
  8717  002056  07A2               	btfss	status,0
  8718  002058  A0D8               	decf	((___fldiv@new_exp+1))&0ffh
  8719  00205A  07A3               	goto	l3243
  8720  00205C  EF30  F010         	line	133
  8721                           	
  8722                           l806:; BSR set to: 0
  8723  002060                     
  8724                           	line	126
  8725                           	
  8726                           l3243:; BSR set to: 0
  8727  002060                     
  8728                           	
  8729                           	btfss	((___fldiv@b+2))&0ffh,(23)&7
  8730  002060  AF93               	goto	u3771
  8731  002062  EF35  F010         	goto	u3770
  8732  002066  EF37  F010         u3771:
  8733  00206A                     	goto	l3237
  8734  00206A  EF19  F010         u3770:
  8735  00206E                     	goto	l3245
  8736  00206E  EF39  F010         	
  8737                           l809:; BSR set to: 0
  8738  002072                     
  8739                           	line	138
  8740                           	
  8741                           l3245:; BSR set to: 0
  8742  002072                     
  8743                           	movlw	low(0)
  8744  002072  0E00               	movwf	((___fldiv@aexp))&0ffh
  8745  002074  6FA9               	line	139
  8746                           	
  8747                           l3247:; BSR set to: 0
  8748  002076                     
  8749                           	
  8750                           	btfss	((___fldiv@grs+3))&0ffh,(31)&7
  8751  002076  AFA7               	goto	u3781
  8752  002078  EF40  F010         	goto	u3780
  8753  00207C  EF42  F010         u3781:
  8754  002080                     	goto	l810
  8755  002080  EF6A  F010         u3780:
  8756  002084                     	line	140
  8757                           	
  8758                           l3249:; BSR set to: 0
  8759  002084                     
  8760                           	movlw	0FFh
  8761  002084  0EFF               	andwf	((___fldiv@grs))&0ffh,w
  8762  002086  15A4               	movwf	(??___fldiv+0+0)&0ffh
  8763  002088  6F99               	movlw	0FFh
  8764  00208A  0EFF               	andwf	((___fldiv@grs+1))&0ffh,w
  8765  00208C  15A5               	movwf	1+(??___fldiv+0+0)&0ffh
  8766  00208E  6F9A               	
  8767                           	movlw	0FFh
  8768  002090  0EFF               	andwf	((___fldiv@grs+2))&0ffh,w
  8769  002092  15A6               	movwf	2+(??___fldiv+0+0)&0ffh
  8770  002094  6F9B               	
  8771                           	movlw	07Fh
  8772  002096  0E7F               	andwf	((___fldiv@grs+3))&0ffh,w
  8773  002098  15A7               	movwf	3+(??___fldiv+0+0)&0ffh
  8774  00209A  6F9C               	movf	(??___fldiv+0+0)&0ffh,w
  8775  00209C  5199               iorwf	(??___fldiv+0+1)&0ffh,w
  8776  00209E  119A               iorwf	(??___fldiv+0+2)&0ffh,w
  8777  0020A0  119B               iorwf	(??___fldiv+0+3)&0ffh,w
  8778  0020A2  119C               	btfsc	status,2
  8779  0020A4  B4D8               	goto	u3791
  8780  0020A6  EF57  F010         	goto	u3790
  8781  0020AA  EF59  F010         
  8782                           u3791:
  8783  0020AE                     	goto	l811
  8784  0020AE  EF5D  F010         u3790:
  8785  0020B2                     	line	141
  8786                           	
  8787                           l3251:; BSR set to: 0
  8788  0020B2                     
  8789                           	movlw	low(01h)
  8790  0020B2  0E01               	movwf	((___fldiv@aexp))&0ffh
  8791  0020B4  6FA9               	line	142
  8792                           	goto	l810
  8793  0020B6  EF6A  F010         	line	143
  8794                           	
  8795                           l811:; BSR set to: 0
  8796  0020BA                     
  8797                           	line	144
  8798                           	
  8799                           	btfss	((___fldiv@b))&0ffh,(0)&7
  8800  0020BA  A191               	goto	u3801
  8801  0020BC  EF62  F010         	goto	u3800
  8802  0020C0  EF64  F010         u3801:
  8803  0020C4                     	goto	l810
  8804  0020C4  EF6A  F010         u3800:
  8805  0020C8                     	line	145
  8806                           	
  8807                           l3253:; BSR set to: 0
  8808  0020C8                     
  8809                           	movlw	low(01h)
  8810  0020C8  0E01               	movwf	((___fldiv@aexp))&0ffh
  8811  0020CA  6FA9               	goto	l810
  8812  0020CC  EF6A  F010         	line	146
  8813                           	
  8814                           l813:; BSR set to: 0
  8815  0020D0                     
  8816                           	goto	l810
  8817  0020D0  EF6A  F010         	line	147
  8818                           	
  8819                           l812:; BSR set to: 0
  8820  0020D4                     
  8821                           	line	148
  8822                           	
  8823                           l810:; BSR set to: 0
  8824  0020D4                     
  8825                           	line	149
  8826                           	movf	((___fldiv@aexp))&0ffh,w
  8827  0020D4  51A9               	btfsc	status,2
  8828  0020D6  B4D8               	goto	u3811
  8829  0020D8  EF70  F010         	goto	u3810
  8830  0020DC  EF72  F010         u3811:
  8831  0020E0                     	goto	l3263
  8832  0020E0  EF9A  F010         u3810:
  8833  0020E4                     	line	150
  8834                           	
  8835                           l3255:; BSR set to: 0
  8836  0020E4                     
  8837                           	movlw	low(01h)
  8838  0020E4  0E01               	addwf	((___fldiv@b))&0ffh
  8839  0020E6  2791               	movlw	0
  8840  0020E8  0E00               	addwfc	((___fldiv@b+1))&0ffh
  8841  0020EA  2392               	addwfc	((___fldiv@b+2))&0ffh
  8842  0020EC  2393               	addwfc	((___fldiv@b+3))&0ffh
  8843  0020EE  2394               	line	151
  8844                           	
  8845                           l3257:; BSR set to: 0
  8846  0020F0                     
  8847                           	
  8848                           	btfss	((___fldiv@b+3))&0ffh,(24)&7
  8849  0020F0  A194               	goto	u3821
  8850  0020F2  EF7D  F010         	goto	u3820
  8851  0020F6  EF7F  F010         u3821:
  8852  0020FA                     	goto	l3263
  8853  0020FA  EF9A  F010         u3820:
  8854  0020FE                     	line	152
  8855                           	
  8856                           l3259:; BSR set to: 0
  8857  0020FE                     
  8858                           	movff	(___fldiv@b),??___fldiv+0+0
  8859  0020FE  C091  F099         	movff	(___fldiv@b+1),??___fldiv+0+0+1
  8860  002102  C092  F09A         	movff	(___fldiv@b+2),??___fldiv+0+0+2
  8861  002106  C093  F09B         	movff	(___fldiv@b+3),??___fldiv+0+0+3
  8862  00210A  C094  F09C         	rlcf	(??___fldiv+0+3)&0ffh,w
  8863  00210E  359C               	rrcf	(??___fldiv+0+3)&0ffh
  8864  002110  339C               	rrcf	(??___fldiv+0+2)&0ffh
  8865  002112  339B               	rrcf	(??___fldiv+0+1)&0ffh
  8866  002114  339A               	rrcf	(??___fldiv+0+0)&0ffh
  8867  002116  3399               	movff	??___fldiv+0+0,(___fldiv@b)
  8868  002118  C099  F091         	movff	??___fldiv+0+1,(___fldiv@b+1)
  8869  00211C  C09A  F092         	movff	??___fldiv+0+2,(___fldiv@b+2)
  8870  002120  C09B  F093         	movff	??___fldiv+0+3,(___fldiv@b+3)
  8871  002124  C09C  F094         	line	153
  8872                           	
  8873                           l3261:; BSR set to: 0
  8874  002128                     
  8875                           	infsnz	((___fldiv@new_exp))&0ffh
  8876  002128  4BA2               	incf	((___fldiv@new_exp+1))&0ffh
  8877  00212A  2BA3               	goto	l3263
  8878  00212C  EF9A  F010         	line	154
  8879                           	
  8880                           l815:; BSR set to: 0
  8881  002130                     
  8882                           	goto	l3263
  8883  002130  EF9A  F010         	line	155
  8884                           	
  8885                           l814:; BSR set to: 0
  8886  002134                     
  8887                           	line	158
  8888                           	
  8889                           l3263:; BSR set to: 0
  8890  002134                     
  8891                           	btfsc	((___fldiv@new_exp+1))&0ffh,7
  8892  002134  BFA3               	goto	u3831
  8893  002136  EFA5  F010         	movf	((___fldiv@new_exp+1))&0ffh,w
  8894  00213A  51A3               	bnz	u3830
  8895  00213C  E108               	incf	((___fldiv@new_exp))&0ffh,w
  8896  00213E  29A2               	btfss	status,0
  8897  002140  A0D8               	goto	u3831
  8898  002142  EFA5  F010         	goto	u3830
  8899  002146  EFA7  F010         
  8900                           u3831:
  8901  00214A                     	goto	l3267
  8902  00214A  EFB4  F010         u3830:
  8903  00214E                     	line	159
  8904                           	
  8905                           l3265:; BSR set to: 0
  8906  00214E                     
  8907                           	movlw	high(0FFh)
  8908  00214E  0E00               	movwf	((___fldiv@new_exp+1))&0ffh
  8909  002150  6FA3               	setf	((___fldiv@new_exp))&0ffh
  8910  002152  69A2               	line	160
  8911                           	movlw	low(0)
  8912  002154  0E00               	movwf	((___fldiv@b))&0ffh
  8913  002156  6F91               	movlw	high(0)
  8914  002158  0E00               	movwf	((___fldiv@b+1))&0ffh
  8915  00215A  6F92               	movlw	low highword(0)
  8916  00215C  0E00               	movwf	((___fldiv@b+2))&0ffh
  8917  00215E  6F93               	movlw	high highword(0)
  8918  002160  0E00               	movwf	((___fldiv@b+3))&0ffh
  8919  002162  6F94               	goto	l3267
  8920  002164  EFB4  F010         	line	161
  8921                           	
  8922                           l816:; BSR set to: 0
  8923  002168                     
  8924                           	line	164
  8925                           	
  8926                           l3267:; BSR set to: 0
  8927  002168                     
  8928                           	btfsc	((___fldiv@new_exp+1))&0ffh,7
  8929  002168  BFA3               	goto	u3840
  8930  00216A  EFC1  F010         	movf	((___fldiv@new_exp+1))&0ffh,w
  8931  00216E  51A3               	bnz	u3841
  8932  002170  E106               	decf	((___fldiv@new_exp))&0ffh,w
  8933  002172  05A2               	btfsc	status,0
  8934  002174  B0D8               	goto	u3841
  8935  002176  EFBF  F010         	goto	u3840
  8936  00217A  EFC1  F010         
  8937                           u3841:
  8938  00217E                     	goto	l3271
  8939  00217E  EFD1  F010         u3840:
  8940  002182                     	line	165
  8941                           	
  8942                           l3269:; BSR set to: 0
  8943  002182                     
  8944                           	movlw	high(0)
  8945  002182  0E00               	movwf	((___fldiv@new_exp+1))&0ffh
  8946  002184  6FA3               	movlw	low(0)
  8947  002186  0E00               	movwf	((___fldiv@new_exp))&0ffh
  8948  002188  6FA2               	line	166
  8949                           	movlw	low(0)
  8950  00218A  0E00               	movwf	((___fldiv@b))&0ffh
  8951  00218C  6F91               	movlw	high(0)
  8952  00218E  0E00               	movwf	((___fldiv@b+1))&0ffh
  8953  002190  6F92               	movlw	low highword(0)
  8954  002192  0E00               	movwf	((___fldiv@b+2))&0ffh
  8955  002194  6F93               	movlw	high highword(0)
  8956  002196  0E00               	movwf	((___fldiv@b+3))&0ffh
  8957  002198  6F94               	line	168
  8958                           	movlw	low(0)
  8959  00219A  0E00               	movwf	((___fldiv@sign))&0ffh
  8960  00219C  6F9D               	goto	l3271
  8961  00219E  EFD1  F010         	line	169
  8962                           	
  8963                           l817:; BSR set to: 0
  8964  0021A2                     
  8965                           	line	172
  8966                           	
  8967                           l3271:; BSR set to: 0
  8968  0021A2                     
  8969                           	movff	(___fldiv@new_exp),(___fldiv@bexp)
  8970  0021A2  C0A2  F0A8         	line	174
  8971                           	
  8972                           l3273:; BSR set to: 0
  8973  0021A6                     
  8974                           	
  8975                           	btfss	((___fldiv@bexp))&0ffh,(0)&7
  8976  0021A6  A1A8               	goto	u3851
  8977  0021A8  EFD8  F010         	goto	u3850
  8978  0021AC  EFDA  F010         u3851:
  8979  0021B0                     	goto	l3277
  8980  0021B0  EFDD  F010         u3850:
  8981  0021B4                     	line	175
  8982                           	
  8983                           l3275:; BSR set to: 0
  8984  0021B4                     
  8985                           	bsf	(0+(7/8)+0+(___fldiv@b+02h))&0ffh,(7)&7
  8986  0021B4  8F93               	line	176
  8987                           	goto	l3279
  8988  0021B6  EFE0  F010         	line	178
  8989                           	
  8990                           l818:; BSR set to: 0
  8991  0021BA                     
  8992                           	line	179
  8993                           	
  8994                           l3277:; BSR set to: 0
  8995  0021BA                     
  8996                           	bcf	(0+(7/8)+0+(___fldiv@b+02h))&0ffh,(7)&7
  8997  0021BA  9F93               	goto	l3279
  8998  0021BC  EFE0  F010         	line	180
  8999                           	
  9000                           l819:; BSR set to: 0
  9001  0021C0                     
  9002                           	line	181
  9003                           	
  9004                           l3279:; BSR set to: 0
  9005  0021C0                     
  9006                           	bcf	status,0
  9007  0021C0  90D8               	rrcf	((___fldiv@bexp))&0ffh,w
  9008  0021C2  31A8               	movwf	(0+(___fldiv@b+03h))&0ffh
  9009  0021C4  6F94               	line	182
  9010                           	
  9011                           l3281:; BSR set to: 0
  9012  0021C6                     
  9013                           	movf	((___fldiv@sign))&0ffh,w
  9014  0021C6  519D               	iorwf	(0+(___fldiv@b+03h))&0ffh
  9015  0021C8  1394               	line	183
  9016                           	
  9017                           l3283:; BSR set to: 0
  9018  0021CA                     
  9019                           	movff	(___fldiv@b),(?___fldiv)
  9020  0021CA  C091  F091         	movff	(___fldiv@b+1),(?___fldiv+1)
  9021  0021CE  C092  F092         	movff	(___fldiv@b+2),(?___fldiv+2)
  9022  0021D2  C093  F093         	movff	(___fldiv@b+3),(?___fldiv+3)
  9023  0021D6  C094  F094         	goto	l797
  9024  0021DA  EFEF  F010         	
  9025                           l3285:; BSR set to: 0
  9026  0021DE                     
  9027                           	line	184
  9028                           	
  9029                           l797:; BSR set to: 0
  9030  0021DE                     
  9031                           	return	;funcret
  9032  0021DE  0012               	opt stack 0
  9033                           GLOBAL	__end_of___fldiv
  9034                           	__end_of___fldiv:
  9035  0021E0                     	signat	___fldiv,8316
  9036                           	global	___fltol
  9037                           
  9038 ;; *************** function ___fltol *****************
  9039 ;; Defined at:
  9040 ;;		line 43 in file "/Applications/microchip/xc8/v1.45/sources/common/fltol.c"
  9041 ;; Parameters:    Size  Location     Type
  9042 ;;  f1              4   74[BANK0 ] unsigned char 
  9043 ;; Auto vars:     Size  Location     Type
  9044 ;;  exp1            1   83[BANK0 ] unsigned char 
  9045 ;;  sign1           1   82[BANK0 ] unsigned char 
  9046 ;; Return value:  Size  Location     Type
  9047 ;;                  4   74[BANK0 ] long 
  9048 ;; Registers used:
  9049 ;;		wreg, status,2, status,0
  9050 ;; Tracked objects:
  9051 ;;		On entry : 0/0
  9052 ;;		On exit  : 0/0
  9053 ;;		Unchanged: 0/0
  9054 ;; Data sizes:     COMRAM   BANK0   BANK1   BANK2   BANK3   BANK4   BANK5   BANK6   BANK7
  9055 ;;      Params:         0       4       0       0       0       0       0       0       0
  9056 ;;      Locals:         0       2       0       0       0       0       0       0       0
  9057 ;;      Temps:          0       4       0       0       0       0       0       0       0
  9058 ;;      Totals:         0      10       0       0       0       0       0       0       0
  9059 ;;Total ram usage:       10 bytes
  9060 ;; Hardware stack levels used:    1
  9061 ;; Hardware stack levels required when called:    2
  9062 ;; This function calls:
  9063 ;;		Nothing
  9064 ;; This function is called by:
  9065 ;;		_main
  9066 ;; This function uses a non-reentrant model
  9067 ;;
  9068                           psect	text16,class=CODE,space=0,reloc=2,group=1
  9069                           	file	"/Applications/microchip/xc8/v1.45/sources/common/fltol.c"
  9070                           	line	43
  9071                           global __ptext16
  9072                           __ptext16:
  9073  00288C                     psect	text16
  9074                           	file	"/Applications/microchip/xc8/v1.45/sources/common/fltol.c"
  9075                           	line	43
  9076                           	global	__size_of___fltol
  9077                           	__size_of___fltol	equ	__end_of___fltol-___fltol
  9078  0000                     	
  9079                           ___fltol:; BSR set to: 0
  9080  00288C                     
  9081                           ;incstack = 0
  9082                           	opt	stack 28
  9083                           	line	47
  9084                           	
  9085                           l4089:
  9086  00288C                     	movlb	0	; () banked
  9087  00288C  0100               	rlcf	((___fltol@f1+2))&0ffh,w
  9088  00288E  35AC               	rlcf	((___fltol@f1+3))&0ffh,w
  9089  002890  35AD               	movwf	((___fltol@exp1))&0ffh
  9090  002892  6FB3               	movf	((___fltol@exp1))&0ffh,w
  9091  002894  51B3               	btfss	status,2
  9092  002896  A4D8               	goto	u5211
  9093  002898  EF50  F014         	goto	u5210
  9094  00289C  EF52  F014         u5211:
  9095  0028A0                     	goto	l4095
  9096  0028A0  EF5E  F014         u5210:
  9097  0028A4                     	line	48
  9098                           	
  9099                           l4091:; BSR set to: 0
  9100  0028A4                     
  9101                           	movlw	low(0)
  9102  0028A4  0E00               	movwf	((?___fltol))&0ffh
  9103  0028A6  6FAA               	movlw	high(0)
  9104  0028A8  0E00               	movwf	((?___fltol+1))&0ffh
  9105  0028AA  6FAB               	movlw	low highword(0)
  9106  0028AC  0E00               	movwf	((?___fltol+2))&0ffh
  9107  0028AE  6FAC               	movlw	high highword(0)
  9108  0028B0  0E00               	movwf	((?___fltol+3))&0ffh
  9109  0028B2  6FAD               	goto	l524
  9110  0028B4  EFEF  F014         	
  9111                           l4093:; BSR set to: 0
  9112  0028B8                     
  9113                           	goto	l524
  9114  0028B8  EFEF  F014         	
  9115                           l523:; BSR set to: 0
  9116  0028BC                     
  9117                           	line	49
  9118                           	
  9119                           l4095:; BSR set to: 0
  9120  0028BC                     
  9121                           	movff	(___fltol@f1),??___fltol+0+0
  9122  0028BC  C0AA  F0AE         	movff	(___fltol@f1+1),??___fltol+0+0+1
  9123  0028C0  C0AB  F0AF         	movff	(___fltol@f1+2),??___fltol+0+0+2
  9124  0028C4  C0AC  F0B0         	movff	(___fltol@f1+3),??___fltol+0+0+3
  9125  0028C8  C0AD  F0B1         	movlw	01Fh+1
  9126  0028CC  0E20               	goto	u5220
  9127  0028CE  EF6E  F014         u5225:
  9128  0028D2                     	bcf	status,0
  9129  0028D2  90D8               	rrcf	(??___fltol+0+3)&0ffh
  9130  0028D4  33B1               	rrcf	(??___fltol+0+2)&0ffh
  9131  0028D6  33B0               	rrcf	(??___fltol+0+1)&0ffh
  9132  0028D8  33AF               	rrcf	(??___fltol+0+0)&0ffh
  9133  0028DA  33AE               u5220:
  9134  0028DC                     	decfsz	wreg
  9135  0028DC  2EE8               	goto	u5225
  9136  0028DE  EF69  F014         	movf	(??___fltol+0+0)&0ffh,w
  9137  0028E2  51AE               	movwf	((___fltol@sign1))&0ffh
  9138  0028E4  6FB2               	line	50
  9139                           	
  9140                           l4097:; BSR set to: 0
  9141  0028E6                     
  9142                           	bsf	(0+(23/8)+(___fltol@f1))&0ffh,(23)&7
  9143  0028E6  8FAC               	line	51
  9144                           	
  9145                           l4099:; BSR set to: 0
  9146  0028E8                     
  9147                           	movlw	0FFh
  9148  0028E8  0EFF               	andwf	((___fltol@f1))&0ffh
  9149  0028EA  17AA               	movlw	0FFh
  9150  0028EC  0EFF               	andwf	((___fltol@f1+1))&0ffh
  9151  0028EE  17AB               	movlw	0FFh
  9152  0028F0  0EFF               	andwf	((___fltol@f1+2))&0ffh
  9153  0028F2  17AC               	movlw	0
  9154  0028F4  0E00               	andwf	((___fltol@f1+3))&0ffh
  9155  0028F6  17AD               	line	52
  9156                           	
  9157                           l4101:; BSR set to: 0
  9158  0028F8                     
  9159                           	movlw	(096h)&0ffh
  9160  0028F8  0E96               	subwf	((___fltol@exp1))&0ffh
  9161  0028FA  5FB3               	line	53
  9162                           	
  9163                           l4103:; BSR set to: 0
  9164  0028FC                     
  9165                           	btfsc	((___fltol@exp1))&0ffh,7
  9166  0028FC  BFB3               	goto	u5230
  9167  0028FE  EF85  F014         	goto	u5231
  9168  002902  EF83  F014         
  9169                           u5231:
  9170  002906                     	goto	l4115
  9171  002906  EFA9  F014         u5230:
  9172  00290A                     	line	54
  9173                           	
  9174                           l4105:; BSR set to: 0
  9175  00290A                     
  9176                           		movf	((___fltol@exp1))&0ffh,w
  9177  00290A  51B3               	xorlw	80h
  9178  00290C  0A80               	addlw	-(80h^-23)
  9179  00290E  0F97               	btfsc	status,0
  9180  002910  B0D8               	goto	u5241
  9181  002912  EF8D  F014         	goto	u5240
  9182  002916  EF8F  F014         
  9183                           u5241:
  9184  00291A                     	goto	l4111
  9185  00291A  EF9D  F014         u5240:
  9186  00291E                     	line	55
  9187                           	
  9188                           l4107:; BSR set to: 0
  9189  00291E                     
  9190                           	movlw	low(0)
  9191  00291E  0E00               	movwf	((?___fltol))&0ffh
  9192  002920  6FAA               	movlw	high(0)
  9193  002922  0E00               	movwf	((?___fltol+1))&0ffh
  9194  002924  6FAB               	movlw	low highword(0)
  9195  002926  0E00               	movwf	((?___fltol+2))&0ffh
  9196  002928  6FAC               	movlw	high highword(0)
  9197  00292A  0E00               	movwf	((?___fltol+3))&0ffh
  9198  00292C  6FAD               	goto	l524
  9199  00292E  EFEF  F014         	
  9200                           l4109:; BSR set to: 0
  9201  002932                     
  9202                           	goto	l524
  9203  002932  EFEF  F014         	
  9204                           l526:; BSR set to: 0
  9205  002936                     
  9206                           	goto	l4111
  9207  002936  EF9D  F014         	line	56
  9208                           	
  9209                           l527:; BSR set to: 0
  9210  00293A                     
  9211                           	line	57
  9212                           	
  9213                           l4111:; BSR set to: 0
  9214  00293A                     
  9215                           	bcf	status,0
  9216  00293A  90D8               	rrcf	((___fltol@f1+3))&0ffh
  9217  00293C  33AD               	rrcf	((___fltol@f1+2))&0ffh
  9218  00293E  33AC               	rrcf	((___fltol@f1+1))&0ffh
  9219  002940  33AB               	rrcf	((___fltol@f1))&0ffh
  9220  002942  33AA               	line	58
  9221                           	
  9222                           l4113:; BSR set to: 0
  9223  002944                     
  9224                           	incfsz	((___fltol@exp1))&0ffh
  9225  002944  3FB3               	
  9226                           	goto	l4111
  9227  002946  EF9D  F014         	goto	l4125
  9228  00294A  EFD3  F014         	
  9229                           l528:; BSR set to: 0
  9230  00294E                     
  9231                           	line	59
  9232                           	goto	l4125
  9233  00294E  EFD3  F014         	
  9234                           l525:; BSR set to: 0
  9235  002952                     
  9236                           	line	60
  9237                           	
  9238                           l4115:; BSR set to: 0
  9239  002952                     
  9240                           		movlw	020h-1
  9241  002952  0E1F               	cpfsgt	((___fltol@exp1))&0ffh
  9242  002954  65B3               	goto	u5251
  9243  002956  EFAF  F014         	goto	u5250
  9244  00295A  EFB1  F014         
  9245                           u5251:
  9246  00295E                     	goto	l4123
  9247  00295E  EFC7  F014         u5250:
  9248  002962                     	line	61
  9249                           	
  9250                           l4117:; BSR set to: 0
  9251  002962                     
  9252                           	movlw	low(0)
  9253  002962  0E00               	movwf	((?___fltol))&0ffh
  9254  002964  6FAA               	movlw	high(0)
  9255  002966  0E00               	movwf	((?___fltol+1))&0ffh
  9256  002968  6FAB               	movlw	low highword(0)
  9257  00296A  0E00               	movwf	((?___fltol+2))&0ffh
  9258  00296C  6FAC               	movlw	high highword(0)
  9259  00296E  0E00               	movwf	((?___fltol+3))&0ffh
  9260  002970  6FAD               	goto	l524
  9261  002972  EFEF  F014         	
  9262                           l4119:; BSR set to: 0
  9263  002976                     
  9264                           	goto	l524
  9265  002976  EFEF  F014         	
  9266                           l530:; BSR set to: 0
  9267  00297A                     
  9268                           	line	62
  9269                           	goto	l4123
  9270  00297A  EFC7  F014         	
  9271                           l532:; BSR set to: 0
  9272  00297E                     
  9273                           	line	63
  9274                           	
  9275                           l4121:; BSR set to: 0
  9276  00297E                     
  9277                           	bcf	status,0
  9278  00297E  90D8               	rlcf	((___fltol@f1))&0ffh
  9279  002980  37AA               	rlcf	((___fltol@f1+1))&0ffh
  9280  002982  37AB               	rlcf	((___fltol@f1+2))&0ffh
  9281  002984  37AC               	rlcf	((___fltol@f1+3))&0ffh
  9282  002986  37AD               	line	64
  9283                           	decf	((___fltol@exp1))&0ffh
  9284  002988  07B3               	goto	l4123
  9285  00298A  EFC7  F014         	line	65
  9286                           	
  9287                           l531:; BSR set to: 0
  9288  00298E                     
  9289                           	line	62
  9290                           	
  9291                           l4123:; BSR set to: 0
  9292  00298E                     
  9293                           	movf	((___fltol@exp1))&0ffh,w
  9294  00298E  51B3               	btfss	status,2
  9295  002990  A4D8               	goto	u5261
  9296  002992  EFCD  F014         	goto	u5260
  9297  002996  EFCF  F014         u5261:
  9298  00299A                     	goto	l4121
  9299  00299A  EFBF  F014         u5260:
  9300  00299E                     	goto	l4125
  9301  00299E  EFD3  F014         	
  9302                           l533:; BSR set to: 0
  9303  0029A2                     
  9304                           	goto	l4125
  9305  0029A2  EFD3  F014         	line	66
  9306                           	
  9307                           l529:; BSR set to: 0
  9308  0029A6                     
  9309                           	line	67
  9310                           	
  9311                           l4125:; BSR set to: 0
  9312  0029A6                     
  9313                           	movf	((___fltol@sign1))&0ffh,w
  9314  0029A6  51B2               	btfsc	status,2
  9315  0029A8  B4D8               	goto	u5271
  9316  0029AA  EFD9  F014         	goto	u5270
  9317  0029AE  EFDB  F014         u5271:
  9318  0029B2                     	goto	l4129
  9319  0029B2  EFE5  F014         u5270:
  9320  0029B6                     	line	68
  9321                           	
  9322                           l4127:; BSR set to: 0
  9323  0029B6                     
  9324                           	comf	((___fltol@f1+3))&0ffh
  9325  0029B6  1FAD               	comf	((___fltol@f1+2))&0ffh
  9326  0029B8  1FAC               	comf	((___fltol@f1+1))&0ffh
  9327  0029BA  1FAB               	negf	((___fltol@f1))&0ffh
  9328  0029BC  6DAA               	movlw	0
  9329  0029BE  0E00               	addwfc	((___fltol@f1+1))&0ffh
  9330  0029C0  23AB               	addwfc	((___fltol@f1+2))&0ffh
  9331  0029C2  23AC               	addwfc	((___fltol@f1+3))&0ffh
  9332  0029C4  23AD               	goto	l4129
  9333  0029C6  EFE5  F014         	
  9334                           l534:; BSR set to: 0
  9335  0029CA                     
  9336                           	line	69
  9337                           	
  9338                           l4129:; BSR set to: 0
  9339  0029CA                     
  9340                           	movff	(___fltol@f1),(?___fltol)
  9341  0029CA  C0AA  F0AA         	movff	(___fltol@f1+1),(?___fltol+1)
  9342  0029CE  C0AB  F0AB         	movff	(___fltol@f1+2),(?___fltol+2)
  9343  0029D2  C0AC  F0AC         	movff	(___fltol@f1+3),(?___fltol+3)
  9344  0029D6  C0AD  F0AD         	goto	l524
  9345  0029DA  EFEF  F014         	
  9346                           l4131:; BSR set to: 0
  9347  0029DE                     
  9348                           	line	70
  9349                           	
  9350                           l524:; BSR set to: 0
  9351  0029DE                     
  9352                           	return	;funcret
  9353  0029DE  0012               	opt stack 0
  9354                           GLOBAL	__end_of___fltol
  9355                           	__end_of___fltol:
  9356  0029E0                     	signat	___fltol,4220
  9357                           	global	___fladd
  9358                           
  9359 ;; *************** function ___fladd *****************
  9360 ;; Defined at:
  9361 ;;		line 10 in file "/Applications/microchip/xc8/v1.45/sources/common/sprcadd.c"
  9362 ;; Parameters:    Size  Location     Type
  9363 ;;  b               4    4[BANK0 ] long 
  9364 ;;  a               4    8[BANK0 ] long 
  9365 ;; Auto vars:     Size  Location     Type
  9366 ;;  grs             1   23[BANK0 ] unsigned char 
  9367 ;;  bexp            1   22[BANK0 ] unsigned char 
  9368 ;;  aexp            1   21[BANK0 ] unsigned char 
  9369 ;;  signs           1   20[BANK0 ] unsigned char 
  9370 ;; Return value:  Size  Location     Type
  9371 ;;                  4    4[BANK0 ] unsigned char 
  9372 ;; Registers used:
  9373 ;;		wreg, status,2, status,0
  9374 ;; Tracked objects:
  9375 ;;		On entry : 0/0
  9376 ;;		On exit  : 0/0
  9377 ;;		Unchanged: 0/0
  9378 ;; Data sizes:     COMRAM   BANK0   BANK1   BANK2   BANK3   BANK4   BANK5   BANK6   BANK7
  9379 ;;      Params:         0       8       0       0       0       0       0       0       0
  9380 ;;      Locals:         0       4       0       0       0       0       0       0       0
  9381 ;;      Temps:          0       8       0       0       0       0       0       0       0
  9382 ;;      Totals:         0      20       0       0       0       0       0       0       0
  9383 ;;Total ram usage:       20 bytes
  9384 ;; Hardware stack levels used:    1
  9385 ;; Hardware stack levels required when called:    2
  9386 ;; This function calls:
  9387 ;;		Nothing
  9388 ;; This function is called by:
  9389 ;;		_main
  9390 ;; This function uses a non-reentrant model
  9391 ;;
  9392                           psect	text17,class=CODE,space=0,reloc=2,group=1
  9393                           	file	"/Applications/microchip/xc8/v1.45/sources/common/sprcadd.c"
  9394                           	line	10
  9395                           global __ptext17
  9396                           __ptext17:
  9397  000E7E                     psect	text17
  9398                           	file	"/Applications/microchip/xc8/v1.45/sources/common/sprcadd.c"
  9399                           	line	10
  9400                           	global	__size_of___fladd
  9401                           	__size_of___fladd	equ	__end_of___fladd-___fladd
  9402  0000                     	
  9403                           ___fladd:; BSR set to: 0
  9404  000E7E                     
  9405                           ;incstack = 0
  9406                           	opt	stack 28
  9407                           	line	21
  9408                           	
  9409                           l3887:
  9410  000E7E                     	movlb	0	; () banked
  9411  000E7E  0100               	movf	(0+(___fladd@b+03h))&0ffh,w
  9412  000E80  5167               	andlw	low(080h)
  9413  000E82  0B80               	movwf	((___fladd@signs))&0ffh
  9414  000E84  6F74               	line	22
  9415                           	movf	(0+(___fladd@b+03h))&0ffh,w
  9416  000E86  5167               	addwf	(0+(___fladd@b+03h))&0ffh,w
  9417  000E88  2567               	movwf	((___fladd@bexp))&0ffh
  9418  000E8A  6F76               	line	23
  9419                           	
  9420                           l3889:; BSR set to: 0
  9421  000E8C                     
  9422                           	
  9423                           	btfss	(0+(___fladd@b+02h))&0ffh,(7)&7
  9424  000E8C  AF66               	goto	u4821
  9425  000E8E  EF4B  F007         	goto	u4820
  9426  000E92  EF4D  F007         u4821:
  9427  000E96                     	goto	l3893
  9428  000E96  EF50  F007         u4820:
  9429  000E9A                     	line	24
  9430                           	
  9431                           l3891:; BSR set to: 0
  9432  000E9A                     
  9433                           	bsf	(0+(0/8)+(___fladd@bexp))&0ffh,(0)&7
  9434  000E9A  8176               	goto	l3893
  9435  000E9C  EF50  F007         	line	25
  9436                           	
  9437                           l731:; BSR set to: 0
  9438  000EA0                     
  9439                           	line	28
  9440                           	
  9441                           l3893:; BSR set to: 0
  9442  000EA0                     
  9443                           	movf	((___fladd@bexp))&0ffh,w
  9444  000EA0  5176               	btfsc	status,2
  9445  000EA2  B4D8               	goto	u4831
  9446  000EA4  EF56  F007         	goto	u4830
  9447  000EA8  EF58  F007         u4831:
  9448  000EAC                     	goto	l3903
  9449  000EAC  EF6F  F007         u4830:
  9450  000EB0                     	line	30
  9451                           	
  9452                           l3895:; BSR set to: 0
  9453  000EB0                     
  9454                           		incf	((___fladd@bexp))&0ffh,w
  9455  000EB0  2976               	btfss	status,2
  9456  000EB2  A4D8               	goto	u4841
  9457  000EB4  EF5E  F007         	goto	u4840
  9458  000EB8  EF60  F007         
  9459                           u4841:
  9460  000EBC                     	goto	l3899
  9461  000EBC  EF6A  F007         u4840:
  9462  000EC0                     	line	32
  9463                           	
  9464                           l3897:; BSR set to: 0
  9465  000EC0                     
  9466                           	movlw	low(normalize32(0.0000000000000000))
  9467  000EC0  0E00               	movwf	((___fladd@b))&0ffh
  9468  000EC2  6F64               	movlw	high(normalize32(0.0000000000000000))
  9469  000EC4  0E00               	movwf	((___fladd@b+1))&0ffh
  9470  000EC6  6F65               	movlw	low highword(normalize32(0.0000000000000000))
  9471  000EC8  0E00               	movwf	((___fladd@b+2))&0ffh
  9472  000ECA  6F66               	movlw	high highword(normalize32(0.0000000000000000))
  9473  000ECC  0E00               	movwf	((___fladd@b+3))&0ffh
  9474  000ECE  6F67               	goto	l3899
  9475  000ED0  EF6A  F007         	line	33
  9476                           	
  9477                           l733:; BSR set to: 0
  9478  000ED4                     
  9479                           	line	35
  9480                           	
  9481                           l3899:; BSR set to: 0
  9482  000ED4                     
  9483                           	bsf	(0+(23/8)+(___fladd@b))&0ffh,(23)&7
  9484  000ED4  8F66               	line	37
  9485                           	
  9486                           l3901:; BSR set to: 0
  9487  000ED6                     
  9488                           	movlw	low(0)
  9489  000ED6  0E00               	movwf	(0+(___fladd@b+03h))&0ffh
  9490  000ED8  6F67               	line	38
  9491                           	goto	l3905
  9492  000EDA  EF79  F007         	line	39
  9493                           	
  9494                           l732:; BSR set to: 0
  9495  000EDE                     
  9496                           	line	41
  9497                           	
  9498                           l3903:; BSR set to: 0
  9499  000EDE                     
  9500                           	movlw	low(normalize32(0.0000000000000000))
  9501  000EDE  0E00               	movwf	((___fladd@b))&0ffh
  9502  000EE0  6F64               	movlw	high(normalize32(0.0000000000000000))
  9503  000EE2  0E00               	movwf	((___fladd@b+1))&0ffh
  9504  000EE4  6F65               	movlw	low highword(normalize32(0.0000000000000000))
  9505  000EE6  0E00               	movwf	((___fladd@b+2))&0ffh
  9506  000EE8  6F66               	movlw	high highword(normalize32(0.0000000000000000))
  9507  000EEA  0E00               	movwf	((___fladd@b+3))&0ffh
  9508  000EEC  6F67               	goto	l3905
  9509  000EEE  EF79  F007         	line	42
  9510                           	
  9511                           l734:; BSR set to: 0
  9512  000EF2                     
  9513                           	line	44
  9514                           	
  9515                           l3905:; BSR set to: 0
  9516  000EF2                     
  9517                           	movf	(0+(___fladd@a+03h))&0ffh,w
  9518  000EF2  516B               	andlw	low(080h)
  9519  000EF4  0B80               	movwf	((___fladd@aexp))&0ffh
  9520  000EF6  6F75               	line	46
  9521                           	
  9522                           l3907:; BSR set to: 0
  9523  000EF8                     
  9524                           	movf	((___fladd@signs))&0ffh,w
  9525  000EF8  5174               xorwf	((___fladd@aexp))&0ffh,w
  9526  000EFA  1975               	btfsc	status,2
  9527  000EFC  B4D8               	goto	u4851
  9528  000EFE  EF83  F007         	goto	u4850
  9529  000F02  EF85  F007         
  9530                           u4851:
  9531  000F06                     	goto	l3911
  9532  000F06  EF88  F007         u4850:
  9533  000F0A                     	line	47
  9534                           	
  9535                           l3909:; BSR set to: 0
  9536  000F0A                     
  9537                           	bsf	(0+(6/8)+(___fladd@signs))&0ffh,(6)&7
  9538  000F0A  8D74               	goto	l3911
  9539  000F0C  EF88  F007         	line	48
  9540                           	
  9541                           l735:; BSR set to: 0
  9542  000F10                     
  9543                           	line	49
  9544                           	
  9545                           l3911:; BSR set to: 0
  9546  000F10                     
  9547                           	movf	(0+(___fladd@a+03h))&0ffh,w
  9548  000F10  516B               	addwf	(0+(___fladd@a+03h))&0ffh,w
  9549  000F12  256B               	movwf	((___fladd@aexp))&0ffh
  9550  000F14  6F75               	line	50
  9551                           	
  9552                           l3913:; BSR set to: 0
  9553  000F16                     
  9554                           	
  9555                           	btfss	(0+(___fladd@a+02h))&0ffh,(7)&7
  9556  000F16  AF6A               	goto	u4861
  9557  000F18  EF90  F007         	goto	u4860
  9558  000F1C  EF92  F007         u4861:
  9559  000F20                     	goto	l3917
  9560  000F20  EF95  F007         u4860:
  9561  000F24                     	line	51
  9562                           	
  9563                           l3915:; BSR set to: 0
  9564  000F24                     
  9565                           	bsf	(0+(0/8)+(___fladd@aexp))&0ffh,(0)&7
  9566  000F24  8175               	goto	l3917
  9567  000F26  EF95  F007         	line	52
  9568                           	
  9569                           l736:; BSR set to: 0
  9570  000F2A                     
  9571                           	line	55
  9572                           	
  9573                           l3917:; BSR set to: 0
  9574  000F2A                     
  9575                           	movf	((___fladd@aexp))&0ffh,w
  9576  000F2A  5175               	btfsc	status,2
  9577  000F2C  B4D8               	goto	u4871
  9578  000F2E  EF9B  F007         	goto	u4870
  9579  000F32  EF9D  F007         u4871:
  9580  000F36                     	goto	l3927
  9581  000F36  EFB4  F007         u4870:
  9582  000F3A                     	line	57
  9583                           	
  9584                           l3919:; BSR set to: 0
  9585  000F3A                     
  9586                           		incf	((___fladd@aexp))&0ffh,w
  9587  000F3A  2975               	btfss	status,2
  9588  000F3C  A4D8               	goto	u4881
  9589  000F3E  EFA3  F007         	goto	u4880
  9590  000F42  EFA5  F007         
  9591                           u4881:
  9592  000F46                     	goto	l3923
  9593  000F46  EFAF  F007         u4880:
  9594  000F4A                     	line	59
  9595                           	
  9596                           l3921:; BSR set to: 0
  9597  000F4A                     
  9598                           	movlw	low(normalize32(0.0000000000000000))
  9599  000F4A  0E00               	movwf	((___fladd@a))&0ffh
  9600  000F4C  6F68               	movlw	high(normalize32(0.0000000000000000))
  9601  000F4E  0E00               	movwf	((___fladd@a+1))&0ffh
  9602  000F50  6F69               	movlw	low highword(normalize32(0.0000000000000000))
  9603  000F52  0E00               	movwf	((___fladd@a+2))&0ffh
  9604  000F54  6F6A               	movlw	high highword(normalize32(0.0000000000000000))
  9605  000F56  0E00               	movwf	((___fladd@a+3))&0ffh
  9606  000F58  6F6B               	goto	l3923
  9607  000F5A  EFAF  F007         	line	60
  9608                           	
  9609                           l738:; BSR set to: 0
  9610  000F5E                     
  9611                           	line	62
  9612                           	
  9613                           l3923:; BSR set to: 0
  9614  000F5E                     
  9615                           	bsf	(0+(23/8)+(___fladd@a))&0ffh,(23)&7
  9616  000F5E  8F6A               	line	64
  9617                           	
  9618                           l3925:; BSR set to: 0
  9619  000F60                     
  9620                           	movlw	low(0)
  9621  000F60  0E00               	movwf	(0+(___fladd@a+03h))&0ffh
  9622  000F62  6F6B               	line	65
  9623                           	goto	l3929
  9624  000F64  EFBE  F007         	line	66
  9625                           	
  9626                           l737:; BSR set to: 0
  9627  000F68                     
  9628                           	line	68
  9629                           	
  9630                           l3927:; BSR set to: 0
  9631  000F68                     
  9632                           	movlw	low(normalize32(0.0000000000000000))
  9633  000F68  0E00               	movwf	((___fladd@a))&0ffh
  9634  000F6A  6F68               	movlw	high(normalize32(0.0000000000000000))
  9635  000F6C  0E00               	movwf	((___fladd@a+1))&0ffh
  9636  000F6E  6F69               	movlw	low highword(normalize32(0.0000000000000000))
  9637  000F70  0E00               	movwf	((___fladd@a+2))&0ffh
  9638  000F72  6F6A               	movlw	high highword(normalize32(0.0000000000000000))
  9639  000F74  0E00               	movwf	((___fladd@a+3))&0ffh
  9640  000F76  6F6B               	goto	l3929
  9641  000F78  EFBE  F007         	line	69
  9642                           	
  9643                           l739:; BSR set to: 0
  9644  000F7C                     
  9645                           	line	75
  9646                           	
  9647                           l3929:; BSR set to: 0
  9648  000F7C                     
  9649                           		movf	((___fladd@bexp))&0ffh,w
  9650  000F7C  5176               	subwf	((___fladd@aexp))&0ffh,w
  9651  000F7E  5D75               	btfsc	status,0
  9652  000F80  B0D8               	goto	u4891
  9653  000F82  EFC5  F007         	goto	u4890
  9654  000F86  EFC7  F007         
  9655                           u4891:
  9656  000F8A                     	goto	l3965
  9657  000F8A  EFF2  F007         u4890:
  9658  000F8E                     	line	77
  9659                           	
  9660                           l3931:; BSR set to: 0
  9661  000F8E                     
  9662                           	
  9663                           	btfss	((___fladd@signs))&0ffh,(6)&7
  9664  000F8E  AD74               	goto	u4901
  9665  000F90  EFCC  F007         	goto	u4900
  9666  000F94  EFCE  F007         u4901:
  9667  000F98                     	goto	l3935
  9668  000F98  EFD2  F007         u4900:
  9669  000F9C                     	line	78
  9670                           	
  9671                           l3933:; BSR set to: 0
  9672  000F9C                     
  9673                           	movlw	(080h)&0ffh
  9674  000F9C  0E80               	xorwf	((___fladd@signs))&0ffh
  9675  000F9E  1B74               	goto	l3935
  9676  000FA0  EFD2  F007         	line	79
  9677                           	
  9678                           l741:; BSR set to: 0
  9679  000FA4                     
  9680                           	line	81
  9681                           	
  9682                           l3935:; BSR set to: 0
  9683  000FA4                     
  9684                           	movff	(___fladd@bexp),(___fladd@grs)
  9685  000FA4  C076  F077         	line	82
  9686                           	
  9687                           l3937:; BSR set to: 0
  9688  000FA8                     
  9689                           	movff	(___fladd@aexp),(___fladd@bexp)
  9690  000FA8  C075  F076         	line	83
  9691                           	
  9692                           l3939:; BSR set to: 0
  9693  000FAC                     
  9694                           	movff	(___fladd@grs),(___fladd@aexp)
  9695  000FAC  C077  F075         	line	84
  9696                           	
  9697                           l3941:; BSR set to: 0
  9698  000FB0                     
  9699                           	movff	(___fladd@b),(___fladd@grs)
  9700  000FB0  C064  F077         	line	85
  9701                           	
  9702                           l3943:; BSR set to: 0
  9703  000FB4                     
  9704                           	movff	(___fladd@a),(___fladd@b)
  9705  000FB4  C068  F064         	line	86
  9706                           	
  9707                           l3945:; BSR set to: 0
  9708  000FB8                     
  9709                           	movff	(___fladd@grs),(___fladd@a)
  9710  000FB8  C077  F068         	line	87
  9711                           	
  9712                           l3947:; BSR set to: 0
  9713  000FBC                     
  9714                           	movff	0+(___fladd@b+01h),(___fladd@grs)
  9715  000FBC  C065  F077         	line	88
  9716                           	
  9717                           l3949:; BSR set to: 0
  9718  000FC0                     
  9719                           	movff	0+(___fladd@a+01h),0+(___fladd@b+01h)
  9720  000FC0  C069  F065         	line	89
  9721                           	
  9722                           l3951:; BSR set to: 0
  9723  000FC4                     
  9724                           	movff	(___fladd@grs),0+(___fladd@a+01h)
  9725  000FC4  C077  F069         	line	90
  9726                           	
  9727                           l3953:; BSR set to: 0
  9728  000FC8                     
  9729                           	movff	0+(___fladd@b+02h),(___fladd@grs)
  9730  000FC8  C066  F077         	line	91
  9731                           	
  9732                           l3955:; BSR set to: 0
  9733  000FCC                     
  9734                           	movff	0+(___fladd@a+02h),0+(___fladd@b+02h)
  9735  000FCC  C06A  F066         	line	92
  9736                           	
  9737                           l3957:; BSR set to: 0
  9738  000FD0                     
  9739                           	movff	(___fladd@grs),0+(___fladd@a+02h)
  9740  000FD0  C077  F06A         	line	93
  9741                           	
  9742                           l3959:; BSR set to: 0
  9743  000FD4                     
  9744                           	movff	0+(___fladd@b+03h),(___fladd@grs)
  9745  000FD4  C067  F077         	line	94
  9746                           	
  9747                           l3961:; BSR set to: 0
  9748  000FD8                     
  9749                           	movff	0+(___fladd@a+03h),0+(___fladd@b+03h)
  9750  000FD8  C06B  F067         	line	95
  9751                           	
  9752                           l3963:; BSR set to: 0
  9753  000FDC                     
  9754                           	movff	(___fladd@grs),0+(___fladd@a+03h)
  9755  000FDC  C077  F06B         	goto	l3965
  9756  000FE0  EFF2  F007         	line	96
  9757                           	
  9758                           l740:; BSR set to: 0
  9759  000FE4                     
  9760                           	line	98
  9761                           	
  9762                           l3965:; BSR set to: 0
  9763  000FE4                     
  9764                           	movlw	low(0)
  9765  000FE4  0E00               	movwf	((___fladd@grs))&0ffh
  9766  000FE6  6F77               	line	100
  9767                           	
  9768                           l3967:; BSR set to: 0
  9769  000FE8                     
  9770                           	movf	((___fladd@bexp))&0ffh,w
  9771  000FE8  5176               	movwf	(??___fladd+0+0)&0ffh
  9772  000FEA  6F6C               	clrf	(??___fladd+0+0+1)&0ffh
  9773  000FEC  6B6D               
  9774                           	comf	(??___fladd+0+0)&0ffh
  9775  000FEE  1F6C               	comf	(??___fladd+0+1)&0ffh
  9776  000FF0  1F6D               	infsnz	(??___fladd+0+0)&0ffh
  9777  000FF2  4B6C               	incf	(??___fladd+0+1)&0ffh
  9778  000FF4  2B6D               	movf	((___fladd@aexp))&0ffh,w
  9779  000FF6  5175               	movwf	(??___fladd+2+0)&0ffh
  9780  000FF8  6F6E               	clrf	(??___fladd+2+0+1)&0ffh
  9781  000FFA  6B6F               
  9782                           	movf	(??___fladd+0+0)&0ffh,w
  9783  000FFC  516C               	addwf	(??___fladd+2+0)&0ffh
  9784  000FFE  276E               	movf	(??___fladd+0+1)&0ffh,w
  9785  001000  516D               	addwfc	(??___fladd+2+1)&0ffh
  9786  001002  236F               	btfsc	(??___fladd+2+1)&0ffh,7
  9787  001004  BF6F               	goto	u4911
  9788  001006  EF0E  F008         	movf	(??___fladd+2+1)&0ffh,w
  9789  00100A  516F               	bnz	u4910
  9790  00100C  E109               	movlw	26
  9791  00100E  0E1A               	subwf	 (??___fladd+2+0)&0ffh,w
  9792  001010  5D6E               	btfss	status,0
  9793  001012  A0D8               	goto	u4911
  9794  001014  EF0E  F008         	goto	u4910
  9795  001018  EF10  F008         
  9796                           u4911:
  9797  00101C                     	goto	l744
  9798  00101C  EF4D  F008         u4910:
  9799  001020                     	line	101
  9800                           	
  9801                           l3969:; BSR set to: 0
  9802  001020                     
  9803                           	movf	((___fladd@b))&0ffh,w
  9804  001020  5164               iorwf	((___fladd@b+1))&0ffh,w
  9805  001022  1165               iorwf	((___fladd@b+2))&0ffh,w
  9806  001024  1166               iorwf	((___fladd@b+3))&0ffh,w
  9807  001026  1167               	btfss	status,2
  9808  001028  A4D8               	goto	u4921
  9809  00102A  EF19  F008         	goto	u4920
  9810  00102E  EF1C  F008         
  9811                           u4921:
  9812  001032                     	movlw	1
  9813  001032  0E01               	goto	u4930
  9814  001034  EF1D  F008         u4920:
  9815  001038                     	movlw	0
  9816  001038  0E00               u4930:
  9817  00103A                     	movwf	((___fladd@grs))&0ffh
  9818  00103A  6F77               	line	102
  9819                           	
  9820                           l3971:; BSR set to: 0
  9821  00103C                     
  9822                           	movlw	low(0)
  9823  00103C  0E00               	movwf	((___fladd@b))&0ffh
  9824  00103E  6F64               	movlw	high(0)
  9825  001040  0E00               	movwf	((___fladd@b+1))&0ffh
  9826  001042  6F65               	movlw	low highword(0)
  9827  001044  0E00               	movwf	((___fladd@b+2))&0ffh
  9828  001046  6F66               	movlw	high highword(0)
  9829  001048  0E00               	movwf	((___fladd@b+3))&0ffh
  9830  00104A  6F67               	line	103
  9831                           	
  9832                           l3973:; BSR set to: 0
  9833  00104C                     
  9834                           	movff	(___fladd@aexp),(___fladd@bexp)
  9835  00104C  C075  F076         	line	104
  9836                           	goto	l743
  9837  001050  EF58  F008         	line	105
  9838                           	
  9839                           l742:; BSR set to: 0
  9840  001054                     
  9841                           	line	106
  9842                           	goto	l744
  9843  001054  EF4D  F008         	
  9844                           l745:; BSR set to: 0
  9845  001058                     
  9846                           	line	109
  9847                           	
  9848                           	btfss	((___fladd@grs))&0ffh,(0)&7
  9849  001058  A177               	goto	u4941
  9850  00105A  EF31  F008         	goto	u4940
  9851  00105E  EF33  F008         u4941:
  9852  001062                     	goto	l3977
  9853  001062  EF39  F008         u4940:
  9854  001066                     	line	110
  9855                           	
  9856                           l3975:; BSR set to: 0
  9857  001066                     
  9858                           	bcf	status,0
  9859  001066  90D8               	rrcf	((___fladd@grs))&0ffh,w
  9860  001068  3177               	iorlw	low(01h)
  9861  00106A  0901               	movwf	((___fladd@grs))&0ffh
  9862  00106C  6F77               	line	111
  9863                           	goto	l3979
  9864  00106E  EF3D  F008         	line	112
  9865                           	
  9866                           l746:; BSR set to: 0
  9867  001072                     
  9868                           	line	113
  9869                           	
  9870                           l3977:; BSR set to: 0
  9871  001072                     
  9872                           	bcf status,0
  9873  001072  90D8               	rrcf	((___fladd@grs))&0ffh
  9874  001074  3377               
  9875                           	goto	l3979
  9876  001076  EF3D  F008         	line	114
  9877                           	
  9878                           l747:; BSR set to: 0
  9879  00107A                     
  9880                           	line	115
  9881                           	
  9882                           l3979:; BSR set to: 0
  9883  00107A                     
  9884                           	
  9885                           	btfss	((___fladd@b))&0ffh,(0)&7
  9886  00107A  A164               	goto	u4951
  9887  00107C  EF42  F008         	goto	u4950
  9888  001080  EF44  F008         u4951:
  9889  001084                     	goto	l3983
  9890  001084  EF47  F008         u4950:
  9891  001088                     	line	116
  9892                           	
  9893                           l3981:; BSR set to: 0
  9894  001088                     
  9895                           	bsf	(0+(7/8)+(___fladd@grs))&0ffh,(7)&7
  9896  001088  8F77               	goto	l3983
  9897  00108A  EF47  F008         	line	117
  9898                           	
  9899                           l748:; BSR set to: 0
  9900  00108E                     
  9901                           	line	118
  9902                           	
  9903                           l3983:; BSR set to: 0
  9904  00108E                     
  9905                           	rlcf	((___fladd@b+3))&0ffh,w
  9906  00108E  3567               	rrcf	((___fladd@b+3))&0ffh
  9907  001090  3367               	rrcf	((___fladd@b+2))&0ffh
  9908  001092  3366               	rrcf	((___fladd@b+1))&0ffh
  9909  001094  3365               	rrcf	((___fladd@b))&0ffh
  9910  001096  3364               	line	119
  9911                           	
  9912                           l3985:; BSR set to: 0
  9913  001098                     
  9914                           	incf	((___fladd@bexp))&0ffh
  9915  001098  2B76               	line	120
  9916                           	
  9917                           l744:; BSR set to: 0
  9918  00109A                     
  9919                           	line	106
  9920                           		movf	((___fladd@aexp))&0ffh,w
  9921  00109A  5175               	subwf	((___fladd@bexp))&0ffh,w
  9922  00109C  5D76               	btfss	status,0
  9923  00109E  A0D8               	goto	u4961
  9924  0010A0  EF54  F008         	goto	u4960
  9925  0010A4  EF56  F008         
  9926                           u4961:
  9927  0010A8                     	goto	l745
  9928  0010A8  EF2C  F008         u4960:
  9929  0010AC                     	goto	l743
  9930  0010AC  EF58  F008         	
  9931                           l749:; BSR set to: 0
  9932  0010B0                     
  9933                           	line	121
  9934                           	
  9935                           l743:; BSR set to: 0
  9936  0010B0                     
  9937                           	line	124
  9938                           	
  9939                           	btfsc	((___fladd@signs))&0ffh,(6)&7
  9940  0010B0  BD74               	goto	u4971
  9941  0010B2  EF5D  F008         	goto	u4970
  9942  0010B6  EF5F  F008         u4971:
  9943  0010BA                     	goto	l4011
  9944  0010BA  EFA8  F008         u4970:
  9945  0010BE                     	line	127
  9946                           	
  9947                           l3987:; BSR set to: 0
  9948  0010BE                     
  9949                           	movf	((___fladd@bexp))&0ffh,w
  9950  0010BE  5176               	btfss	status,2
  9951  0010C0  A4D8               	goto	u4981
  9952  0010C2  EF65  F008         	goto	u4980
  9953  0010C6  EF67  F008         u4981:
  9954  0010CA                     	goto	l3993
  9955  0010CA  EF73  F008         u4980:
  9956  0010CE                     	line	128
  9957                           	
  9958                           l3989:; BSR set to: 0
  9959  0010CE                     
  9960                           	movlw	low(normalize32(0.0000000000000000))
  9961  0010CE  0E00               	movwf	((?___fladd))&0ffh
  9962  0010D0  6F64               	movlw	high(normalize32(0.0000000000000000))
  9963  0010D2  0E00               	movwf	((?___fladd+1))&0ffh
  9964  0010D4  6F65               	movlw	low highword(normalize32(0.0000000000000000))
  9965  0010D6  0E00               	movwf	((?___fladd+2))&0ffh
  9966  0010D8  6F66               	movlw	high highword(normalize32(0.0000000000000000))
  9967  0010DA  0E00               	movwf	((?___fladd+3))&0ffh
  9968  0010DC  6F67               	goto	l752
  9969  0010DE  EF02  F00A         	
  9970                           l3991:; BSR set to: 0
  9971  0010E2                     
  9972                           	goto	l752
  9973  0010E2  EF02  F00A         	line	129
  9974                           	
  9975                           l751:; BSR set to: 0
  9976  0010E6                     
  9977                           	line	132
  9978                           	
  9979                           l3993:; BSR set to: 0
  9980  0010E6                     
  9981                           	movf	((___fladd@a))&0ffh,w
  9982  0010E6  5168               	addwf	((___fladd@b))&0ffh
  9983  0010E8  2764               	movf	((___fladd@a+1))&0ffh,w
  9984  0010EA  5169               	addwfc	((___fladd@b+1))&0ffh
  9985  0010EC  2365               	movf	((___fladd@a+2))&0ffh,w
  9986  0010EE  516A               	addwfc	((___fladd@b+2))&0ffh
  9987  0010F0  2366               	movf	((___fladd@a+3))&0ffh,w
  9988  0010F2  516B               	addwfc	((___fladd@b+3))&0ffh
  9989  0010F4  2367               	line	134
  9990                           	
  9991                           l3995:; BSR set to: 0
  9992  0010F6                     
  9993                           	
  9994                           	btfss	((___fladd@b+3))&0ffh,(24)&7
  9995  0010F6  A167               	goto	u4991
  9996  0010F8  EF80  F008         	goto	u4990
  9997  0010FC  EF82  F008         u4991:
  9998  001100                     	goto	l4047
  9999  001100  EF58  F009         u4990:
 10000  001104                     	line	135
 10001                           	
 10002                           l3997:; BSR set to: 0
 10003  001104                     
 10004                           	
 10005                           	btfss	((___fladd@grs))&0ffh,(0)&7
 10006  001104  A177               	goto	u5001
 10007  001106  EF87  F008         	goto	u5000
 10008  00110A  EF89  F008         u5001:
 10009  00110E                     	goto	l4001
 10010  00110E  EF90  F008         u5000:
 10011  001112                     	line	136
 10012                           	
 10013                           l3999:; BSR set to: 0
 10014  001112                     
 10015                           	bcf status,0
 10016  001112  90D8               	rrcf	((___fladd@grs))&0ffh
 10017  001114  3377               
 10018                           	movf	((___fladd@grs))&0ffh,w
 10019  001116  5177               	iorlw	low(01h)
 10020  001118  0901               	movwf	((___fladd@grs))&0ffh
 10021  00111A  6F77               	line	137
 10022                           	goto	l4003
 10023  00111C  EF94  F008         	line	138
 10024                           	
 10025                           l754:; BSR set to: 0
 10026  001120                     
 10027                           	line	139
 10028                           	
 10029                           l4001:; BSR set to: 0
 10030  001120                     
 10031                           	bcf status,0
 10032  001120  90D8               	rrcf	((___fladd@grs))&0ffh
 10033  001122  3377               
 10034                           	goto	l4003
 10035  001124  EF94  F008         	line	140
 10036                           	
 10037                           l755:; BSR set to: 0
 10038  001128                     
 10039                           	line	141
 10040                           	
 10041                           l4003:; BSR set to: 0
 10042  001128                     
 10043                           	
 10044                           	btfss	((___fladd@b))&0ffh,(0)&7
 10045  001128  A164               	goto	u5011
 10046  00112A  EF99  F008         	goto	u5010
 10047  00112E  EF9B  F008         u5011:
 10048  001132                     	goto	l4007
 10049  001132  EF9E  F008         u5010:
 10050  001136                     	line	142
 10051                           	
 10052                           l4005:; BSR set to: 0
 10053  001136                     
 10054                           	bsf	(0+(7/8)+(___fladd@grs))&0ffh,(7)&7
 10055  001136  8F77               	goto	l4007
 10056  001138  EF9E  F008         	line	143
 10057                           	
 10058                           l756:; BSR set to: 0
 10059  00113C                     
 10060                           	line	144
 10061                           	
 10062                           l4007:; BSR set to: 0
 10063  00113C                     
 10064                           	rlcf	((___fladd@b+3))&0ffh,w
 10065  00113C  3567               	rrcf	((___fladd@b+3))&0ffh
 10066  00113E  3367               	rrcf	((___fladd@b+2))&0ffh
 10067  001140  3366               	rrcf	((___fladd@b+1))&0ffh
 10068  001142  3365               	rrcf	((___fladd@b))&0ffh
 10069  001144  3364               	line	145
 10070                           	
 10071                           l4009:; BSR set to: 0
 10072  001146                     
 10073                           	incf	((___fladd@bexp))&0ffh
 10074  001146  2B76               	goto	l4047
 10075  001148  EF58  F009         	line	146
 10076                           	
 10077                           l753:; BSR set to: 0
 10078  00114C                     
 10079                           	line	148
 10080                           	goto	l4047
 10081  00114C  EF58  F009         	line	149
 10082                           	
 10083                           l750:; BSR set to: 0
 10084  001150                     
 10085                           	line	153
 10086                           	
 10087                           l4011:; BSR set to: 0
 10088  001150                     
 10089                           		movf	((___fladd@a))&0ffh,w
 10090  001150  5168               	subwf	((___fladd@b))&0ffh,w
 10091  001152  5D64               	movf	((___fladd@a+1))&0ffh,w
 10092  001154  5169               	subwfb	((___fladd@b+1))&0ffh,w
 10093  001156  5965               	movf	((___fladd@a+2))&0ffh,w
 10094  001158  516A               	subwfb	((___fladd@b+2))&0ffh,w
 10095  00115A  5966               	movf	((___fladd@b+3))&0ffh,w
 10096  00115C  5167               	xorlw	80h
 10097  00115E  0A80               	movwf	(??___fladd+0+0)&0ffh
 10098  001160  6F6C               	movf	((___fladd@a+3))&0ffh,w
 10099  001162  516B               	xorlw	80h
 10100  001164  0A80               	subwfb	(??___fladd+0+0)&0ffh,w
 10101  001166  596C               	btfsc	status,0
 10102  001168  B0D8               	goto	u5021
 10103  00116A  EFB9  F008         	goto	u5020
 10104  00116E  EFBB  F008         
 10105                           u5021:
 10106  001172                     	goto	l4021
 10107  001172  EFF9  F008         u5020:
 10108  001176                     	line	154
 10109                           	
 10110                           l4013:; BSR set to: 0
 10111  001176                     
 10112                           	movff	(___fladd@b),??___fladd+0+0
 10113  001176  C064  F06C         	movff	(___fladd@b+1),??___fladd+0+0+1
 10114  00117A  C065  F06D         	movff	(___fladd@b+2),??___fladd+0+0+2
 10115  00117E  C066  F06E         	movff	(___fladd@b+3),??___fladd+0+0+3
 10116  001182  C067  F06F         	comf	(??___fladd+0+0)&0ffh
 10117  001186  1F6C               	comf	(??___fladd+0+1)&0ffh
 10118  001188  1F6D               	comf	(??___fladd+0+2)&0ffh
 10119  00118A  1F6E               	comf	(??___fladd+0+3)&0ffh
 10120  00118C  1F6F               	incf	(??___fladd+0+0)&0ffh
 10121  00118E  2B6C               	movlw	0
 10122  001190  0E00               	addwfc	(??___fladd+0+1)&0ffh
 10123  001192  236D               	addwfc	(??___fladd+0+2)&0ffh
 10124  001194  236E               	addwfc	(??___fladd+0+3)&0ffh
 10125  001196  236F               	movf	((___fladd@a))&0ffh,w
 10126  001198  5168               	addwf	(??___fladd+0+0)&0ffh,w
 10127  00119A  256C               	movwf	(??___fladd+4+0)&0ffh
 10128  00119C  6F70               	movf	((___fladd@a+1))&0ffh,w
 10129  00119E  5169               	addwfc	(??___fladd+0+1)&0ffh,w
 10130  0011A0  216D               	movwf	1+(??___fladd+4+0)&0ffh
 10131  0011A2  6F71               	
 10132                           	movf	((___fladd@a+2))&0ffh,w
 10133  0011A4  516A               	addwfc	(??___fladd+0+2)&0ffh,w
 10134  0011A6  216E               	movwf	2+(??___fladd+4+0)&0ffh
 10135  0011A8  6F72               	
 10136                           	movf	((___fladd@a+3))&0ffh,w
 10137  0011AA  516B               	addwfc	(??___fladd+0+3)&0ffh,w
 10138  0011AC  216F               	movwf	3+(??___fladd+4+0)&0ffh
 10139  0011AE  6F73               	movlw	0FFh
 10140  0011B0  0EFF               	addwf	(??___fladd+4+0)&0ffh,w
 10141  0011B2  2570               	movwf	((___fladd@b))&0ffh
 10142  0011B4  6F64               	movlw	0FFh
 10143  0011B6  0EFF               	addwfc	(??___fladd+4+1)&0ffh,w
 10144  0011B8  2171               	movwf	1+((___fladd@b))&0ffh
 10145  0011BA  6F65               	
 10146                           	movlw	0FFh
 10147  0011BC  0EFF               	addwfc	(??___fladd+4+2)&0ffh,w
 10148  0011BE  2172               	movwf	2+((___fladd@b))&0ffh
 10149  0011C0  6F66               	
 10150                           	movlw	0FFh
 10151  0011C2  0EFF               	addwfc	(??___fladd+4+3)&0ffh,w
 10152  0011C4  2173               	movwf	3+((___fladd@b))&0ffh
 10153  0011C6  6F67               	line	155
 10154                           	movlw	(080h)&0ffh
 10155  0011C8  0E80               	xorwf	((___fladd@signs))&0ffh
 10156  0011CA  1B74               	line	156
 10157                           	
 10158                           l4015:; BSR set to: 0
 10159  0011CC                     
 10160                           	negf	((___fladd@grs))&0ffh
 10161  0011CC  6D77               	line	157
 10162                           	
 10163                           l4017:; BSR set to: 0
 10164  0011CE                     
 10165                           	movf	((___fladd@grs))&0ffh,w
 10166  0011CE  5177               	btfss	status,2
 10167  0011D0  A4D8               	goto	u5031
 10168  0011D2  EFED  F008         	goto	u5030
 10169  0011D6  EFEF  F008         u5031:
 10170  0011DA                     	goto	l760
 10171  0011DA  EF01  F009         u5030:
 10172  0011DE                     	line	158
 10173                           	
 10174                           l4019:; BSR set to: 0
 10175  0011DE                     
 10176                           	movlw	low(01h)
 10177  0011DE  0E01               	addwf	((___fladd@b))&0ffh
 10178  0011E0  2764               	movlw	0
 10179  0011E2  0E00               	addwfc	((___fladd@b+1))&0ffh
 10180  0011E4  2365               	addwfc	((___fladd@b+2))&0ffh
 10181  0011E6  2366               	addwfc	((___fladd@b+3))&0ffh
 10182  0011E8  2367               	goto	l760
 10183  0011EA  EF01  F009         	line	159
 10184                           	
 10185                           l759:; BSR set to: 0
 10186  0011EE                     
 10187                           	line	160
 10188                           	goto	l760
 10189  0011EE  EF01  F009         	line	161
 10190                           	
 10191                           l758:; BSR set to: 0
 10192  0011F2                     
 10193                           	line	162
 10194                           	
 10195                           l4021:; BSR set to: 0
 10196  0011F2                     
 10197                           	movf	((___fladd@a))&0ffh,w
 10198  0011F2  5168               	subwf	((___fladd@b))&0ffh
 10199  0011F4  5F64               	movf	((___fladd@a+1))&0ffh,w
 10200  0011F6  5169               	subwfb	((___fladd@b+1))&0ffh
 10201  0011F8  5B65               	movf	((___fladd@a+2))&0ffh,w
 10202  0011FA  516A               	subwfb	((___fladd@b+2))&0ffh
 10203  0011FC  5B66               	movf	((___fladd@a+3))&0ffh,w
 10204  0011FE  516B               	subwfb	((___fladd@b+3))&0ffh
 10205  001200  5B67               	line	163
 10206                           	
 10207                           l760:; BSR set to: 0
 10208  001202                     
 10209                           	line	166
 10210                           	movf	((___fladd@b))&0ffh,w
 10211  001202  5164               iorwf	((___fladd@b+1))&0ffh,w
 10212  001204  1165               iorwf	((___fladd@b+2))&0ffh,w
 10213  001206  1166               iorwf	((___fladd@b+3))&0ffh,w
 10214  001208  1167               	btfss	status,2
 10215  00120A  A4D8               	goto	u5041
 10216  00120C  EF0A  F009         	goto	u5040
 10217  001210  EF0C  F009         
 10218                           u5041:
 10219  001214                     	goto	l4045
 10220  001214  EF4D  F009         u5040:
 10221  001218                     	
 10222                           l4023:; BSR set to: 0
 10223  001218                     
 10224                           	movf	((___fladd@grs))&0ffh,w
 10225  001218  5177               	btfss	status,2
 10226  00121A  A4D8               	goto	u5051
 10227  00121C  EF12  F009         	goto	u5050
 10228  001220  EF14  F009         u5051:
 10229  001224                     	goto	l4045
 10230  001224  EF4D  F009         u5050:
 10231  001228                     	line	167
 10232                           	
 10233                           l4025:; BSR set to: 0
 10234  001228                     
 10235                           	movlw	low(normalize32(0.0000000000000000))
 10236  001228  0E00               	movwf	((?___fladd))&0ffh
 10237  00122A  6F64               	movlw	high(normalize32(0.0000000000000000))
 10238  00122C  0E00               	movwf	((?___fladd+1))&0ffh
 10239  00122E  6F65               	movlw	low highword(normalize32(0.0000000000000000))
 10240  001230  0E00               	movwf	((?___fladd+2))&0ffh
 10241  001232  6F66               	movlw	high highword(normalize32(0.0000000000000000))
 10242  001234  0E00               	movwf	((?___fladd+3))&0ffh
 10243  001236  6F67               	goto	l752
 10244  001238  EF02  F00A         	
 10245                           l4027:; BSR set to: 0
 10246  00123C                     
 10247                           	goto	l752
 10248  00123C  EF02  F00A         	line	168
 10249                           	
 10250                           l761:; BSR set to: 0
 10251  001240                     
 10252                           	line	171
 10253                           	goto	l4045
 10254  001240  EF4D  F009         	
 10255                           l763:; BSR set to: 0
 10256  001244                     
 10257                           	line	172
 10258                           	
 10259                           l4029:; BSR set to: 0
 10260  001244                     
 10261                           	bcf	status,0
 10262  001244  90D8               	rlcf	((___fladd@b))&0ffh
 10263  001246  3764               	rlcf	((___fladd@b+1))&0ffh
 10264  001248  3765               	rlcf	((___fladd@b+2))&0ffh
 10265  00124A  3766               	rlcf	((___fladd@b+3))&0ffh
 10266  00124C  3767               	line	173
 10267                           	
 10268                           l4031:; BSR set to: 0
 10269  00124E                     
 10270                           	
 10271                           	btfss	((___fladd@grs))&0ffh,(7)&7
 10272  00124E  AF77               	goto	u5061
 10273  001250  EF2C  F009         	goto	u5060
 10274  001254  EF2E  F009         u5061:
 10275  001258                     	goto	l4035
 10276  001258  EF31  F009         u5060:
 10277  00125C                     	line	174
 10278                           	
 10279                           l4033:; BSR set to: 0
 10280  00125C                     
 10281                           	bsf	(0+(0/8)+(___fladd@b))&0ffh,(0)&7
 10282  00125C  8164               	goto	l4035
 10283  00125E  EF31  F009         	line	175
 10284                           	
 10285                           l764:; BSR set to: 0
 10286  001262                     
 10287                           	line	176
 10288                           	
 10289                           l4035:; BSR set to: 0
 10290  001262                     
 10291                           	
 10292                           	btfss	((___fladd@grs))&0ffh,(0)&7
 10293  001262  A177               	goto	u5071
 10294  001264  EF36  F009         	goto	u5070
 10295  001268  EF38  F009         u5071:
 10296  00126C                     	goto	l4039
 10297  00126C  EF3C  F009         u5070:
 10298  001270                     	line	177
 10299                           	
 10300                           l4037:; BSR set to: 0
 10301  001270                     
 10302                           	bsf	status,0
 10303  001270  80D8               	
 10304                           	rlcf	((___fladd@grs))&0ffh
 10305  001272  3777               	line	178
 10306                           	goto	l4041
 10307  001274  EF40  F009         	line	179
 10308                           	
 10309                           l765:; BSR set to: 0
 10310  001278                     
 10311                           	line	180
 10312                           	
 10313                           l4039:; BSR set to: 0
 10314  001278                     
 10315                           	bcf status,0
 10316  001278  90D8               	rlcf	((___fladd@grs))&0ffh
 10317  00127A  3777               
 10318                           	goto	l4041
 10319  00127C  EF40  F009         	line	181
 10320                           	
 10321                           l766:; BSR set to: 0
 10322  001280                     
 10323                           	line	182
 10324                           	
 10325                           l4041:; BSR set to: 0
 10326  001280                     
 10327                           	movf	((___fladd@bexp))&0ffh,w
 10328  001280  5176               	btfsc	status,2
 10329  001282  B4D8               	goto	u5081
 10330  001284  EF46  F009         	goto	u5080
 10331  001288  EF48  F009         u5081:
 10332  00128C                     	goto	l4045
 10333  00128C  EF4D  F009         u5080:
 10334  001290                     	line	183
 10335                           	
 10336                           l4043:; BSR set to: 0
 10337  001290                     
 10338                           	decf	((___fladd@bexp))&0ffh
 10339  001290  0776               	goto	l4045
 10340  001292  EF4D  F009         	line	184
 10341                           	
 10342                           l767:; BSR set to: 0
 10343  001296                     
 10344                           	goto	l4045
 10345  001296  EF4D  F009         	line	185
 10346                           	
 10347                           l762:; BSR set to: 0
 10348  00129A                     
 10349                           	line	171
 10350                           	
 10351                           l4045:; BSR set to: 0
 10352  00129A                     
 10353                           	
 10354                           	btfss	((___fladd@b+2))&0ffh,(23)&7
 10355  00129A  AF66               	goto	u5091
 10356  00129C  EF52  F009         	goto	u5090
 10357  0012A0  EF54  F009         u5091:
 10358  0012A4                     	goto	l4029
 10359  0012A4  EF22  F009         u5090:
 10360  0012A8                     	goto	l4047
 10361  0012A8  EF58  F009         	
 10362                           l768:; BSR set to: 0
 10363  0012AC                     
 10364                           	goto	l4047
 10365  0012AC  EF58  F009         	line	186
 10366                           	
 10367                           l757:; BSR set to: 0
 10368  0012B0                     
 10369                           	line	192
 10370                           	
 10371                           l4047:; BSR set to: 0
 10372  0012B0                     
 10373                           	movlw	low(0)
 10374  0012B0  0E00               	movwf	((___fladd@aexp))&0ffh
 10375  0012B2  6F75               	line	193
 10376                           	
 10377                           l4049:; BSR set to: 0
 10378  0012B4                     
 10379                           	
 10380                           	btfss	((___fladd@grs))&0ffh,(7)&7
 10381  0012B4  AF77               	goto	u5101
 10382  0012B6  EF5F  F009         	goto	u5100
 10383  0012BA  EF61  F009         u5101:
 10384  0012BE                     	goto	l769
 10385  0012BE  EF7D  F009         u5100:
 10386  0012C2                     	line	194
 10387                           	
 10388                           l4051:; BSR set to: 0
 10389  0012C2                     
 10390                           	movff	(___fladd@grs),??___fladd+0+0
 10391  0012C2  C077  F06C         	movlw	07Fh
 10392  0012C6  0E7F               	andwf	(??___fladd+0+0)&0ffh
 10393  0012C8  176C               	btfsc	status,2
 10394  0012CA  B4D8               	goto	u5111
 10395  0012CC  EF6A  F009         	goto	u5110
 10396  0012D0  EF6C  F009         u5111:
 10397  0012D4                     	goto	l770
 10398  0012D4  EF70  F009         u5110:
 10399  0012D8                     	line	195
 10400                           	
 10401                           l4053:; BSR set to: 0
 10402  0012D8                     
 10403                           	movlw	low(01h)
 10404  0012D8  0E01               	movwf	((___fladd@aexp))&0ffh
 10405  0012DA  6F75               	line	196
 10406                           	goto	l769
 10407  0012DC  EF7D  F009         	line	197
 10408                           	
 10409                           l770:; BSR set to: 0
 10410  0012E0                     
 10411                           	line	198
 10412                           	
 10413                           	btfss	((___fladd@b))&0ffh,(0)&7
 10414  0012E0  A164               	goto	u5121
 10415  0012E2  EF75  F009         	goto	u5120
 10416  0012E6  EF77  F009         u5121:
 10417  0012EA                     	goto	l769
 10418  0012EA  EF7D  F009         u5120:
 10419  0012EE                     	line	199
 10420                           	
 10421                           l4055:; BSR set to: 0
 10422  0012EE                     
 10423                           	movlw	low(01h)
 10424  0012EE  0E01               	movwf	((___fladd@aexp))&0ffh
 10425  0012F0  6F75               	goto	l769
 10426  0012F2  EF7D  F009         	line	200
 10427                           	
 10428                           l772:; BSR set to: 0
 10429  0012F6                     
 10430                           	goto	l769
 10431  0012F6  EF7D  F009         	line	201
 10432                           	
 10433                           l771:; BSR set to: 0
 10434  0012FA                     
 10435                           	line	202
 10436                           	
 10437                           l769:; BSR set to: 0
 10438  0012FA                     
 10439                           	line	203
 10440                           	movf	((___fladd@aexp))&0ffh,w
 10441  0012FA  5175               	btfsc	status,2
 10442  0012FC  B4D8               	goto	u5131
 10443  0012FE  EF83  F009         	goto	u5130
 10444  001302  EF85  F009         u5131:
 10445  001306                     	goto	l4065
 10446  001306  EFB6  F009         u5130:
 10447  00130A                     	line	204
 10448                           	
 10449                           l4057:; BSR set to: 0
 10450  00130A                     
 10451                           	movlw	low(01h)
 10452  00130A  0E01               	addwf	((___fladd@b))&0ffh
 10453  00130C  2764               	movlw	0
 10454  00130E  0E00               	addwfc	((___fladd@b+1))&0ffh
 10455  001310  2365               	addwfc	((___fladd@b+2))&0ffh
 10456  001312  2366               	addwfc	((___fladd@b+3))&0ffh
 10457  001314  2367               	line	205
 10458                           	
 10459                           l4059:; BSR set to: 0
 10460  001316                     
 10461                           	
 10462                           	btfss	((___fladd@b+3))&0ffh,(24)&7
 10463  001316  A167               	goto	u5141
 10464  001318  EF90  F009         	goto	u5140
 10465  00131C  EF92  F009         u5141:
 10466  001320                     	goto	l4065
 10467  001320  EFB6  F009         u5140:
 10468  001324                     	line	206
 10469                           	
 10470                           l4061:; BSR set to: 0
 10471  001324                     
 10472                           	movff	(___fladd@b),??___fladd+0+0
 10473  001324  C064  F06C         	movff	(___fladd@b+1),??___fladd+0+0+1
 10474  001328  C065  F06D         	movff	(___fladd@b+2),??___fladd+0+0+2
 10475  00132C  C066  F06E         	movff	(___fladd@b+3),??___fladd+0+0+3
 10476  001330  C067  F06F         	rlcf	(??___fladd+0+3)&0ffh,w
 10477  001334  356F               	rrcf	(??___fladd+0+3)&0ffh
 10478  001336  336F               	rrcf	(??___fladd+0+2)&0ffh
 10479  001338  336E               	rrcf	(??___fladd+0+1)&0ffh
 10480  00133A  336D               	rrcf	(??___fladd+0+0)&0ffh
 10481  00133C  336C               	movff	??___fladd+0+0,(___fladd@b)
 10482  00133E  C06C  F064         	movff	??___fladd+0+1,(___fladd@b+1)
 10483  001342  C06D  F065         	movff	??___fladd+0+2,(___fladd@b+2)
 10484  001346  C06E  F066         	movff	??___fladd+0+3,(___fladd@b+3)
 10485  00134A  C06F  F067         	line	207
 10486                           		incf	((___fladd@bexp))&0ffh,w
 10487  00134E  2976               	btfsc	status,2
 10488  001350  B4D8               	goto	u5151
 10489  001352  EFAD  F009         	goto	u5150
 10490  001356  EFAF  F009         
 10491                           u5151:
 10492  00135A                     	goto	l4065
 10493  00135A  EFB6  F009         u5150:
 10494  00135E                     	line	208
 10495                           	
 10496                           l4063:; BSR set to: 0
 10497  00135E                     
 10498                           	incf	((___fladd@bexp))&0ffh
 10499  00135E  2B76               	goto	l4065
 10500  001360  EFB6  F009         	line	209
 10501                           	
 10502                           l775:; BSR set to: 0
 10503  001364                     
 10504                           	goto	l4065
 10505  001364  EFB6  F009         	line	210
 10506                           	
 10507                           l774:; BSR set to: 0
 10508  001368                     
 10509                           	goto	l4065
 10510  001368  EFB6  F009         	line	211
 10511                           	
 10512                           l773:; BSR set to: 0
 10513  00136C                     
 10514                           	line	215
 10515                           	
 10516                           l4065:; BSR set to: 0
 10517  00136C                     
 10518                           		incf	((___fladd@bexp))&0ffh,w
 10519  00136C  2976               	btfsc	status,2
 10520  00136E  B4D8               	goto	u5161
 10521  001370  EFBC  F009         	goto	u5160
 10522  001374  EFBE  F009         
 10523                           u5161:
 10524  001378                     	goto	l4069
 10525  001378  EFC8  F009         u5160:
 10526  00137C                     	
 10527                           l4067:; BSR set to: 0
 10528  00137C                     
 10529                           	movf	((___fladd@bexp))&0ffh,w
 10530  00137C  5176               	btfss	status,2
 10531  00137E  A4D8               	goto	u5171
 10532  001380  EFC4  F009         	goto	u5170
 10533  001384  EFC6  F009         u5171:
 10534  001388                     	goto	l4073
 10535  001388  EFDE  F009         u5170:
 10536  00138C                     	goto	l4069
 10537  00138C  EFC8  F009         	
 10538                           l778:; BSR set to: 0
 10539  001390                     
 10540                           	line	216
 10541                           	
 10542                           l4069:; BSR set to: 0
 10543  001390                     
 10544                           	movlw	low(0)
 10545  001390  0E00               	movwf	((___fladd@b))&0ffh
 10546  001392  6F64               	movlw	high(0)
 10547  001394  0E00               	movwf	((___fladd@b+1))&0ffh
 10548  001396  6F65               	movlw	low highword(0)
 10549  001398  0E00               	movwf	((___fladd@b+2))&0ffh
 10550  00139A  6F66               	movlw	high highword(0)
 10551  00139C  0E00               	movwf	((___fladd@b+3))&0ffh
 10552  00139E  6F67               	line	218
 10553                           	movf	((___fladd@bexp))&0ffh,w
 10554  0013A0  5176               	btfss	status,2
 10555  0013A2  A4D8               	goto	u5181
 10556  0013A4  EFD6  F009         	goto	u5180
 10557  0013A8  EFD8  F009         u5181:
 10558  0013AC                     	goto	l4073
 10559  0013AC  EFDE  F009         u5180:
 10560  0013B0                     	line	219
 10561                           	
 10562                           l4071:; BSR set to: 0
 10563  0013B0                     
 10564                           	movlw	low(0)
 10565  0013B0  0E00               	movwf	((___fladd@signs))&0ffh
 10566  0013B2  6F74               	goto	l4073
 10567  0013B4  EFDE  F009         	line	220
 10568                           	
 10569                           l779:; BSR set to: 0
 10570  0013B8                     
 10571                           	goto	l4073
 10572  0013B8  EFDE  F009         	line	221
 10573                           	
 10574                           l776:; BSR set to: 0
 10575  0013BC                     
 10576                           	line	225
 10577                           	
 10578                           l4073:; BSR set to: 0
 10579  0013BC                     
 10580                           	
 10581                           	btfss	((___fladd@bexp))&0ffh,(0)&7
 10582  0013BC  A176               	goto	u5191
 10583  0013BE  EFE3  F009         	goto	u5190
 10584  0013C2  EFE5  F009         u5191:
 10585  0013C6                     	goto	l4077
 10586  0013C6  EFE8  F009         u5190:
 10587  0013CA                     	line	226
 10588                           	
 10589                           l4075:; BSR set to: 0
 10590  0013CA                     
 10591                           	bsf	(0+(7/8)+0+(___fladd@b+02h))&0ffh,(7)&7
 10592  0013CA  8F66               	line	227
 10593                           	goto	l4079
 10594  0013CC  EFEB  F009         	line	229
 10595                           	
 10596                           l780:; BSR set to: 0
 10597  0013D0                     
 10598                           	line	230
 10599                           	
 10600                           l4077:; BSR set to: 0
 10601  0013D0                     
 10602                           	bcf	(0+(7/8)+0+(___fladd@b+02h))&0ffh,(7)&7
 10603  0013D0  9F66               	goto	l4079
 10604  0013D2  EFEB  F009         	line	231
 10605                           	
 10606                           l781:; BSR set to: 0
 10607  0013D6                     
 10608                           	line	232
 10609                           	
 10610                           l4079:; BSR set to: 0
 10611  0013D6                     
 10612                           	bcf	status,0
 10613  0013D6  90D8               	rrcf	((___fladd@bexp))&0ffh,w
 10614  0013D8  3176               	movwf	(0+(___fladd@b+03h))&0ffh
 10615  0013DA  6F67               	line	233
 10616                           	
 10617                           l4081:; BSR set to: 0
 10618  0013DC                     
 10619                           	
 10620                           	btfss	((___fladd@signs))&0ffh,(7)&7
 10621  0013DC  AF74               	goto	u5201
 10622  0013DE  EFF3  F009         	goto	u5200
 10623  0013E2  EFF5  F009         u5201:
 10624  0013E6                     	goto	l4085
 10625  0013E6  EFF8  F009         u5200:
 10626  0013EA                     	line	234
 10627                           	
 10628                           l4083:; BSR set to: 0
 10629  0013EA                     
 10630                           	bsf	(0+(7/8)+0+(___fladd@b+03h))&0ffh,(7)&7
 10631  0013EA  8F67               	goto	l4085
 10632  0013EC  EFF8  F009         	line	235
 10633                           	
 10634                           l782:; BSR set to: 0
 10635  0013F0                     
 10636                           	line	236
 10637                           	
 10638                           l4085:; BSR set to: 0
 10639  0013F0                     
 10640                           	movff	(___fladd@b),(?___fladd)
 10641  0013F0  C064  F064         	movff	(___fladd@b+1),(?___fladd+1)
 10642  0013F4  C065  F065         	movff	(___fladd@b+2),(?___fladd+2)
 10643  0013F8  C066  F066         	movff	(___fladd@b+3),(?___fladd+3)
 10644  0013FC  C067  F067         	goto	l752
 10645  001400  EF02  F00A         	
 10646                           l4087:; BSR set to: 0
 10647  001404                     
 10648                           	line	237
 10649                           	
 10650                           l752:; BSR set to: 0
 10651  001404                     
 10652                           	return	;funcret
 10653  001404  0012               	opt stack 0
 10654                           GLOBAL	__end_of___fladd
 10655                           	__end_of___fladd:
 10656  001406                     	signat	___fladd,8316
 10657                           	global	_InitApp
 10658                           
 10659 ;; *************** function _InitApp *****************
 10660 ;; Defined at:
 10661 ;;		line 27 in file "user.c"
 10662 ;; Parameters:    Size  Location     Type
 10663 ;;		None
 10664 ;; Auto vars:     Size  Location     Type
 10665 ;;		None
 10666 ;; Return value:  Size  Location     Type
 10667 ;;                  1    wreg      void 
 10668 ;; Registers used:
 10669 ;;		wreg, status,2
 10670 ;; Tracked objects:
 10671 ;;		On entry : 0/0
 10672 ;;		On exit  : 0/0
 10673 ;;		Unchanged: 0/0
 10674 ;; Data sizes:     COMRAM   BANK0   BANK1   BANK2   BANK3   BANK4   BANK5   BANK6   BANK7
 10675 ;;      Params:         0       0       0       0       0       0       0       0       0
 10676 ;;      Locals:         0       0       0       0       0       0       0       0       0
 10677 ;;      Temps:          0       0       0       0       0       0       0       0       0
 10678 ;;      Totals:         0       0       0       0       0       0       0       0       0
 10679 ;;Total ram usage:        0 bytes
 10680 ;; Hardware stack levels used:    1
 10681 ;; Hardware stack levels required when called:    2
 10682 ;; This function calls:
 10683 ;;		Nothing
 10684 ;; This function is called by:
 10685 ;;		_main
 10686 ;; This function uses a non-reentrant model
 10687 ;;
 10688                           psect	text18,class=CODE,space=0,reloc=2,group=0
 10689                           	file	"user.c"
 10690                           	line	27
 10691                           global __ptext18
 10692                           __ptext18:
 10693  002BA6                     psect	text18
 10694                           	file	"user.c"
 10695                           	line	27
 10696                           	global	__size_of_InitApp
 10697                           	__size_of_InitApp	equ	__end_of_InitApp-_InitApp
 10698  0000                     	
 10699                           _InitApp:; BSR set to: 0
 10700  002BA6                     
 10701                           ;incstack = 0
 10702                           	opt	stack 28
 10703                           	line	30
 10704                           	
 10705                           l3729:
 10706  002BA6                     ;user.c: 30: PORTA=PORTB=PORTC=0x00;
 10707                           	movlw	low(0)
 10708  002BA6  0E00               	movwf	((c:3970)),c	;volatile
 10709  002BA8  6E82               	movff	(c:3970),(c:3969)	;volatile
 10710  002BAA  CF82 FF81          	movff	(c:3969),(c:3968)	;volatile
 10711  002BAE  CF81 FF80          	line	31
 10712                           ;user.c: 31: LATA=LATB=LATC=0x00;
 10713                           	movlw	low(0)
 10714  002BB2  0E00               	movwf	((c:3979)),c	;volatile
 10715  002BB4  6E8B               	movff	(c:3979),(c:3978)	;volatile
 10716  002BB6  CF8B FF8A          	movff	(c:3978),(c:3977)	;volatile
 10717  002BBA  CF8A FF89          	line	32
 10718                           	
 10719                           l3731:
 10720  002BBE                     ;user.c: 32: ADCON1bits.PCFG=0b1111;
 10721                           		
 10722                           	bsf	((c:4033)),c, 0+0	;volatile
 10723  002BBE  80C1               	bsf	((c:4033)),c, 0+1	;volatile
 10724  002BC0  82C1               	bsf	((c:4033)),c, 0+2	;volatile
 10725  002BC2  84C1               	bsf	((c:4033)),c, 0+3	;volatile
 10726  002BC4  86C1               
 10727                           	line	33
 10728                           ;user.c: 33: TRISA=0b0000000;
 10729                           	movlw	low(0)
 10730  002BC6  0E00               	movwf	((c:3986)),c	;volatile
 10731  002BC8  6E92               	line	34
 10732                           ;user.c: 34: TRISB=0b0000011;
 10733                           	movlw	low(03h)
 10734  002BCA  0E03               	movwf	((c:3987)),c	;volatile
 10735  002BCC  6E93               	line	35
 10736                           	
 10737                           l3733:
 10738  002BCE                     ;user.c: 35: TRISCbits.RC6=0;
 10739                           	bcf	((c:3988)),c,6	;volatile
 10740  002BCE  9C94               	line	36
 10741                           	
 10742                           l3735:
 10743  002BD0                     ;user.c: 36: TRISCbits.RC7=1;
 10744                           	bsf	((c:3988)),c,7	;volatile
 10745  002BD0  8E94               	line	38
 10746                           	
 10747                           l3737:
 10748  002BD2                     ;user.c: 38: T0CONbits.T08BIT=1;
 10749                           	bsf	((c:4053)),c,6	;volatile
 10750  002BD2  8CD5               	line	39
 10751                           	
 10752                           l3739:
 10753  002BD4                     ;user.c: 39: T0CONbits.T0CS=0;
 10754                           	bcf	((c:4053)),c,5	;volatile
 10755  002BD4  9AD5               	line	40
 10756                           	
 10757                           l3741:
 10758  002BD6                     ;user.c: 40: T0CONbits.PSA=0;
 10759                           	bcf	((c:4053)),c,3	;volatile
 10760  002BD6  96D5               	line	41
 10761                           	
 10762                           l3743:
 10763  002BD8                     ;user.c: 41: T0CONbits.T0PS=0b111;
 10764                           		
 10765                           	bsf	((c:4053)),c, 0+0	;volatile
 10766  002BD8  80D5               	bsf	((c:4053)),c, 0+1	;volatile
 10767  002BDA  82D5               	bsf	((c:4053)),c, 0+2	;volatile
 10768  002BDC  84D5               
 10769                           	line	43
 10770                           ;user.c: 43: T2CONbits.T2CKPS=0b10;
 10771                           	movf	((c:4042)),c,w	;volatile
 10772  002BDE  50CA               	andlw	not (((1<<2)-1)<<0)
 10773  002BE0  0BFC               	iorlw	(02h & ((1<<2)-1))<<0
 10774  002BE2  0902               	movwf	((c:4042)),c	;volatile
 10775  002BE4  6ECA               	line	44
 10776                           	
 10777                           l3745:
 10778  002BE6                     ;user.c: 44: T2CONbits.TMR2ON=1;
 10779                           	bsf	((c:4042)),c,2	;volatile
 10780  002BE6  84CA               	line	46
 10781                           	
 10782                           l3747:
 10783  002BE8                     ;user.c: 46: PR2 = 255;
 10784                           	setf	((c:4043)),c	;volatile
 10785  002BE8  68CB               	line	47
 10786                           ;user.c: 47: CCPR2L = 175;
 10787                           	movlw	low(0AFh)
 10788  002BEA  0EAF               	movwf	((c:4027)),c	;volatile
 10789  002BEC  6EBB               	line	48
 10790                           ;user.c: 48: CCP2CONbits.DC2B=0b00;
 10791                           	movlw	((0 & ((1<<2)-1))<<4)|not (((1<<2)-1)<<4)
 10792  002BEE  0ECF               	andwf	((c:4026)),c	;volatile
 10793  002BF0  16BA               	line	49
 10794                           ;user.c: 49: CCP2CONbits.CCP2M=0b1100;
 10795                           	movf	((c:4026)),c,w	;volatile
 10796  002BF2  50BA               	andlw	not (((1<<4)-1)<<0)
 10797  002BF4  0BF0               	iorlw	(0Ch & ((1<<4)-1))<<0
 10798  002BF6  090C               	movwf	((c:4026)),c	;volatile
 10799  002BF8  6EBA               	line	51
 10800                           	
 10801                           l3749:
 10802  002BFA                     ;user.c: 51: RCSTA1bits.SPEN=1;
 10803                           	bsf	((c:4011)),c,7	;volatile
 10804  002BFA  8EAB               	line	52
 10805                           	
 10806                           l3751:
 10807  002BFC                     ;user.c: 52: RCSTA1bits.RX9=0;
 10808                           	bcf	((c:4011)),c,6	;volatile
 10809  002BFC  9CAB               	line	53
 10810                           	
 10811                           l3753:
 10812  002BFE                     ;user.c: 53: RCSTA1bits.CREN=1;
 10813                           	bsf	((c:4011)),c,4	;volatile
 10814  002BFE  88AB               	line	54
 10815                           	
 10816                           l3755:
 10817  002C00                     ;user.c: 54: TXSTAbits.SYNC=0;
 10818                           	bcf	((c:4012)),c,4	;volatile
 10819  002C00  98AC               	line	55
 10820                           	
 10821                           l3757:
 10822  002C02                     ;user.c: 55: TXSTAbits.TX9=0;
 10823                           	bcf	((c:4012)),c,6	;volatile
 10824  002C02  9CAC               	line	56
 10825                           	
 10826                           l3759:
 10827  002C04                     ;user.c: 56: TXSTAbits.TXEN=1;
 10828                           	bsf	((c:4012)),c,5	;volatile
 10829  002C04  8AAC               	line	57
 10830                           	
 10831                           l3761:
 10832  002C06                     ;user.c: 57: TXSTAbits.BRGH=1;
 10833                           	bsf	((c:4012)),c,2	;volatile
 10834  002C06  84AC               	line	58
 10835                           ;user.c: 58: SPBRG=12;
 10836                           	movlw	low(0Ch)
 10837  002C08  0E0C               	movwf	((c:4015)),c	;volatile
 10838  002C0A  6EAF               	line	66
 10839                           	
 10840                           l3763:
 10841  002C0C                     ;user.c: 66: RCONbits.IPEN=1;
 10842                           	bsf	((c:4048)),c,7	;volatile
 10843  002C0C  8ED0               	line	67
 10844                           	
 10845                           l3765:
 10846  002C0E                     ;user.c: 67: INTCONbits.GIE=1;
 10847                           	bsf	((c:4082)),c,7	;volatile
 10848  002C0E  8EF2               	line	68
 10849                           	
 10850                           l3767:
 10851  002C10                     ;user.c: 68: INTCONbits.PEIE=1;
 10852                           	bsf	((c:4082)),c,6	;volatile
 10853  002C10  8CF2               	line	69
 10854                           	
 10855                           l3769:
 10856  002C12                     ;user.c: 69: INTCONbits.INT0E=1;
 10857                           	bsf	((c:4082)),c,4	;volatile
 10858  002C12  88F2               	line	70
 10859                           	
 10860                           l3771:
 10861  002C14                     ;user.c: 70: INTCONbits.TMR0IE=1;
 10862                           	bsf	((c:4082)),c,5	;volatile
 10863  002C14  8AF2               	line	71
 10864                           	
 10865                           l3773:
 10866  002C16                     ;user.c: 71: INTCON2bits.TMR0IP=1;
 10867                           	bsf	((c:4081)),c,2	;volatile
 10868  002C16  84F1               	line	72
 10869                           	
 10870                           l3775:
 10871  002C18                     ;user.c: 72: INTCON2bits.INTEDG0=0;
 10872                           	bcf	((c:4081)),c,6	;volatile
 10873  002C18  9CF1               	line	73
 10874                           	
 10875                           l3777:
 10876  002C1A                     ;user.c: 73: INTCON2bits.INTEDG1=0;
 10877                           	bcf	((c:4081)),c,5	;volatile
 10878  002C1A  9AF1               	line	74
 10879                           	
 10880                           l3779:
 10881  002C1C                     ;user.c: 74: INTCON3bits.INT1IE=1;
 10882                           	bsf	((c:4080)),c,3	;volatile
 10883  002C1C  86F0               	line	75
 10884                           	
 10885                           l3781:
 10886  002C1E                     ;user.c: 75: INTCON3bits.INT1IP=1;
 10887                           	bsf	((c:4080)),c,6	;volatile
 10888  002C1E  8CF0               	line	76
 10889                           	
 10890                           l3783:
 10891  002C20                     ;user.c: 76: PIE1bits.RCIE=1;
 10892                           	bsf	((c:3997)),c,5	;volatile
 10893  002C20  8A9D               	line	77
 10894                           	
 10895                           l3785:
 10896  002C22                     ;user.c: 77: IPR1bits.RCIP=1;
 10897                           	bsf	((c:3999)),c,5	;volatile
 10898  002C22  8A9F               	line	79
 10899                           	
 10900                           l174:
 10901  002C24                     	return	;funcret
 10902  002C24  0012               	opt stack 0
 10903                           GLOBAL	__end_of_InitApp
 10904                           	__end_of_InitApp:
 10905  002C26                     	signat	_InitApp,89
 10906                           	global	_ConfigureOscillator
 10907                           
 10908 ;; *************** function _ConfigureOscillator *****************
 10909 ;; Defined at:
 10910 ;;		line 24 in file "system.c"
 10911 ;; Parameters:    Size  Location     Type
 10912 ;;		None
 10913 ;; Auto vars:     Size  Location     Type
 10914 ;;		None
 10915 ;; Return value:  Size  Location     Type
 10916 ;;                  1    wreg      void 
 10917 ;; Registers used:
 10918 ;;		wreg, status,2
 10919 ;; Tracked objects:
 10920 ;;		On entry : 0/0
 10921 ;;		On exit  : 0/0
 10922 ;;		Unchanged: 0/0
 10923 ;; Data sizes:     COMRAM   BANK0   BANK1   BANK2   BANK3   BANK4   BANK5   BANK6   BANK7
 10924 ;;      Params:         0       0       0       0       0       0       0       0       0
 10925 ;;      Locals:         0       0       0       0       0       0       0       0       0
 10926 ;;      Temps:          0       0       0       0       0       0       0       0       0
 10927 ;;      Totals:         0       0       0       0       0       0       0       0       0
 10928 ;;Total ram usage:        0 bytes
 10929 ;; Hardware stack levels used:    1
 10930 ;; Hardware stack levels required when called:    2
 10931 ;; This function calls:
 10932 ;;		Nothing
 10933 ;; This function is called by:
 10934 ;;		_main
 10935 ;; This function uses a non-reentrant model
 10936 ;;
 10937                           psect	text19,class=CODE,space=0,reloc=2,group=0
 10938                           	file	"system.c"
 10939                           	line	24
 10940                           global __ptext19
 10941                           __ptext19:
 10942  002F02                     psect	text19
 10943                           	file	"system.c"
 10944                           	line	24
 10945                           	global	__size_of_ConfigureOscillator
 10946                           	__size_of_ConfigureOscillator	equ	__end_of_ConfigureOscillator-_ConfigureOscillator
 10947  0000                     	
 10948                           _ConfigureOscillator:
 10949  002F02                     ;incstack = 0
 10950                           	opt	stack 28
 10951                           	line	27
 10952                           	
 10953                           l3727:
 10954  002F02                     ;system.c: 27: OSCCONbits.SCS=0b10;
 10955                           	movf	((c:4051)),c,w	;volatile
 10956  002F02  50D3               	andlw	not (((1<<2)-1)<<0)
 10957  002F04  0BFC               	iorlw	(02h & ((1<<2)-1))<<0
 10958  002F06  0902               	movwf	((c:4051)),c	;volatile
 10959  002F08  6ED3               	line	28
 10960                           ;system.c: 28: OSCCONbits.IRCF=0b101;
 10961                           	movf	((c:4051)),c,w	;volatile
 10962  002F0A  50D3               	andlw	not (((1<<3)-1)<<4)
 10963  002F0C  0B8F               	iorlw	(05h & ((1<<3)-1))<<4
 10964  002F0E  0950               	movwf	((c:4051)),c	;volatile
 10965  002F10  6ED3               	line	32
 10966                           	
 10967                           l117:
 10968  002F12                     	return	;funcret
 10969  002F12  0012               	opt stack 0
 10970                           GLOBAL	__end_of_ConfigureOscillator
 10971                           	__end_of_ConfigureOscillator:
 10972  002F14                     	signat	_ConfigureOscillator,89
 10973                           	global	_BT_load_string
 10974                           
 10975 ;; *************** function _BT_load_string *****************
 10976 ;; Defined at:
 10977 ;;		line 85 in file "user.c"
 10978 ;; Parameters:    Size  Location     Type
 10979 ;;  string          2    1[BANK0 ] PTR unsigned char 
 10980 ;;		 -> send(20), 
 10981 ;; Auto vars:     Size  Location     Type
 10982 ;;		None
 10983 ;; Return value:  Size  Location     Type
 10984 ;;                  1    wreg      void 
 10985 ;; Registers used:
 10986 ;;		wreg, fsr2l, fsr2h, status,2, status,0, cstack
 10987 ;; Tracked objects:
 10988 ;;		On entry : 0/0
 10989 ;;		On exit  : 0/0
 10990 ;;		Unchanged: 0/0
 10991 ;; Data sizes:     COMRAM   BANK0   BANK1   BANK2   BANK3   BANK4   BANK5   BANK6   BANK7
 10992 ;;      Params:         0       2       0       0       0       0       0       0       0
 10993 ;;      Locals:         0       0       0       0       0       0       0       0       0
 10994 ;;      Temps:          0       0       0       0       0       0       0       0       0
 10995 ;;      Totals:         0       2       0       0       0       0       0       0       0
 10996 ;;Total ram usage:        2 bytes
 10997 ;; Hardware stack levels used:    1
 10998 ;; Hardware stack levels required when called:    3
 10999 ;; This function calls:
 11000 ;;		_BT_load_char
 11001 ;; This function is called by:
 11002 ;;		_main
 11003 ;; This function uses a non-reentrant model
 11004 ;;
 11005                           psect	text20,class=CODE,space=0,reloc=2,group=0
 11006                           	file	"user.c"
 11007                           	line	85
 11008                           global __ptext20
 11009                           __ptext20:
 11010  002E3A                     psect	text20
 11011                           	file	"user.c"
 11012                           	line	85
 11013                           	global	__size_of_BT_load_string
 11014                           	__size_of_BT_load_string	equ	__end_of_BT_load_string-_BT_load_string
 11015  0000                     	
 11016                           _BT_load_string:
 11017  002E3A                     ;incstack = 0
 11018                           	opt	stack 27
 11019                           	line	86
 11020                           	
 11021                           l3879:
 11022  002E3A                     ;user.c: 86: while(*string)
 11023                           	goto	l3885
 11024  002E3A  EF2B  F017         	
 11025                           l187:
 11026  002E3E                     	line	87
 11027                           	
 11028                           l3881:
 11029  002E3E                     ;user.c: 87: BT_load_char(*string++);
 11030                           	movff	(BT_load_string@string),fsr2l
 11031  002E3E  C061  FFD9         	movff	(BT_load_string@string+1),fsr2h
 11032  002E42  C062  FFDA         	movf	indf2,w
 11033  002E46  50DF               	
 11034                           	call	_BT_load_char
 11035  002E48  EC3A  F017         	
 11036                           l3883:
 11037  002E4C                     	movlb	0	; () banked
 11038  002E4C  0100               	infsnz	((BT_load_string@string))&0ffh
 11039  002E4E  4B61               	incf	((BT_load_string@string+1))&0ffh
 11040  002E50  2B62               	goto	l3885
 11041  002E52  EF2B  F017         	
 11042                           l186:; BSR set to: 0
 11043  002E56                     
 11044                           	line	86
 11045                           	
 11046                           l3885:
 11047  002E56                     	movff	(BT_load_string@string),fsr2l
 11048  002E56  C061  FFD9         	movff	(BT_load_string@string+1),fsr2h
 11049  002E5A  C062  FFDA         	movf	indf2,w
 11050  002E5E  50DF               	btfss	status,2
 11051  002E60  A4D8               	goto	u4811
 11052  002E62  EF35  F017         	goto	u4810
 11053  002E66  EF37  F017         u4811:
 11054  002E6A                     	goto	l3881
 11055  002E6A  EF1F  F017         u4810:
 11056  002E6E                     	goto	l189
 11057  002E6E  EF39  F017         	
 11058                           l188:
 11059  002E72                     	line	88
 11060                           	
 11061                           l189:
 11062  002E72                     	return	;funcret
 11063  002E72  0012               	opt stack 0
 11064                           GLOBAL	__end_of_BT_load_string
 11065                           	__end_of_BT_load_string:
 11066  002E74                     	signat	_BT_load_string,4217
 11067                           	global	_BT_load_char
 11068                           
 11069 ;; *************** function _BT_load_char *****************
 11070 ;; Defined at:
 11071 ;;		line 80 in file "user.c"
 11072 ;; Parameters:    Size  Location     Type
 11073 ;;  byte            1    wreg     unsigned char 
 11074 ;; Auto vars:     Size  Location     Type
 11075 ;;  byte            1    0[BANK0 ] unsigned char 
 11076 ;; Return value:  Size  Location     Type
 11077 ;;                  1    wreg      void 
 11078 ;; Registers used:
 11079 ;;		wreg
 11080 ;; Tracked objects:
 11081 ;;		On entry : 0/0
 11082 ;;		On exit  : 0/0
 11083 ;;		Unchanged: 0/0
 11084 ;; Data sizes:     COMRAM   BANK0   BANK1   BANK2   BANK3   BANK4   BANK5   BANK6   BANK7
 11085 ;;      Params:         0       0       0       0       0       0       0       0       0
 11086 ;;      Locals:         0       1       0       0       0       0       0       0       0
 11087 ;;      Temps:          0       0       0       0       0       0       0       0       0
 11088 ;;      Totals:         0       1       0       0       0       0       0       0       0
 11089 ;;Total ram usage:        1 bytes
 11090 ;; Hardware stack levels used:    1
 11091 ;; Hardware stack levels required when called:    2
 11092 ;; This function calls:
 11093 ;;		Nothing
 11094 ;; This function is called by:
 11095 ;;		_BT_load_string
 11096 ;; This function uses a non-reentrant model
 11097 ;;
 11098                           psect	text21,class=CODE,space=0,reloc=2,group=0
 11099                           	line	80
 11100                           global __ptext21
 11101                           __ptext21:
 11102  002E74                     psect	text21
 11103                           	file	"user.c"
 11104                           	line	80
 11105                           	global	__size_of_BT_load_char
 11106                           	__size_of_BT_load_char	equ	__end_of_BT_load_char-_BT_load_char
 11107  0000                     	
 11108                           _BT_load_char:
 11109  002E74                     ;incstack = 0
 11110                           	opt	stack 27
 11111                           ;BT_load_char@byte stored from wreg
 11112                           	movlb	0	; () banked
 11113  002E74  0100               	movwf	((BT_load_char@byte))&0ffh
 11114  002E76  6F60               	line	81
 11115                           	
 11116                           l3515:
 11117  002E78                     ;user.c: 81: TXREG = byte;
 11118                           	movff	(BT_load_char@byte),(c:4013)	;volatile
 11119  002E78  C060  FFAD         	line	82
 11120                           ;user.c: 82: while(!TXIF);
 11121                           	goto	l177
 11122  002E7C  EF40  F017         	
 11123                           l178:
 11124  002E80                     	
 11125                           l177:
 11126  002E80                     	btfss	c:(31988/8),(31988)&7	;volatile
 11127  002E80  A89E               	goto	u4261
 11128  002E82  EF45  F017         	goto	u4260
 11129  002E86  EF47  F017         u4261:
 11130  002E8A                     	goto	l177
 11131  002E8A  EF40  F017         u4260:
 11132  002E8E                     	goto	l180
 11133  002E8E  EF4B  F017         	
 11134                           l179:
 11135  002E92                     	line	83
 11136                           ;user.c: 83: while(!TRMT);
 11137                           	goto	l180
 11138  002E92  EF4B  F017         	
 11139                           l181:
 11140  002E96                     	
 11141                           l180:
 11142  002E96                     	btfss	c:(32097/8),(32097)&7	;volatile
 11143  002E96  A2AC               	goto	u4271
 11144  002E98  EF50  F017         	goto	u4270
 11145  002E9C  EF52  F017         u4271:
 11146  002EA0                     	goto	l180
 11147  002EA0  EF4B  F017         u4270:
 11148  002EA4                     	goto	l183
 11149  002EA4  EF54  F017         	
 11150                           l182:
 11151  002EA8                     	line	84
 11152                           	
 11153                           l183:
 11154  002EA8                     	return	;funcret
 11155  002EA8  0012               	opt stack 0
 11156                           GLOBAL	__end_of_BT_load_char
 11157                           	__end_of_BT_load_char:
 11158  002EAA                     	signat	_BT_load_char,4217
 11159                           	global	_low_isr
 11160                           
 11161 ;; *************** function _low_isr *****************
 11162 ;; Defined at:
 11163 ;;		line 94 in file "interrupts.c"
 11164 ;; Parameters:    Size  Location     Type
 11165 ;;		None
 11166 ;; Auto vars:     Size  Location     Type
 11167 ;;		None
 11168 ;; Return value:  Size  Location     Type
 11169 ;;                  1    wreg      void 
 11170 ;; Registers used:
 11171 ;;		None
 11172 ;; Tracked objects:
 11173 ;;		On entry : 0/0
 11174 ;;		On exit  : 0/0
 11175 ;;		Unchanged: 0/0
 11176 ;; Data sizes:     COMRAM   BANK0   BANK1   BANK2   BANK3   BANK4   BANK5   BANK6   BANK7
 11177 ;;      Params:         0       0       0       0       0       0       0       0       0
 11178 ;;      Locals:         0       0       0       0       0       0       0       0       0
 11179 ;;      Temps:         21       0       0       0       0       0       0       0       0
 11180 ;;      Totals:        21       0       0       0       0       0       0       0       0
 11181 ;;Total ram usage:       21 bytes
 11182 ;; Hardware stack levels used:    1
 11183 ;; Hardware stack levels required when called:    1
 11184 ;; This function calls:
 11185 ;;		Nothing
 11186 ;; This function is called by:
 11187 ;;		Interrupt level 1
 11188 ;; This function uses a non-reentrant model
 11189 ;;
 11190                           psect	intcodelo,class=CODE,space=0,reloc=2
 11191                           global __pintcodelo
 11192                           __pintcodelo:
 11193  000018                     psect	intcodelo
 11194                           	file	"interrupts.c"
 11195                           	line	94
 11196                           	global	__size_of_low_isr
 11197                           	__size_of_low_isr	equ	__end_of_low_isr-_low_isr
 11198  0000                     	
 11199                           _low_isr:
 11200  000018                     ;incstack = 0
 11201                           	opt	stack 26
 11202                           	bsf int$flags,0,c ;set compiler interrupt flag (level 1)
 11203  000018  803F               	movff	status+0,??_low_isr+0
 11204  00001A  CFD8 F014          	movff	wreg+0,??_low_isr+1
 11205  00001E  CFE8 F015          	movff	bsr+0,??_low_isr+2
 11206  000022  CFE0 F016          	movff	pclath+0,??_low_isr+3
 11207  000026  CFFA F017          	movff	pclath+1,??_low_isr+4
 11208  00002A  CFFB F018          	movff	fsr0l+0,??_low_isr+5
 11209  00002E  CFE9 F019          	movff	fsr0h+0,??_low_isr+6
 11210  000032  CFEA F01A          	movff	fsr1l+0,??_low_isr+7
 11211  000036  CFE1 F01B          	movff	fsr1h+0,??_low_isr+8
 11212  00003A  CFE2 F01C          	movff	fsr2l+0,??_low_isr+9
 11213  00003E  CFD9 F01D          	movff	fsr2h+0,??_low_isr+10
 11214  000042  CFDA F01E          	movff	prodl+0,??_low_isr+11
 11215  000046  CFF3 F01F          	movff	prodh+0,??_low_isr+12
 11216  00004A  CFF4 F020          	movff	tblptrl+0,??_low_isr+13
 11217  00004E  CFF6 F021          	movff	tblptrh+0,??_low_isr+14
 11218  000052  CFF7 F022          	movff	tblptru+0,??_low_isr+15
 11219  000056  CFF8 F023          	movff	tablat+0,??_low_isr+16
 11220  00005A  CFF5 F024          	movff	btemp+0,??_low_isr+17
 11221  00005E  C03F  F025         	movff	btemp+1+0,??_low_isr+18
 11222  000062  C040  F026         	movff	btemp+2+0,??_low_isr+19
 11223  000066  C041  F027         	movff	btemp+3+0,??_low_isr+20
 11224  00006A  C042  F028         	line	129
 11225                           	
 11226                           i1l41:
 11227  00006E                     	movff	??_low_isr+20,btemp+3+0
 11228  00006E  C028  F042         	movff	??_low_isr+19,btemp+2+0
 11229  000072  C027  F041         	movff	??_low_isr+18,btemp+1+0
 11230  000076  C026  F040         	movff	??_low_isr+17,btemp+0
 11231  00007A  C025  F03F         	movff	??_low_isr+16,tablat+0
 11232  00007E  C024  FFF5         	movff	??_low_isr+15,tblptru+0
 11233  000082  C023  FFF8         	movff	??_low_isr+14,tblptrh+0
 11234  000086  C022  FFF7         	movff	??_low_isr+13,tblptrl+0
 11235  00008A  C021  FFF6         	movff	??_low_isr+12,prodh+0
 11236  00008E  C020  FFF4         	movff	??_low_isr+11,prodl+0
 11237  000092  C01F  FFF3         	movff	??_low_isr+10,fsr2h+0
 11238  000096  C01E  FFDA         	movff	??_low_isr+9,fsr2l+0
 11239  00009A  C01D  FFD9         	movff	??_low_isr+8,fsr1h+0
 11240  00009E  C01C  FFE2         	movff	??_low_isr+7,fsr1l+0
 11241  0000A2  C01B  FFE1         	movff	??_low_isr+6,fsr0h+0
 11242  0000A6  C01A  FFEA         	movff	??_low_isr+5,fsr0l+0
 11243  0000AA  C019  FFE9         	movff	??_low_isr+4,pclath+1
 11244  0000AE  C018  FFFB         	movff	??_low_isr+3,pclath+0
 11245  0000B2  C017  FFFA         	movff	??_low_isr+2,bsr+0
 11246  0000B6  C016  FFE0         	movff	??_low_isr+1,wreg+0
 11247  0000BA  C015  FFE8         	movff	??_low_isr+0,status+0
 11248  0000BE  C014  FFD8         	bcf int$flags,0,c ;clear compiler interrupt flag (level 1)
 11249  0000C2  903F               	retfie
 11250  0000C4  0010               	opt stack 0
 11251                           GLOBAL	__end_of_low_isr
 11252                           	__end_of_low_isr:
 11253  0000C6                     	signat	_low_isr,89
 11254                           	global	_high_isr
 11255                           
 11256 ;; *************** function _high_isr *****************
 11257 ;; Defined at:
 11258 ;;		line 34 in file "interrupts.c"
 11259 ;; Parameters:    Size  Location     Type
 11260 ;;		None
 11261 ;; Auto vars:     Size  Location     Type
 11262 ;;		None
 11263 ;; Return value:  Size  Location     Type
 11264 ;;                  1    wreg      void 
 11265 ;; Registers used:
 11266 ;;		wreg, fsr2l, fsr2h, status,2, status,0
 11267 ;; Tracked objects:
 11268 ;;		On entry : 0/0
 11269 ;;		On exit  : 0/0
 11270 ;;		Unchanged: 0/0
 11271 ;; Data sizes:     COMRAM   BANK0   BANK1   BANK2   BANK3   BANK4   BANK5   BANK6   BANK7
 11272 ;;      Params:         0       0       0       0       0       0       0       0       0
 11273 ;;      Locals:         0       0       0       0       0       0       0       0       0
 11274 ;;      Temps:         19       0       0       0       0       0       0       0       0
 11275 ;;      Totals:        19       0       0       0       0       0       0       0       0
 11276 ;;Total ram usage:       19 bytes
 11277 ;; Hardware stack levels used:    1
 11278 ;; This function calls:
 11279 ;;		Nothing
 11280 ;; This function is called by:
 11281 ;;		Interrupt level 2
 11282 ;; This function uses a non-reentrant model
 11283 ;;
 11284                           psect	intcode,class=CODE,space=0,reloc=2
 11285                           global __pintcode
 11286                           __pintcode:
 11287  000008                     psect	intcode
 11288                           	file	"interrupts.c"
 11289                           	line	34
 11290                           	global	__size_of_high_isr
 11291                           	__size_of_high_isr	equ	__end_of_high_isr-_high_isr
 11292  0000                     	
 11293                           _high_isr:
 11294  000008                     ;incstack = 0
 11295                           	opt	stack 26
 11296                           	bsf int$flags,1,c ;set compiler interrupt flag (level 2)
 11297  000008  823F               	global	int_func
 11298                           	call	int_func,f	;refresh shadow registers
 11299  00000A  ED9A  F013         psect	intcode_body,class=CODE,space=0,reloc=2
 11300                           global __pintcode_body
 11301                           __pintcode_body:
 11302  002734                     int_func:
 11303  002734                     
 11304                           	pop	; remove dummy address from shadow register refresh
 11305  002734  0006               	movff	pclath+0,??_high_isr+1
 11306  002736  CFFA F002          	movff	pclath+1,??_high_isr+2
 11307  00273A  CFFB F003          	movff	fsr0l+0,??_high_isr+3
 11308  00273E  CFE9 F004          	movff	fsr0h+0,??_high_isr+4
 11309  002742  CFEA F005          	movff	fsr1l+0,??_high_isr+5
 11310  002746  CFE1 F006          	movff	fsr1h+0,??_high_isr+6
 11311  00274A  CFE2 F007          	movff	fsr2l+0,??_high_isr+7
 11312  00274E  CFD9 F008          	movff	fsr2h+0,??_high_isr+8
 11313  002752  CFDA F009          	movff	prodl+0,??_high_isr+9
 11314  002756  CFF3 F00A          	movff	prodh+0,??_high_isr+10
 11315  00275A  CFF4 F00B          	movff	tblptrl+0,??_high_isr+11
 11316  00275E  CFF6 F00C          	movff	tblptrh+0,??_high_isr+12
 11317  002762  CFF7 F00D          	movff	tblptru+0,??_high_isr+13
 11318  002766  CFF8 F00E          	movff	tablat+0,??_high_isr+14
 11319  00276A  CFF5 F00F          	movff	btemp+0,??_high_isr+15
 11320  00276E  C03F  F010         	movff	btemp+1+0,??_high_isr+16
 11321  002772  C040  F011         	movff	btemp+2+0,??_high_isr+17
 11322  002776  C041  F012         	movff	btemp+3+0,??_high_isr+18
 11323  00277A  C042  F013         	line	50
 11324                           	
 11325                           i2l3041:
 11326  00277E                     ;interrupts.c: 50: if(INTCON3bits.INT1IF) {
 11327                           	btfss	((c:4080)),c,0	;volatile
 11328  00277E  A0F0               	goto	i2u348_41
 11329  002780  EFC4  F013         	goto	i2u348_40
 11330  002784  EFC6  F013         i2u348_41:
 11331  002788                     	goto	i2l27
 11332  002788  EFCB  F013         i2u348_40:
 11333  00278C                     	line	51
 11334                           	
 11335                           i2l3043:
 11336  00278C                     ;interrupts.c: 51: TMR2=0;
 11337                           	movlw	low(0)
 11338  00278C  0E00               	movwf	((c:4044)),c	;volatile
 11339  00278E  6ECC               	line	52
 11340                           	
 11341                           i2l3045:
 11342  002790                     ;interrupts.c: 52: INTCON3bits.INT1IF=0;
 11343                           	bcf	((c:4080)),c,0	;volatile
 11344  002790  90F0               	line	53
 11345                           ;interrupts.c: 53: } else if(INTCONbits.TMR0IF) {
 11346                           	goto	i2l36
 11347  002792  EF20  F014         	
 11348                           i2l27:
 11349  002796                     	btfss	((c:4082)),c,2	;volatile
 11350  002796  A4F2               	goto	i2u349_41
 11351  002798  EFD0  F013         	goto	i2u349_40
 11352  00279C  EFD2  F013         i2u349_41:
 11353  0027A0                     	goto	i2l29
 11354  0027A0  EFDA  F013         i2u349_40:
 11355  0027A4                     	line	54
 11356                           	
 11357                           i2l3047:
 11358  0027A4                     ;interrupts.c: 54: timer=1;
 11359                           	movlw	high(01h)
 11360  0027A4  0E00               	movlb	0	; () banked
 11361  0027A6  0100               	movwf	((_timer+1))&0ffh
 11362  0027A8  6FD9               	movlw	low(01h)
 11363  0027AA  0E01               	movwf	((_timer))&0ffh
 11364  0027AC  6FD8               	line	55
 11365                           	
 11366                           i2l3049:; BSR set to: 0
 11367  0027AE                     
 11368                           ;interrupts.c: 55: INTCONbits.TMR0IF=0;
 11369                           	bcf	((c:4082)),c,2	;volatile
 11370  0027AE  94F2               	line	56
 11371                           ;interrupts.c: 56: } else if(INTCONbits.INT0IF) {
 11372                           	goto	i2l36
 11373  0027B0  EF20  F014         	
 11374                           i2l29:
 11375  0027B4                     	btfss	((c:4082)),c,1	;volatile
 11376  0027B4  A2F2               	goto	i2u350_41
 11377  0027B6  EFDF  F013         	goto	i2u350_40
 11378  0027BA  EFE1  F013         i2u350_41:
 11379  0027BE                     	goto	i2l31
 11380  0027BE  EFE7  F013         i2u350_40:
 11381  0027C2                     	line	57
 11382                           	
 11383                           i2l3051:
 11384  0027C2                     ;interrupts.c: 57: count++;
 11385                           	movlb	0	; () banked
 11386  0027C2  0100               	infsnz	((_count))&0ffh
 11387  0027C4  4BD6               	incf	((_count+1))&0ffh
 11388  0027C6  2BD7               	line	58
 11389                           	
 11390                           i2l3053:; BSR set to: 0
 11391  0027C8                     
 11392                           ;interrupts.c: 58: INTCONbits.INT0IF=0;
 11393                           	bcf	((c:4082)),c,1	;volatile
 11394  0027C8  92F2               	line	59
 11395                           ;interrupts.c: 59: } else if(PIR1bits.RCIF){
 11396                           	goto	i2l36
 11397  0027CA  EF20  F014         	
 11398                           i2l31:
 11399  0027CE                     	btfss	((c:3998)),c,5	;volatile
 11400  0027CE  AA9E               	goto	i2u351_41
 11401  0027D0  EFEC  F013         	goto	i2u351_40
 11402  0027D4  EFEE  F013         i2u351_41:
 11403  0027D8                     	goto	i2l36
 11404  0027D8  EF20  F014         i2u351_40:
 11405  0027DC                     	line	60
 11406                           	
 11407                           i2l3055:
 11408  0027DC                     ;interrupts.c: 60: Buffer[i]=RCREG;
 11409                           	movlw	low(_Buffer)
 11410  0027DC  0E29               	addwf	((c:_i)),c,w
 11411  0027DE  243D               	movwf	c:fsr2l
 11412  0027E0  6ED9               	movlw	high(_Buffer)
 11413  0027E2  0E00               	addwfc	((c:_i+1)),c,w
 11414  0027E4  203E               	movwf	1+c:fsr2l
 11415  0027E6  6EDA               	movff	(c:4014),indf2	;volatile
 11416  0027E8  CFAE FFDF          
 11417                           	line	61
 11418                           ;interrupts.c: 61: if (Buffer[i]=='a'){
 11419                           	movlw	low(_Buffer)
 11420  0027EC  0E29               	addwf	((c:_i)),c,w
 11421  0027EE  243D               	movwf	c:fsr2l
 11422  0027F0  6ED9               	movlw	high(_Buffer)
 11423  0027F2  0E00               	addwfc	((c:_i+1)),c,w
 11424  0027F4  203E               	movwf	1+c:fsr2l
 11425  0027F6  6EDA               	movlw	97
 11426  0027F8  0E61               	xorwf	postinc2,w
 11427  0027FA  18DE               	btfss	status,2
 11428  0027FC  A4D8               	goto	i2u352_41
 11429  0027FE  EF03  F014         	goto	i2u352_40
 11430  002802  EF05  F014         
 11431                           i2u352_41:
 11432  002806                     	goto	i2l3061
 11433  002806  EF14  F014         i2u352_40:
 11434  00280A                     	line	62
 11435                           	
 11436                           i2l3057:
 11437  00280A                     ;interrupts.c: 62: limit=i;
 11438                           	movff	(c:_i),(_limit)
 11439  00280A  C03D  F0D4         	movff	(c:_i+1),(_limit+1)
 11440  00280E  C03E  F0D5         	line	63
 11441                           	
 11442                           i2l3059:
 11443  002812                     ;interrupts.c: 63: i=0;
 11444                           	movlw	high(0)
 11445  002812  0E00               	movwf	((c:_i+1)),c
 11446  002814  6E3E               	movlw	low(0)
 11447  002816  0E00               	movwf	((c:_i)),c
 11448  002818  6E3D               	line	64
 11449                           ;interrupts.c: 64: read=1;
 11450                           	movlw	high(01h)
 11451  00281A  0E00               	movlb	0	; () banked
 11452  00281C  0100               	movwf	((_read+1))&0ffh
 11453  00281E  6FD3               	movlw	low(01h)
 11454  002820  0E01               	movwf	((_read))&0ffh
 11455  002822  6FD2               	line	65
 11456                           ;interrupts.c: 65: } else {
 11457                           	goto	i2l36
 11458  002824  EF20  F014         	
 11459                           i2l34:; BSR set to: 0
 11460  002828                     
 11461                           	line	66
 11462                           	
 11463                           i2l3061:
 11464  002828                     ;interrupts.c: 66: i++;
 11465                           	infsnz	((c:_i)),c
 11466  002828  4A3D               	incf	((c:_i+1)),c
 11467  00282A  2A3E               	goto	i2l36
 11468  00282C  EF20  F014         	line	67
 11469                           	
 11470                           i2l35:
 11471  002830                     	goto	i2l36
 11472  002830  EF20  F014         	line	68
 11473                           	
 11474                           i2l33:
 11475  002834                     	goto	i2l36
 11476  002834  EF20  F014         	line	90
 11477                           	
 11478                           i2l32:
 11479  002838                     	goto	i2l36
 11480  002838  EF20  F014         	
 11481                           i2l30:
 11482  00283C                     	goto	i2l36
 11483  00283C  EF20  F014         	
 11484                           i2l28:
 11485  002840                     	
 11486                           i2l36:
 11487  002840                     	movff	??_high_isr+18,btemp+3+0
 11488  002840  C013  F042         	movff	??_high_isr+17,btemp+2+0
 11489  002844  C012  F041         	movff	??_high_isr+16,btemp+1+0
 11490  002848  C011  F040         	movff	??_high_isr+15,btemp+0
 11491  00284C  C010  F03F         	movff	??_high_isr+14,tablat+0
 11492  002850  C00F  FFF5         	movff	??_high_isr+13,tblptru+0
 11493  002854  C00E  FFF8         	movff	??_high_isr+12,tblptrh+0
 11494  002858  C00D  FFF7         	movff	??_high_isr+11,tblptrl+0
 11495  00285C  C00C  FFF6         	movff	??_high_isr+10,prodh+0
 11496  002860  C00B  FFF4         	movff	??_high_isr+9,prodl+0
 11497  002864  C00A  FFF3         	movff	??_high_isr+8,fsr2h+0
 11498  002868  C009  FFDA         	movff	??_high_isr+7,fsr2l+0
 11499  00286C  C008  FFD9         	movff	??_high_isr+6,fsr1h+0
 11500  002870  C007  FFE2         	movff	??_high_isr+5,fsr1l+0
 11501  002874  C006  FFE1         	movff	??_high_isr+4,fsr0h+0
 11502  002878  C005  FFEA         	movff	??_high_isr+3,fsr0l+0
 11503  00287C  C004  FFE9         	movff	??_high_isr+2,pclath+1
 11504  002880  C003  FFFB         	movff	??_high_isr+1,pclath+0
 11505  002884  C002  FFFA         	bcf int$flags,1,c ;clear compiler interrupt flag (level 2)
 11506  002888  923F               	retfie f
 11507  00288A  0011               	opt stack 0
 11508                           GLOBAL	__end_of_high_isr
 11509                           	__end_of_high_isr:
 11510  00288C                     	signat	_high_isr,89
 11511                           psect	smallconst
 11512                           	db 0	; dummy byte at the end
 11513  00080F  00                 	global	__smallconst
 11514                           	global	__mediumconst
 11515                           	GLOBAL	__activetblptr
 11516                           __activetblptr	EQU	2
 11517  0000                     	psect	intsave_regs,class=BIGRAM,space=1,noexec
 11518                           	PSECT	rparam,class=COMRAM,space=1,noexec
 11519                           	GLOBAL	__Lrparam
 11520                           	FNCONF	rparam,??,?
 11521                           	GLOBAL	___rparam_used
 11522                           	___rparam_used EQU 1
 11523  0000                     	GLOBAL	___param_bank
 11524                           	___param_bank EQU 0
 11525  0000                     GLOBAL	__Lparam, __Hparam
 11526                           GLOBAL	__Lrparam, __Hrparam
 11527                           __Lparam	EQU	__Lrparam
 11528  0000                     __Hparam	EQU	__Hrparam
 11529  0000                            psect   temp,common,ovrld,class=COMRAM,space=1
 11530                           	global	btemp
 11531                           btemp:
 11532  00003F                     	ds	1
 11533  00003F                     	global	int$flags
 11534                           	int$flags	set btemp
 11535  0000                     	global	wtemp6
 11536                           	wtemp6 set btemp+1
 11537  0000                     	end


Data Sizes:
    Strings     4
    Constant    10
    Data        6
    BSS         92
    Persistent  0
    Stack       0

Auto Spaces:
    Space          Size  Autos    Used
    COMRAM           94     40      62
    BANK0           160     94     130
    BANK1           256     34      74
    BANK2           256      0       0
    BANK3           256      0       0
    BANK4           256      0       0
    BANK5           256      0       0
    BANK6           256      0       0
    BANK7           256      0       0

Pointer List with Targets:

    atoi@s	PTR const unsigned char  size(2) Largest target is 20
		 -> main@du(BANK1[20]), 

    atof@s	PTR const unsigned char  size(2) Largest target is 20
		 -> main@du(BANK1[20]), 

    strtod@s	PTR const unsigned char  size(2) Largest target is 20
		 -> main@du(BANK1[20]), 

    strtod@res	PTR PTR const unsigned char  size(2) Largest target is 0
		 -> NULL(NULL[0]), 

    sprintf@f	PTR const unsigned char  size(2) Largest target is 4
		 -> STR_1(CODE[4]), 

    sprintf@sp	PTR unsigned char  size(2) Largest target is 20
		 -> send(BANK1[20]), 

    sprintf@ap	PTR void [1] size(2) Largest target is 2
		 -> ?_sprintf(BANK0[2]), 

    BT_load_string@string	PTR unsigned char  size(2) Largest target is 20
		 -> send(BANK1[20]), 


Critical Paths under _main in COMRAM

    None.

Critical Paths under _low_isr in COMRAM

    None.

Critical Paths under _high_isr in COMRAM

    None.

Critical Paths under _main in BANK0

    _main->_atof
    _sprintf->___lwmod
    ___lwmod->___lwdiv
    _atoi->___wmul
    _atof->_strtod
    _strtod->___fldiv
    ___flmul->___fladd
    ___fldiv->___flmul
    ___fltol->___fldiv
    ___fladd->___flneg
    _BT_load_string->_BT_load_char

Critical Paths under _low_isr in BANK0

    None.

Critical Paths under _high_isr in BANK0

    None.

Critical Paths under _main in BANK1

    None.

Critical Paths under _low_isr in BANK1

    None.

Critical Paths under _high_isr in BANK1

    None.

Critical Paths under _main in BANK2

    None.

Critical Paths under _low_isr in BANK2

    None.

Critical Paths under _high_isr in BANK2

    None.

Critical Paths under _main in BANK3

    None.

Critical Paths under _low_isr in BANK3

    None.

Critical Paths under _high_isr in BANK3

    None.

Critical Paths under _main in BANK4

    None.

Critical Paths under _low_isr in BANK4

    None.

Critical Paths under _high_isr in BANK4

    None.

Critical Paths under _main in BANK5

    None.

Critical Paths under _low_isr in BANK5

    None.

Critical Paths under _high_isr in BANK5

    None.

Critical Paths under _main in BANK6

    None.

Critical Paths under _low_isr in BANK6

    None.

Critical Paths under _high_isr in BANK6

    None.

Critical Paths under _main in BANK7

    None.

Critical Paths under _low_isr in BANK7

    None.

Critical Paths under _high_isr in BANK7

    None.

Call Graph Tables:

 ---------------------------------------------------------------------------------
 (Depth) Function   	        Calls       Base Space   Used Autos Params    Refs
 ---------------------------------------------------------------------------------
 (0) _main                                                38    38      0   26507
                                             90 BANK0      4     4      0
                                              0 BANK1     34    34      0
                     _BT_load_string
                _ConfigureOscillator
                            _InitApp
                            ___fladd
                            ___fldiv
                            ___flmul
                            ___flneg
                            ___fltol
                           ___xxtofl
                               _atof
                               _atoi
                            _sprintf
 ---------------------------------------------------------------------------------
 (1) _sprintf                                             23    17      6    1709
                                             12 BANK0     14     8      6
                            ___lwdiv
                            ___lwmod
 ---------------------------------------------------------------------------------
 (2) ___lwmod                                              5     1      4     412
                                              7 BANK0      5     1      4
                            ___lwdiv (ARG)
 ---------------------------------------------------------------------------------
 (2) ___lwdiv                                              7     3      4     421
                                              0 BANK0      7     3      4
 ---------------------------------------------------------------------------------
 (1) _atoi                                                 7     5      2     935
                                              6 BANK0      7     5      2
                             ___wmul
                            _isdigit
 ---------------------------------------------------------------------------------
 (2) ___wmul                                               6     2      4     412
                                              0 BANK0      6     2      4
 ---------------------------------------------------------------------------------
 (1) _atof                                                 4     0      4   11188
                                             86 BANK0      4     0      4
                             _strtod
 ---------------------------------------------------------------------------------
 (2) _strtod                                              12     8      4   10887
                                             74 BANK0     12     8      4
                            ___fldiv
                             ___flge
                            ___flmul
                            ___flneg
                             ___lmul
                           ___xxtofl
                            _isdigit
                            _isspace
 ---------------------------------------------------------------------------------
 (3) _isspace                                              3     3      0     130
                                              0 BANK0      3     3      0
 ---------------------------------------------------------------------------------
 (2) _isdigit                                              3     3      0      99
                                              0 BANK0      3     3      0
 ---------------------------------------------------------------------------------
 (3) ___xxtofl                                            14    10      4     746
                                              0 BANK0     14    10      4
 ---------------------------------------------------------------------------------
 (3) ___lmul                                              12     4      8     456
                                              0 BANK0     12     4      8
 ---------------------------------------------------------------------------------
 (3) ___flneg                                              4     0      4     245
                                              0 BANK0      4     0      4
 ---------------------------------------------------------------------------------
 (3) ___flmul                                             25    17      8    3773
                                             24 BANK0     25    17      8
                            ___fladd (ARG)
                            ___flneg (ARG)
                           ___xxtofl (ARG)
 ---------------------------------------------------------------------------------
 (3) ___flge                                              12     4      8     626
                                              0 BANK0     12     4      8
 ---------------------------------------------------------------------------------
 (3) ___fldiv                                             25    17      8    2835
                                             49 BANK0     25    17      8
                            ___fladd (ARG)
                            ___flmul (ARG)
                            ___flneg (ARG)
                           ___xxtofl (ARG)
 ---------------------------------------------------------------------------------
 (1) ___fltol                                             10     6      4     517
                                             74 BANK0     10     6      4
                            ___fladd (ARG)
                            ___fldiv (ARG)
                            ___flmul (ARG)
                            ___flneg (ARG)
                           ___xxtofl (ARG)
 ---------------------------------------------------------------------------------
 (1) ___fladd                                             20    12      8    3942
                                              4 BANK0     20    12      8
                            ___flneg (ARG)
 ---------------------------------------------------------------------------------
 (1) _InitApp                                              0     0      0       0
 ---------------------------------------------------------------------------------
 (1) _ConfigureOscillator                                  0     0      0       0
 ---------------------------------------------------------------------------------
 (1) _BT_load_string                                       2     0      2     186
                                              1 BANK0      2     0      2
                       _BT_load_char
 ---------------------------------------------------------------------------------
 (2) _BT_load_char                                         1     1      0      31
                                              0 BANK0      1     1      0
 ---------------------------------------------------------------------------------
 Estimated maximum stack depth 3
 ---------------------------------------------------------------------------------
 (Depth) Function   	        Calls       Base Space   Used Autos Params    Refs
 ---------------------------------------------------------------------------------
 (4) _low_isr                                             21    21      0       0
                                             19 COMRAM    21    21      0
 ---------------------------------------------------------------------------------
 Estimated maximum stack depth 4
 ---------------------------------------------------------------------------------
 (Depth) Function   	        Calls       Base Space   Used Autos Params    Refs
 ---------------------------------------------------------------------------------
 (5) _high_isr                                            19    19      0       0
                                              0 COMRAM    19    19      0
 ---------------------------------------------------------------------------------
 Estimated maximum stack depth 5
 ---------------------------------------------------------------------------------

 Call Graph Graphs:

 _main (ROOT)
   _BT_load_string
     _BT_load_char
   _ConfigureOscillator
   _InitApp
   ___fladd
     ___flneg (ARG)
   ___fldiv
     ___fladd (ARG)
       ___flneg (ARG)
     ___flmul (ARG)
       ___fladd (ARG)
         ___flneg (ARG)
       ___flneg (ARG)
       ___xxtofl (ARG)
     ___flneg (ARG)
     ___xxtofl (ARG)
   ___flmul
     ___fladd (ARG)
       ___flneg (ARG)
     ___flneg (ARG)
     ___xxtofl (ARG)
   ___flneg
   ___fltol
     ___fladd (ARG)
       ___flneg (ARG)
     ___fldiv (ARG)
       ___fladd (ARG)
         ___flneg (ARG)
       ___flmul (ARG)
         ___fladd (ARG)
           ___flneg (ARG)
         ___flneg (ARG)
         ___xxtofl (ARG)
       ___flneg (ARG)
       ___xxtofl (ARG)
     ___flmul (ARG)
       ___fladd (ARG)
         ___flneg (ARG)
       ___flneg (ARG)
       ___xxtofl (ARG)
     ___flneg (ARG)
     ___xxtofl (ARG)
   ___xxtofl
   _atof
     _strtod
       ___fldiv
         ___fladd (ARG)
           ___flneg (ARG)
         ___flmul (ARG)
           ___fladd (ARG)
             ___flneg (ARG)
           ___flneg (ARG)
           ___xxtofl (ARG)
         ___flneg (ARG)
         ___xxtofl (ARG)
       ___flge
       ___flmul
         ___fladd (ARG)
           ___flneg (ARG)
         ___flneg (ARG)
         ___xxtofl (ARG)
       ___flneg
       ___lmul
       ___xxtofl
       _isdigit
       _isspace
   _atoi
     ___wmul
     _isdigit
   _sprintf
     ___lwdiv
     ___lwmod
       ___lwdiv (ARG)

 _low_isr (ROOT)

 _high_isr (ROOT)

 Address spaces:
Name               Size   Autos  Total    Cost      Usage
BIGRAM             7FF      0       0      21        0.0%
EEDATA             100      0       0       0        0.0%
BITBANK7           100      0       0      18        0.0%
BANK7              100      0       0      19        0.0%
BITBANK6           100      0       0      16        0.0%
BANK6              100      0       0      17        0.0%
BITBANK5           100      0       0      14        0.0%
BANK5              100      0       0      15        0.0%
BITBANK4           100      0       0      12        0.0%
BANK4              100      0       0      13        0.0%
BITBANK3           100      0       0      10        0.0%
BANK3              100      0       0      11        0.0%
BITBANK2           100      0       0       8        0.0%
BANK2              100      0       0       9        0.0%
BITBANK1           100      0       0       6        0.0%
BANK1              100     22      4A       7       28.9%
BITBANK0            A0      0       0       4        0.0%
BANK0               A0     5E      82       5       81.2%
BITCOMRAM           5E      0       0       0        0.0%
COMRAM              5E     28      3E       1       66.0%
BITSFR               0      0       0     200        0.0%
SFR                  0      0       0     200        0.0%
STACK                0      0       0       2        0.0%
NULL                 0      0       0       0        0.0%
ABS                  0      0     10A      20        0.0%
DATA                 0      0     10A       3        0.0%
CODE                 0      0       0       0        0.0%


Microchip Technology PIC18 Macro Assembler V1.45 build -152302408 
Symbol Table                                                                                   Sun Mar 10 10:37:13 2019

                ___fldiv@aexp 00A9                  ___fldiv@bexp 00A8                             _i 003D  
                ___fldiv@sign 009D                            l90 141C                            l91 1574  
                          l94 149A                            l95 1458                            l96 14C2  
                          l97 154A                            l98 14C6                            l99 1570  
                          _kd 00C6                            _ki 00CA                            _kp 00DC  
                          bsr 000FE0           ___wmul@multiplicand 0062                   __CFG_BORV$3 000000  
                __CFG_CP0$OFF 000000                  __CFG_CP1$OFF 000000                  __CFG_CP2$OFF 000000  
                __CFG_CP3$OFF 000000                           l100 14E0                           l101 1502  
                         l110 194A                           l102 1524                           l111 194E  
                         l103 1946                           l200 2214                           l112 194E  
                         l104 18CE                           l201 2230                           l105 18FA  
                         l210 22FE                           l202 221C                           l106 18F6  
                         l203 23CE                           l211 22E6                           l107 1916  
                         l220 2ED4                           l212 2328                           l204 2220  
                         l108 1932                           l117 2F12                           l213 238A  
                         l205 2224                           l109 192E                           l230 2CD8  
                         l214 2330                           l206 2260                           l231 2D02  
                         l215 23A0                           l207 2228                           l232 2D12  
                         l216 23CA                           l208 2296                           l401 09FA  
                         l217 23DE                           l209 22B4                           l410 0B16  
                         l402 0A22                           l411 0B34                           l403 0A48  
                         l180 2E96                           l500 2DE6                           l420 0C34  
                         l412 0B70                           l404 0A44                           l181 2E96  
                         l501 2DFA                           l229 2CB6                           l421 0C84  
                         l413 0BC6                           l405 0A54                           l182 2EA8  
                         l174 2C24                           l430 0D6C                           l422 0CF6  
                         l414 0E7C                           l406 0A4C                           l183 2EA8  
                         l431 0DBC                           l415 0CFA                           l423 0CDE  
                         l407 0A72                           l432 0E2E                           l424 0E32  
                         l416 0C18                           l408 0B1E                           l177 2E80  
                         l425 0E32                           l433 0E16                           l417 0BDA  
                         l409 0B1A                           l178 2E80                           l186 2E56  
                         l530 297A                           l434 0E68                           l426 0D54  
                         l418 0C30                           l450 2AE4                           l442 29EE  
                         l179 2E92                           l187 2E3E                           l531 298E  
                         l523 28BC                           l427 0D16                           l419 0C70  
                         l451 2B12                           l443 29E4                           l188 2E72  
                         l532 297E                           l524 29DE                           l428 0D68  
                         l452 2B1A                           l444 2A26                           l189 2E72  
                         l533 29A2                           l525 2952                           l429 0DA8  
                         l437 2F00                           l445 2A58                           l534 29CA  
                         l526 2936                           l390 08C8                           l446 2A7E  
                         l710 2B62                           l198 23A4                           l527 293A  
                         l623 2E2E                           l391 08FA                           l383 0838  
                         l447 2A7A                           l711 2B8C                           l199 21EE  
                         l528 294E                           l800 1F86                           l624 2E38  
                         l392 09B8                           l384 0846                           l448 2AC4  
                         l712 2B9C                           l720 2C64                           l529 29A6  
                         l801 1FC8                           l393 091E                           l385 083C  
                         l449 2A82                           l713 2BA4                           l721 2C86  
                         l810 20D4                           l802 1FBA                           l394 09BC  
                         l386 086A                           l706 2B9C                           l722 2C96  
                         l731 0EA0                           l811 20BA                           l803 1FFC  
                         l395 099C                           l387 088E                           l707 2B4C  
                         l723 2C9E                           l740 0FE4                           l732 0EDE  
                         l812 20D4                           l804 2012                           l628 2D5C  
                         l396 0944                           l388 08AC                           l708 2B40  
                         l716 2C96                           l741 0FA4                           l733 0ED4  
                         l813 20D0                           l805 202E                           l493 260E  
                         l629 2D66                           l397 09B0                           l389 08A8  
                         l709 2B5E                           l717 2C4E                           l750 1150  
                         l742 1054                           l734 0EF2                           l814 2134  
                         l806 2060                           l494 2650                           l830 1A68  
                         l822 1974                           l398 09B0                           l718 2C42  
                         l751 10E6                           l743 10B0                           l735 0F10  
                         l815 2130                           l807 2032                           l495 269C  
                         l823 19AE                           l399 0B38                           l719 2C60  
                         l760 1202                           l752 1404                           l744 109A  
                         l736 0F2A                           l816 2168                           l808 204C  
                         l496 26E4                           l840 1CB2                           l832 1A50  
                         l824 19A8                           l761 1240                           l753 114C  
                         l745 1058                           l737 0F68                           l817 21A2  
                         l809 2072                           l497 2732                           l841 1CAE  
                         l833 1DC0                           l825 19C2                           l770 12E0  
                         l762 129A                           l754 1120                           l746 1072  
                         l738 0F5E                           l818 21BA                           l842 1D12  
                         l834 1C3E                           l826 19E2                           l771 12FA  
                         l763 1244                           l755 1128                           l747 107A  
                         l739 0F7C                           l819 21C0                           l843 1D0E  
                         l835 1C10                           l827 1A1C                           l851 243A  
                         l780 13D0                           l772 12F6                           l764 1262  
                         l756 113C                           l748 108E                           l844 1D40  
                         l836 1C2A                           l828 1A16                           l860 2514  
                         l852 244E                           l781 13D6                           l773 136C  
                         l757 12B0                           l765 1278                           l749 10B0  
                         l845 1DA8                           l837 1C50                           l829 1A2C  
                         l861 2528                           l853 247C                           l782 13F0  
                         l774 1368                           l766 1280                           l758 11F2  
                         l790 1E18                           l846 1D72                           l838 1CB2  
                         l862 2518                           l854 25C8                           l775 1364  
                         l767 1296                           l759 11EE                           l791 1E36  
                         l847 1DA4                           l839 1C98                           l855 2494  
                         l776 13BC                           l768 12AC                           l792 1E56  
                         l848 1D9A                           l864 254A                           l856 2484  
                         l769 12FA                           l793 1E94                           l865 254A  
                         l857 24C6                           l778 1390                           l794 1E8A  
                         l866 2568                           l858 24E2                           l779 13B8  
                         l795 1EA8                           l867 25B4                           l859 24CA  
                         l796 1EEE                           l788 1DE4                           l797 21DE  
                         l789 1E22                           l798 1F26                           l799 1FFE  
                __CFG_CPB$OFF 000000                           _PR2 000FCB                  __CFG_CPD$OFF 000000  
                __CFG_BOR$OFF 000000                           wreg 000FE8                  ___flmul@aexp 0085  
                ___flmul@bexp 008A                  ___flmul@sign 0084                  ___flmul@temp 008F  
                ___flmul@prod 008B                  __CFG_LVP$OFF 000000                  ___fltol@exp1 00B3  
                __CFG_WDT$OFF 000000                          l4001 1120                          l3201 1EFE  
                        l4003 1128                          l4011 1150                          l3211 1F5E  
                        l3203 1F0E                          l4013 1176                          l4021 11F2  
                        l4005 1136                          l4101 28F8                          l3221 1FAA  
                        l3213 1F6E                          l3205 1F22                          l3301 19AE  
                        l3141 2CA0                          l4031 124E                          l4023 1218  
                        l4015 11CC                          l4007 113C                          l4111 293A  
                        l4103 28FC                          l3231 1FFC                          l3223 1FB8  
                        l3215 1F7E                          l3207 1F26                          l3151 1DC2  
                        l3311 19E2                          l3303 19C2                          l3143 2CB6  
                        l3135 2D54                          l4041 1280                          l4033 125C  
                        l4025 1228                          l4017 11CE                          l4009 1146  
                        l4121 297E                          l4113 2944                          l4105 290A  
                        l3241 204A                          l3233 2012                          l3225 1FC8  
                        l3217 1F86                          l3209 1F4E                          l3161 1E04  
                        l3153 1DD0                          l3137 2728                          l3401 1D5A  
                        l3321 1A3C                          l3313 19F2                          l3305 19C8  
                        l3145 2CC4                          l4201 1926                          l4051 12C2  
                        l4043 1290                          l4035 1262                          l4027 123C  
                        l4019 11DE                          l4131 29DE                          l4123 298E  
                        l4107 291E                          l4115 2952                          l3251 20B2  
                        l3235 2028                          l3243 2060                          l3227 1FE6  
                        l3219 1F96                          l3171 1E3C                          l3163 1E18  
                        l3155 1DDE                          l3139 272E                          l3403 1D76  
                        l3411 1DA8                          l3331 1A7E                          l3323 1A50  
                        l3315 1A02                          l3307 19CE                          l3147 2CD8  
                        l4203 1932                          l4061 1324                          l4053 12D8  
                        l4037 1270                          l4029 1244                          l4045 129A  
                        l4117 2962                          l4125 29A6                          l4109 2932  
                        l3261 2128                          l3253 20C8                          l3245 2072  
                        l3237 2032                          l3229 1FE8                          l3181 1E76  
                        l3173 1E42                          l3165 1E1A                          l3157 1DE4  
                        l3413 1DAC                          l3405 1D86                          l3341 1AD0  
                        l3333 1A94                          l3325 1A64                          l3317 1A16  
                        l3309 19DC                          l3149 2CE2                          l3501 2536  
                        l3421 2D30                          l4141 1438                          l4133 1406  
                        l4071 13B0                          l4063 135E                          l4055 12EE  
                        l4039 1278                          l4047 12B0                          l4127 29B6  
                        l4119 2976                          l3271 21A2                          l3255 20E4  
                        l3263 2134                          l3247 2076                          l3239 203C  
                        l3191 1EBE                          l3183 1E8A                          l3175 1E50  
                        l3159 1DF4                          l3167 1E22                          l3415 1DC0  
                        l3407 1D94                          l3351 1B16                          l3343 1ADE  
                        l3335 1AA0                          l3327 1A68                          l3319 1A1C  
                        l3511 25B4                          l3503 2558                          l3431 2E00  
                        l3423 2D40                          l4151 14C6                          l4143 144A  
                        l4135 140E                          l4081 13DC                          l4073 13BC  
                        l4057 130A                          l4065 136C                          l4049 12B4  
                        l4129 29CA                          l3281 21C6                          l3273 21A6  
                        l3265 214E                          l3257 20F0                          l3249 2084  
                        l3193 1ECE                          l3185 1E8C                          l3177 1E56  
                        l3169 1E36                          l3409 1D9A                          l3361 1B84  
                        l3353 1B30                          l3345 1AEA                          l3337 1AB8  
                        l3329 1A74                          l3513 25C8                          l3505 2590  
                        l3441 2E38                          l3433 2E06                          l3425 2D54  
                        l3417 2D18                          l3601 0AD8                          l3521 2ED4  
                        l4153 14E0                          l4161 154A                          l4145 1458  
                        l4137 141C                          l3515 2E78                          l4083 13EA  
                        l4075 13CA                          l4067 137C                          l4059 1316  
                        l4091 28A4                          l3283 21CA                          l3275 21B4  
                        l3267 2168                          l3259 20FE                          l3195 1ED6  
                        l3179 1E66                          l3187 1E94                          l3451 2650  
                        l3443 25CA                          l3371 1C1A                          l3363 1BAE  
                        l3355 1B40                          l3347 1AFA                          l3339 1AC4  
                        l3291 196E                          l3507 25A0                          l3435 2E16  
                        l3427 2D5C                          l3419 2D1E                          l3603 0ADC  
                        l3611 0B38                          l3531 086A                          l3523 0810  
                        l4171 15BC                          l4155 1502                          l4147 1490  
                        l4139 1430                          l4163 1574                          l4085 13F0  
                        l4077 13D0                          l4069 1390                          l4093 28B8  
                        l3285 21DE                          l3277 21BA                          l3269 2182  
                        l3197 1EEA                          l3189 1EA8                          l3461 2728  
                        l3453 265E                          l3445 25FA                          l3381 1C62  
                        l3373 1C28                          l3365 1BE4                          l3357 1B5C  
                        l3349 1B06                          l3293 1974                          l3509 25AE  
                        l3437 2E26                          l3429 2D66                          l3621 0B96  
                        l3613 0B3C                          l3605 0AF8                          l3541 08A0  
                        l3533 0870                          l3525 0824                          l3517 2EAA  
                        l3701 2B68                          l4181 17C0                          l4173 15CA  
                        l4165 1588                          l4157 1524                          l4149 149A  
                        l4087 1404                          l4079 13D6                          l4095 28BC  
                        l3279 21C0                          l3199 1EEE                          l3463 2732  
                        l3455 269C                          l3447 260E                          l3391 1CDC  
                        l3383 1C90                          l3375 1C3E                          l3367 1BF2  
                        l3359 1B68                          l3295 1984                          l3287 1952  
                        l3471 2DFA                          l3439 2E2E                          l3631 0BDA  
                        l3623 0BAE                          l3615 0B4E                          l3607 0B1E  
                        l3551 08D6                          l3543 08AC                          l3535 0882  
                        l3527 083C                          l3519 2EC8                          l3703 2B7E  
                        l3711 2C26                          l4191 18EA                          l4183 183E  
                        l4175 1648                          l4167 1590                          l4159 1546  
                        l4097 28E6                          l4089 288C                          l3457 26AA  
                        l3449 263C                          l3393 1D06                          l3385 1CA6  
                        l3377 1C50                          l3369 1C10                          l3297 1994  
                        l3289 1960                          l3465 2DBA                          l3481 2464  
                        l3473 23E4                          l3641 0C70                          l3633 0C0E  
                        l3625 0BC2                          l3617 0B5C                          l3609 0B2E  
                        l3561 0922                          l3553 08F0                          l3545 08B0  
                        l3537 0886                          l3529 0846                          l3801 2A58  
                        l3705 2B86                          l3721 2C7A                          l3713 2C3A  
                        l4193 18FA                          l4185 18A4                          l4177 16B0  
                        l4169 15A0                          l3731 2BBE                          l4099 28E8  
                        l3459 2722                          l3387 1CC2                          l3395 1D12  
                        l3379 1C54                          l3299 19A8                          l3467 2DD2  
                        l3491 24CA                          l3483 2478                          l3475 23F6  
                        l3651 0CDE                          l3643 0C84                          l3635 0C18  
                        l3627 0BC6                          l3619 0B70                          l3571 09AA  
                        l3563 0934                          l3555 08FA                          l3547 08C0  
                        l3539 088E                          l3811 2AE4                          l3803 2A72  
                        l3707 2B8C                          l3723 2C86                          l3715 2C42  
                        l4195 18FE                          l4187 18C2                          l4179 172E  
                        l3741 2BD6                          l3733 2BCE                          l3901 0ED6  
                        l3397 1D2C                          l3389 1CCE                          l3469 2DE6  
                        l3493 24CC                          l3485 247C                          l3477 2404  
                        l3661 0D4A                          l3653 0CF2                          l3645 0CB8  
                        l3637 0C34                          l3629 0BD4                          l3581 0A18  
                        l3565 0942                          l3557 091A                          l3573 09BC  
                        l3549 08C8                          l3813 2AF6                          l3805 2A82  
                        l3709 2B92                          l3725 2C8C                          l3717 2C4E  
                        l3821 21EE                          l4197 190E                          l4189 18CE  
                        l3727 2F02                          l3751 2BFC                          l3743 2BD8  
                        l3735 2BD0                          l3911 0F10                          l3903 0EDE  
                        l3399 1D40                          l3495 24D8                          l3487 2484  
                        l3479 244E                          l3671 0DBC                          l3663 0D54  
                        l3647 0CC6                          l3639 0C68                          l3655 0CFA  
                        l3591 0A72                          l3583 0A22                          l3575 09C2  
                        l3567 0946                          l3559 091E                          l3815 2ED6  
                        l3807 2ABC                          l3719 2C64                          l3831 2230  
                        l3823 2200                          l4199 1916                          l3761 2C06  
                        l3753 2BFE                          l3745 2BE6                          l3737 2BD2  
                        l3729 2BA6                          l3921 0F4A                          l3913 0F16  
                        l3905 0EF2                          l3497 2518                          l3489 2494  
                        l3681 0E2A                          l3673 0DF0                          l3665 0D6C  
                        l3657 0D12                          l3649 0CDA                          l3593 0A8E  
                        l3585 0A3C                          l3577 09DC                          l3569 097A  
                        l3817 2F00                          l3809 2AC4                          l3841 228A  
                        l3833 2260                          l3825 220C                          l3771 2C14  
                        l3763 2C0C                          l3755 2C00                          l3747 2BE8  
                        l3739 2BD4                          l3931 0F8E                          l3923 0F5E  
                        l3915 0F24                          l3907 0EF8                          l3499 2528  
                        l3683 0E40                          l3675 0DFE                          l3667 0DA0  
                        l3659 0D16                          l3595 0A9E                          l3587 0A4C  
                        l3579 09FA                          l3691 2B26                          l3851 22E2  
                        l3843 2296                          l3835 2270                          l3827 2214  
                        l3819 21E0                          l3781 2C1E                          l3773 2C16  
                        l3765 2C0E                          l3757 2C02                          l3749 2BFA  
                        l3941 0FB0                          l3933 0F9C                          l3925 0F60  
                        l3917 0F2A                          l3909 0F0A                          l3685 0E68  
                        l3677 0E12                          l3669 0DA8                          l3597 0AA2  
                        l3589 0A54                          l3693 2B38                          l3861 2320  
                        l3853 22E6                          l3845 229A                          l3837 2278  
                        l3829 222C                          l3783 2C20                          l3775 2C18  
                        l3767 2C10                          l3759 2C04                          l3951 0FC4  
                        l3943 0FB4                          l3935 0FA4                          l3919 0F3A  
                        l3927 0F68                          l3687 0E7C                          l3679 0E16  
                        l3599 0ABE                          l3791 29EE                          l3695 2B40  
                        l3871 238A                          l3863 2328                          l3855 22E8  
                        l3847 22B0                          l3839 2286                          l3881 2E3E  
                        l3785 2C22                          l3777 2C1A                          l3769 2C12  
                        l3961 0FD8                          l3953 0FC8                          l3945 0FB8  
                        l3937 0FA8                          l3929 0F7C                          l3793 2A08  
                        l3697 2B4C                          l3689 2B1C                          l3865 2330  
                        l3857 22FE                          l3849 22B4                          l3873 23A4  
                        l3883 2E4C                          l3779 2C1C                          l3971 103C  
                        l3963 0FDC                          l3955 0FCC                          l3947 0FBC  
                        l3939 0FAC                          l3891 0E9A                          l3795 2A26  
                        l3787 29E0                          l3699 2B62                          l3867 2376  
                        l3859 2314                          l3875 23CE                          l3885 2E56  
                        l3981 1088                          l3973 104C                          l3957 0FD0  
                        l3949 0FC0                          l3965 0FE4                          l3893 0EA0  
                        l3797 2A34                          l3789 29E4                          l3877 23DE  
                        l3869 2382                          l3879 2E3A                          l3991 10E2  
                        l3983 108E                          l3975 1066                          l3967 0FE8  
                        l3959 0FD4                          l3895 0EB0                          l3887 0E7E  
                        l3799 2A4E                          l3993 10E6                          l3985 1098  
                        l3977 1072                          l3969 1020                          l3897 0EC0  
                        l3889 0E8C                          l3995 10F6                          l3987 10BE  
                        l3979 107A                          l3899 0ED4                          l3997 1104  
                        l3989 10CE                          l3999 1112                          STR_1 080B  
                        _LATA 000F89                          _LATB 000F8A                          _LATC 000F8B  
                        u4000 1CC2                          u4001 1CBE                          u4010 1CDC  
                        u4011 1CD8                          u4100 25FA                          u4020 1D2C  
                        u4101 25F6                          u4021 1D28                          u4110 263C  
                        u4030 1D5A                          u4111 2638                          u4031 1D56  
                        u5000 1112                          u4120 265E                          u4040 1D94  
                        u4200 2510                          u5001 110E                          u4121 265A  
                        u4041 1D90                          u4201 250C                          u5010 1136  
                        u4130 26AA                          u4210 2536                          u4050 2D30  
                        u5011 1132                          u4131 26A6                          u4211 2532  
                        u4051 2D2C                          u5100 12C2                          u5020 1176  
                        u4140 2722                          u4220 2546                          u4060 2D40  
                        u4300 0882                          u5101 12BE                          u5021 1172  
                        u4141 271E                          u4221 2542                          u4061 2D3C  
                        u4301 087E                          u5110 12D8                          u5030 11DE  
                        u4150 2DD2                          u4230 2558                          u4070 2D50  
                        u4310 08A0                          u5111 12D4                          u5031 11DA  
                        u4151 2DCE                          u4231 2554                          u4071 2D4C  
                        u4311 089C                          u5200 13EA                          u5120 12EE  
                        u5040 1218                          u4240 25A0                          u4160 23F6  
                        u4080 2E16                          u4400 0A18                          u4320 08D6  
                        u5201 13E6                          u5121 12EA                          u5041 1214  
                        u4241 259C                          u4161 23F2                          u4081 2E12  
                        u4401 0A14                          u4321 08D2                          u5130 130A  
                        u5050 1228                          u5210 28A4                          u3610 2CC4  
                        u4250 25AE                          u4170 2404                          u4090 2E26  
                        u4410 0A3C                          u4330 08F0                          u5131 1306  
                        u5051 1224                          u5211 28A0                          u3611 2CC0  
                        u4251 25AA                          u4171 2400                          u4091 2E22  
                        u4411 0A38                          u4331 08EC                          u4260 2E8E  
                        u5140 1324                          u5060 125C                          u5220 28DC  
                        u3700 1EFE                          u3620 2D02                          u4180 2464  
                        u4500 0BD4                          u4420 0A6E                          u4340 0916  
                        u5300 14BE                          u4261 2E8A                          u5141 1320  
                        u5061 1258                          u3701 1EFA                          u3621 2CFE  
                        u4181 2460                          u4501 0BD0                          u4421 0A6A  
                        u4341 0912                          u5301 14BA                          u4270 2EA4  
                        u5150 135E                          u5070 1270                          u5230 290A  
                        u3710 1F96                          u3630 1DDE                          u4190 24C2  
                        u4510 0C2C                          u4430 0A8E                          u4350 0934  
                        u5310 1588                          u4271 2EA0                          u5151 135A  
                        u5071 126C                          u5231 2906                          u3711 1F92  
                        u3631 1DDA                          u4191 24BE                          u4511 0C28  
                        u4431 0A8A                          u4351 0930                          u5311 1584  
                        u5160 137C                          u5080 1290                          u5240 291E  
                        u3800 20C8                          u3720 1FB8                          u3640 1DF4  
                        u4600 0E40                          u4520 0C80                          u4440 0ABE  
                        u4360 0942                          u4280 0824                          u5320 18C2  
                        u5161 1378                          u5081 128C                          u5241 291A  
                        u5225 28D2                          u3801 20C4                          u3721 1FB4  
                        u3641 1DF0                          u4601 0E3C                          u4521 0C7C  
                        u4441 0ABA                          u4361 093E                          u4281 0820  
                        u5321 18BE                          u5170 138C                          u5090 12A8  
                        u5250 2962                          u3810 20E4                          u3730 1FE6  
                        u3650 1E04                          u4530 0CB8                          u4450 0AF8  
                        u4370 09AA                          u4290 0866                          u4610 2B38  
                        u5330 18EA                          u5171 1388                          u5091 12A4  
                        u5251 295E                          u3811 20E0                          u3731 1FE2  
                        u3651 1E00                          u4531 0CB4                          u4451 0AF4  
                        u4371 09A6                          u4291 0862                          u4611 2B34  
                        u5331 18E6                          u5180 13B0                          u5260 299E  
                        u3820 20FE                          u3740 200E                          u3660 1E50  
                        u3900 19F2                          u4540 0CC6                          u4460 0B2E  
                        u4380 09DC                          u4700 2A72                          u4620 2B5A  
                        u5340 190E                          u5181 13AC                          u5261 299A  
                        u3821 20FA                          u3741 200A                          u3661 1E4C  
                        u3901 19EE                          u4541 0CC2                          u4461 0B2A  
                        u4381 09D8                          u4701 2A6E                          u4621 2B56  
                        u5341 190A                          u5190 13CA                          u5270 29B6  
                        u3830 214E                          u3750 2028                          u3670 1E66  
                        u3910 1A02                          u4550 0D0E                          u4470 0B4E  
                        u4390 09F6                          u4710 2AE0                          u4630 2B7E  
                        u5350 1926                          u5191 13C6                          u5271 29B2  
                        u3831 214A                          u3751 2024                          u3671 1E62  
                        u3911 19FE                          u4551 0D0A                          u4471 0B4A  
                        u4391 09F2                          u4711 2ADC                          u4631 2B7A  
                        u5351 1922                          u3840 2182                          u3760 204A  
                        u3680 1E76                          u3920 1A3C                          u4560 0D64  
                        u4480 0B5C                          u4720 2AF6                          u4640 2C3A  
                        u4800 23C6                          u5280 1430                          i1l41 006E  
                        u3841 217E                          u3761 2046                          u3681 1E72  
                        u3921 1A38                          u4561 0D60                          u4481 0B58  
                        u4721 2AF2                          u4641 2C36                          u4801 23C2  
                        u5281 142C                          u4810 2E6E                          u3850 21B4  
                        u3770 206E                          u3690 1EBE                          u3930 1A4C  
                        u4570 0DB8                          u4490 0BAE                          u4650 2C5C  
                        u4730 2200                          u4811 2E6A                          u3851 21B0  
                        u3771 206A                          u3691 1EBA                          u3931 1A48  
                        u4571 0DB4                          u4491 0BAA                          u4651 2C58  
                        u4731 21FC                          u5291 1442                          u4900 0F9C  
                        u4820 0E9A                          u3780 2084                          u3940 1BCE  
                        u3860 196E                          u4580 0DF0                          u4660 2C7A  
                        u4740 2286                          u4901 0F98                          u4821 0E96  
                        u3781 2080                          u3861 196A                          u4581 0DEC  
                        u4661 2C76                          u4741 2282                          i2l30 283C  
                        u4910 1020                          u4830 0EB0                          u3790 20B2  
                        u3950 1C28                          u3870 1984                          u4590 0DFE  
                        u4670 2A08                          u4750 22AC                          i2l31 27CE  
                        u4911 101C                          u4831 0EAC                          u3791 20AE  
                        u3951 1C24                          u3871 1980                          u4591 0DFA  
                        u4671 2A04                          u4751 22A8                          i2l32 2838  
                        u4920 1038                          u4840 0EC0                          u3960 1C4C  
                        u3880 1994                          u4680 2A22                          u4760 22DE  
                        i2l33 2834                          u4921 1032                          u4841 0EBC  
                        u3961 1C48                          u3945 1BC4                          u3881 1990  
                        u4681 2A1E                          u4761 22DA                          i2l34 2828  
                        u4930 103A                          u4850 0F0A                          u3970 1C62  
                        u3890 19DC                          u4690 2A4E                          u4770 22FA  
                        i2l35 2830                          i2l27 2796                          u4851 0F06  
                        u3971 1C5E                          u3891 19D8                          u4691 2A4A  
                        u4771 22F6                          i2l28 2840                          i2l36 2840  
                        u4940 1066                          u4860 0F24                          u3980 1C90  
                        u4780 2314                          i2l29 27B4                          u4941 1062  
                        u4861 0F20                          u3981 1C8C                          u4781 2310  
                        u4950 1088                          u4870 0F3A                          u3990 1CA6  
                        u4790 239C                          u4951 1084                          u4871 0F36  
                        u3991 1CA2                          u4791 2398                          u4960 10AC  
                        u4880 0F4A                          u4961 10A8                          u4881 0F46  
                        u4970 10BE                          u4890 0F8E                          u4971 10BA  
                        u4891 0F8A                          u4980 10CE                          u4981 10CA  
                        u4990 1104                          u4991 1100                          _TMR2 000FCC  
                        _TRMT 007D61                          _TXIF 007CF4                          _atof 2ED6  
                        _atoi 29E0                          _main 1406                          _read 00D2  
                        _send 0114                          _plus 00CE                          fsr0h 000FEA  
                        fsr1h 000FE2                          fsr2h 000FDA                          fsr0l 000FE9  
                        indf1 000FE7                          indf2 000FDF                          fsr1l 000FE1  
                        fsr2l 000FD9                          btemp 003F                          prodh 000FF4  
                        prodl 000FF3                          start 00C6                 __CFG_IESO$OFF 000000  
             ___fldiv@new_exp 00A2                 __CFG_MCLRE$ON 000000                  ___param_bank 000000  
             __end_of_InitApp 2C26                 __CFG_PLLDIV$1 000000                 ___fltol@sign1 00B2  
                       ?_atof 00B6                         ?_atoi 0066               __end_of___fladd 1406  
                       ?_main 0001               __end_of___fldiv 21E0               __end_of___flneg 2DFC  
             __end_of___flmul 1DC2               __end_of___fltol 29E0               __end_of___lwdiv 2BA6  
             __end_of___lwmod 2CA0                         _RCREG 000FAE                         _SPBRG 000FAF  
                       _PORTA 000F80                         _PORTB 000F81                         _PORTC 000F82  
               __CFG_USBDIV$1 000000                         _TRISA 000F92                         _TRISB 000F93  
                       _TXREG 000FAD           _ConfigureOscillator 2F02                 __CFG_PWRT$OFF 000000  
               __CFG_WRT0$OFF 000000                 __CFG_WRT1$OFF 000000                 __CFG_WRT2$OFF 000000  
         ___lmul@multiplicand 0064                 __CFG_WRT3$OFF 000000                __CFG_EBTR0$OFF 000000  
              __CFG_FCMEN$OFF 000000                __CFG_EBTR1$OFF 000000                __CFG_EBTR2$OFF 000000  
              __CFG_EBTR3$OFF 000000                 __CFG_WRTB$OFF 000000                 __CFG_WRTC$OFF 000000  
               __CFG_WRTD$OFF 000000                __CFG_EBTRB$OFF 000000               __end_of_dpowers 080B  
                       _count 00D6                         _limit 00D4               __end_of_isdigit 2E3A  
                       _timer 00D8                         atoi@a 006B                         atof@s 00B6  
                       atoi@s 0066                         main@j 0148               __end_of_isspace 2D68  
             __end_of_low_isr 00C6                         pclath 000FFA                         tablat 000FF5  
                       plusw1 000FE3                         plusw2 000FDB                         status 000FD8  
                       wtemp6 0040               __end_of_sprintf 23E0          ?_ConfigureOscillator 0001  
             __initialization 2D68                  __end_of_atof 2F02                  __end_of_atoi 2B1C  
                __end_of_main 1952                        ??_atof 00BA                        ??_atoi 0068  
                      ??_main 00BA                 __activetblptr 000002               __CFG_CCP2MX$OFF 000000  
                      _CCPR2L 000FBB                        i2l3041 277E                        i2l3051 27C2  
                      i2l3043 278C                        i2l3061 2828                        i2l3053 27C8  
                      i2l3045 2790                        i2l3055 27DC                        i2l3047 27A4  
                      i2l3057 280A                        i2l3049 27AE                        i2l3059 2812  
              _BT_load_string 2E3A              __end_of___xxtofl 25CA                     ??_InitApp 0060  
       ??_ConfigureOscillator 0060                        _Buffer 0029                __CFG_XINST$OFF 000000  
            __end_of_high_isr 288C                        ___flge 25CA                        ___lmul 2CA0  
                   ??___fladd 006C                        ___wmul 2EAA                     ??___fldiv 0099  
                   ??___flneg 0064                     ??___flmul 0080                     ??___fltol 00AE  
                   ??___lwdiv 0064                     ??___lwmod 006B                        _count2 00DA  
                      _errora 00C2                        _errorv 00BE                        clear_0 2D8E  
                      clear_1 2D9A                        clear_2 2DA6                        main@du 0128  
                      _strtod 0810                     ??_isdigit 0060                  __mediumconst 0000  
                   ??_isspace 0060                     ??_low_isr 0014                        tblptrh 000FF7  
                      tblptrl 000FF6                        tblptru 000FF8                     ??_sprintf 0072  
      __end_of_BT_load_string 2E74                    ___flge@ff1 0060                    ___flge@ff2 0064  
                ___xxtofl@arg 006A                  ___xxtofl@exp 0069                  ___xxtofl@val 0060  
                  __accesstop 0060       __end_of__initialization 2DAC               __CFG_PBADEN$OFF 000000  
                  ___flneg@f1 0060                 ___rparam_used 000001                    ___fltol@f1 00AA  
              __pcstackCOMRAM 0001                  __pidataBANK0 2F14               ?_BT_load_string 0061  
                  __pbssBANK0 00BE                    __pbssBANK1 0100                 ?_BT_load_char 0001  
                     ?___flge 0060                       ?___lmul 0060                       ?___wmul 0060  
              ___lmul@product 0068                       ?_strtod 00AA                     ?___xxtofl 0060  
                   ?_high_isr 0001               __CFG_VREGEN$OFF 000000                ??_BT_load_char 0060  
                     _InitApp 2BA6                       __Hparam 0000                       __Lparam 0000  
             __size_of___flge 016A                       ___fladd 0E7E                       ___fldiv 1DC2  
                     ___flneg 2DBA               __size_of___lmul 0074                       ___flmul 1952  
                     ___fltol 288C               __size_of___wmul 002C                       ___lwdiv 2B1C  
                     ___lwmod 2C26                  __psmallconst 0800               __CFG_STVREN$OFF 000000  
                     __pcinit 2D68                       __ramtop 0800                       __ptext0 1406  
                     __ptext1 21E0                       __ptext2 2C26                       __ptext3 2B1C  
                     __ptext4 29E0                       __ptext5 2EAA                       __ptext6 2ED6  
                     __ptext7 0810                       __ptext8 2D14                       __ptext9 2DFC  
                   _T0CONbits 000FD5               __size_of_strtod 066E                       _dpowers 0801  
                   _T2CONbits 000FCA                       _isdigit 2DFC                    ??___xxtofl 0064  
                     _isspace 2D14                       _low_isr 0018                       _sprintf 21E0  
                  ??_high_isr 0001                __pintcode_body 2734          end_of_initialization 2DAC  
               __Lmediumconst 0000                       int_func 2734                       postdec1 000FE5  
                     postdec2 000FDD                       postinc0 000FEE                       postinc2 000FDE  
                     strtod@s 00AA                   ___fladd@grs 0077                 ___xxtofl@sign 0068  
                   _TRISCbits 000F94              BT_load_char@byte 0060                   ___fldiv@grs 00A4  
                 ___fldiv@rem 009E   __end_of_ConfigureOscillator 2F14                   ___flmul@grs 0086  
                 _CCP2CONbits 000FBA                     _TXSTAbits 000FAC                __end_of___flge 2734  
              __end_of___lmul 2D14                __end_of___wmul 2ED6          __end_of_BT_load_char 2EAA  
            ??_BT_load_string 0063                __end_of_strtod 0E7E           start_initialization 2D68  
                    ??___flge 0068                      ??___lmul 0068                      ??___wmul 0064  
                 __pdataBANK0 00DC              __CFG_LPT1OSC$OFF 000000                      ??_strtod 00AE  
                   ___fladd@a 0068                     ___fladd@b 0064                     ___fldiv@a 0095  
                   ___fldiv@b 0091                     ___flmul@a 007C                     ___flmul@b 0078  
                 __pbssCOMRAM 0029                 __pcstackBANK0 0060                 __pcstackBANK1 0128  
           __size_of___xxtofl 01EA                  _isdigit$1122 0061             __size_of_high_isr 2884  
                 sprintf@flag 0075                  _currentSpeed 00D0                   sprintf@prec 0076  
                    ?_InitApp 0001                     _main$1456 013C                     _main$1457 0140  
                   _main$1458 0144              ___lwdiv@dividend 0060                     __pintcode 0008  
                    ?___fladd 0064                      ?___fldiv 0091                      ?___flneg 0060  
                    ?___flmul 0078                      ?___fltol 00AA                      ?___lwdiv 0060  
                    ?___lwmod 0067                   __pintcodelo 0018                   __smallconst 0800  
                    ?_isdigit 0001                      ?_isspace 0001                      ?_low_isr 0001  
            ___lwdiv@quotient 0065                      ?_sprintf 006C                ___wmul@product 0064  
                    _IPR1bits 000F9F                      _PIE1bits 000F9D                      i2u350_40 27C2  
                    i2u350_41 27BE                      i2u351_40 27DC                      i2u351_41 27D8  
                    i2u352_40 280A                      i2u352_41 2806                      _PIR1bits 000F9E  
                    i2u348_40 278C                      i2u348_41 2788                      i2u349_40 27A4  
                    i2u349_41 27A0                      _RCONbits 000FD0              __CFG_WDTPS$32768 000000  
                   main@F3644 0100                   strtod@flags 00B0         __size_of_BT_load_char 0036  
                 strtod@expon 00B1                    _ADCON1bits 000FC1             ___wmul@multiplier 0060  
                _isspace$1125 0061             ___lmul@multiplier 0060                   _INTCON2bits 000FF1  
                 _INTCON3bits 000FF0                     copy_data0 2D7C                  _BT_load_char 2E74  
            __size_of_InitApp 0080                      __Hrparam 0000                      __Lrparam 0000  
            __size_of___fladd 0588              __size_of___fldiv 041E              __size_of___flneg 0042  
            __size_of___flmul 0470              __size_of___fltol 0154              __size_of___lwdiv 008A  
            __size_of___lwmod 007A                    sprintf@val 0077                      ___xxtofl 23E0  
            __size_of_isdigit 003E               ___lwdiv@divisor 0062              __size_of_isspace 0054  
             ___lwdiv@counter 0064              __size_of_low_isr 00AE                      __ptext10 23E0  
                    __ptext11 2CA0                      __ptext20 2E3A                      __ptext12 2DBA  
                    __ptext21 2E74                      __ptext13 1952                      __ptext14 25CA  
                    __ptext15 1DC2                      __ptext16 288C                      __ptext17 0E7E  
                    __ptext18 2BA6                      __ptext19 2F02                      _high_isr 0008  
            __size_of_sprintf 0200                 __size_of_atof 002C                 __size_of_atoi 013C  
               __size_of_main 054C                      _refSpeed 00E0  __size_of_ConfigureOscillator 0012  
                  strtod@eexp 00AF                      int$flags 003F                      atoi@sign 006A  
       __CFG_CPUDIV$OSC1_PLL2 000000          BT_load_string@string 0061                    _INTCONbits 000FF2  
                    isdigit@c 0062                      intlevel1 0000                      intlevel2 0000  
                   sprintf@ap 0073                     sprintf@sp 006C              ___lwmod@dividend 0067  
                    isspace@c 0062                    _RCSTA1bits 000FAB                    _OSCCONbits 000FD3  
                   strtod@res 00AC           __CFG_FOSC$INTOSC_EC 000000                      sprintf@c 0079  
                    sprintf@f 006E               ___lwmod@divisor 0069               ___lwmod@counter 006B  
                    strtod@_u 00B2                 ___fladd@signs 0074       __size_of_BT_load_string 003A  
                ___fladd@aexp 0075                  ___fladd@bexp 0076  
